ARM GAS  /tmp/ccDTG3e6.s 			page 1


   1              		.cpu cortex-m4
   2              		.arch armv7e-m
   3              		.fpu fpv4-sp-d16
   4              		.eabi_attribute 27, 1
   5              		.eabi_attribute 28, 1
   6              		.eabi_attribute 20, 1
   7              		.eabi_attribute 21, 1
   8              		.eabi_attribute 23, 3
   9              		.eabi_attribute 24, 1
  10              		.eabi_attribute 25, 1
  11              		.eabi_attribute 26, 1
  12              		.eabi_attribute 30, 1
  13              		.eabi_attribute 34, 1
  14              		.eabi_attribute 18, 4
  15              		.file	"usbh_ctlreq.c"
  16              		.text
  17              	.Ltext0:
  18              		.cfi_sections	.debug_frame
  19              		.file 1 "Middlewares/ST/STM32_USB_Host_Library/Core/Src/usbh_ctlreq.c"
  20              		.section	.text.USBH_ParseDevDesc,"ax",%progbits
  21              		.align	1
  22              		.syntax unified
  23              		.thumb
  24              		.thumb_func
  26              	USBH_ParseDevDesc:
  27              	.LVL0:
  28              	.LFB142:
   1:Middlewares/ST/STM32_USB_Host_Library/Core/Src/usbh_ctlreq.c **** /**
   2:Middlewares/ST/STM32_USB_Host_Library/Core/Src/usbh_ctlreq.c ****   ******************************************************************************
   3:Middlewares/ST/STM32_USB_Host_Library/Core/Src/usbh_ctlreq.c ****   * @file    usbh_ctlreq.c
   4:Middlewares/ST/STM32_USB_Host_Library/Core/Src/usbh_ctlreq.c ****   * @author  MCD Application Team
   5:Middlewares/ST/STM32_USB_Host_Library/Core/Src/usbh_ctlreq.c ****   * @brief   This file implements the control requests for device enumeration
   6:Middlewares/ST/STM32_USB_Host_Library/Core/Src/usbh_ctlreq.c ****   ******************************************************************************
   7:Middlewares/ST/STM32_USB_Host_Library/Core/Src/usbh_ctlreq.c ****   * @attention
   8:Middlewares/ST/STM32_USB_Host_Library/Core/Src/usbh_ctlreq.c ****   *
   9:Middlewares/ST/STM32_USB_Host_Library/Core/Src/usbh_ctlreq.c ****   * <h2><center>&copy; Copyright (c) 2015 STMicroelectronics.
  10:Middlewares/ST/STM32_USB_Host_Library/Core/Src/usbh_ctlreq.c ****   * All rights reserved.</center></h2>
  11:Middlewares/ST/STM32_USB_Host_Library/Core/Src/usbh_ctlreq.c ****   *
  12:Middlewares/ST/STM32_USB_Host_Library/Core/Src/usbh_ctlreq.c ****   * This software component is licensed by ST under Ultimate Liberty license
  13:Middlewares/ST/STM32_USB_Host_Library/Core/Src/usbh_ctlreq.c ****   * SLA0044, the "License"; You may not use this file except in compliance with
  14:Middlewares/ST/STM32_USB_Host_Library/Core/Src/usbh_ctlreq.c ****   * the License. You may obtain a copy of the License at:
  15:Middlewares/ST/STM32_USB_Host_Library/Core/Src/usbh_ctlreq.c ****   *                      www.st.com/SLA0044
  16:Middlewares/ST/STM32_USB_Host_Library/Core/Src/usbh_ctlreq.c ****   *
  17:Middlewares/ST/STM32_USB_Host_Library/Core/Src/usbh_ctlreq.c ****   ******************************************************************************
  18:Middlewares/ST/STM32_USB_Host_Library/Core/Src/usbh_ctlreq.c ****   */
  19:Middlewares/ST/STM32_USB_Host_Library/Core/Src/usbh_ctlreq.c **** 
  20:Middlewares/ST/STM32_USB_Host_Library/Core/Src/usbh_ctlreq.c **** /* Includes ------------------------------------------------------------------*/
  21:Middlewares/ST/STM32_USB_Host_Library/Core/Src/usbh_ctlreq.c **** #include "usbh_ctlreq.h"
  22:Middlewares/ST/STM32_USB_Host_Library/Core/Src/usbh_ctlreq.c **** 
  23:Middlewares/ST/STM32_USB_Host_Library/Core/Src/usbh_ctlreq.c **** /** @addtogroup USBH_LIB
  24:Middlewares/ST/STM32_USB_Host_Library/Core/Src/usbh_ctlreq.c ****   * @{
  25:Middlewares/ST/STM32_USB_Host_Library/Core/Src/usbh_ctlreq.c ****   */
  26:Middlewares/ST/STM32_USB_Host_Library/Core/Src/usbh_ctlreq.c **** 
  27:Middlewares/ST/STM32_USB_Host_Library/Core/Src/usbh_ctlreq.c **** /** @addtogroup USBH_LIB_CORE
  28:Middlewares/ST/STM32_USB_Host_Library/Core/Src/usbh_ctlreq.c ****   * @{
  29:Middlewares/ST/STM32_USB_Host_Library/Core/Src/usbh_ctlreq.c ****   */
  30:Middlewares/ST/STM32_USB_Host_Library/Core/Src/usbh_ctlreq.c **** 
ARM GAS  /tmp/ccDTG3e6.s 			page 2


  31:Middlewares/ST/STM32_USB_Host_Library/Core/Src/usbh_ctlreq.c **** /** @defgroup USBH_CTLREQ
  32:Middlewares/ST/STM32_USB_Host_Library/Core/Src/usbh_ctlreq.c ****   * @brief This file implements the standard requests for device enumeration
  33:Middlewares/ST/STM32_USB_Host_Library/Core/Src/usbh_ctlreq.c ****   * @{
  34:Middlewares/ST/STM32_USB_Host_Library/Core/Src/usbh_ctlreq.c ****   */
  35:Middlewares/ST/STM32_USB_Host_Library/Core/Src/usbh_ctlreq.c **** 
  36:Middlewares/ST/STM32_USB_Host_Library/Core/Src/usbh_ctlreq.c **** 
  37:Middlewares/ST/STM32_USB_Host_Library/Core/Src/usbh_ctlreq.c **** /** @defgroup USBH_CTLREQ_Private_Defines
  38:Middlewares/ST/STM32_USB_Host_Library/Core/Src/usbh_ctlreq.c ****   * @{
  39:Middlewares/ST/STM32_USB_Host_Library/Core/Src/usbh_ctlreq.c ****   */
  40:Middlewares/ST/STM32_USB_Host_Library/Core/Src/usbh_ctlreq.c **** /**
  41:Middlewares/ST/STM32_USB_Host_Library/Core/Src/usbh_ctlreq.c ****   * @}
  42:Middlewares/ST/STM32_USB_Host_Library/Core/Src/usbh_ctlreq.c ****   */
  43:Middlewares/ST/STM32_USB_Host_Library/Core/Src/usbh_ctlreq.c **** 
  44:Middlewares/ST/STM32_USB_Host_Library/Core/Src/usbh_ctlreq.c **** 
  45:Middlewares/ST/STM32_USB_Host_Library/Core/Src/usbh_ctlreq.c **** /** @defgroup USBH_CTLREQ_Private_TypesDefinitions
  46:Middlewares/ST/STM32_USB_Host_Library/Core/Src/usbh_ctlreq.c ****   * @{
  47:Middlewares/ST/STM32_USB_Host_Library/Core/Src/usbh_ctlreq.c ****   */
  48:Middlewares/ST/STM32_USB_Host_Library/Core/Src/usbh_ctlreq.c **** /**
  49:Middlewares/ST/STM32_USB_Host_Library/Core/Src/usbh_ctlreq.c ****   * @}
  50:Middlewares/ST/STM32_USB_Host_Library/Core/Src/usbh_ctlreq.c ****   */
  51:Middlewares/ST/STM32_USB_Host_Library/Core/Src/usbh_ctlreq.c **** 
  52:Middlewares/ST/STM32_USB_Host_Library/Core/Src/usbh_ctlreq.c **** 
  53:Middlewares/ST/STM32_USB_Host_Library/Core/Src/usbh_ctlreq.c **** 
  54:Middlewares/ST/STM32_USB_Host_Library/Core/Src/usbh_ctlreq.c **** /** @defgroup USBH_CTLREQ_Private_Macros
  55:Middlewares/ST/STM32_USB_Host_Library/Core/Src/usbh_ctlreq.c ****   * @{
  56:Middlewares/ST/STM32_USB_Host_Library/Core/Src/usbh_ctlreq.c ****   */
  57:Middlewares/ST/STM32_USB_Host_Library/Core/Src/usbh_ctlreq.c **** /**
  58:Middlewares/ST/STM32_USB_Host_Library/Core/Src/usbh_ctlreq.c ****   * @}
  59:Middlewares/ST/STM32_USB_Host_Library/Core/Src/usbh_ctlreq.c ****   */
  60:Middlewares/ST/STM32_USB_Host_Library/Core/Src/usbh_ctlreq.c **** 
  61:Middlewares/ST/STM32_USB_Host_Library/Core/Src/usbh_ctlreq.c **** 
  62:Middlewares/ST/STM32_USB_Host_Library/Core/Src/usbh_ctlreq.c **** /** @defgroup USBH_CTLREQ_Private_Variables
  63:Middlewares/ST/STM32_USB_Host_Library/Core/Src/usbh_ctlreq.c ****   * @{
  64:Middlewares/ST/STM32_USB_Host_Library/Core/Src/usbh_ctlreq.c ****   */
  65:Middlewares/ST/STM32_USB_Host_Library/Core/Src/usbh_ctlreq.c **** /**
  66:Middlewares/ST/STM32_USB_Host_Library/Core/Src/usbh_ctlreq.c ****   * @}
  67:Middlewares/ST/STM32_USB_Host_Library/Core/Src/usbh_ctlreq.c ****   */
  68:Middlewares/ST/STM32_USB_Host_Library/Core/Src/usbh_ctlreq.c **** 
  69:Middlewares/ST/STM32_USB_Host_Library/Core/Src/usbh_ctlreq.c **** /** @defgroup USBH_CTLREQ_Private_FunctionPrototypes
  70:Middlewares/ST/STM32_USB_Host_Library/Core/Src/usbh_ctlreq.c ****   * @{
  71:Middlewares/ST/STM32_USB_Host_Library/Core/Src/usbh_ctlreq.c ****   */
  72:Middlewares/ST/STM32_USB_Host_Library/Core/Src/usbh_ctlreq.c **** static USBH_StatusTypeDef USBH_HandleControl(USBH_HandleTypeDef *phost);
  73:Middlewares/ST/STM32_USB_Host_Library/Core/Src/usbh_ctlreq.c **** 
  74:Middlewares/ST/STM32_USB_Host_Library/Core/Src/usbh_ctlreq.c **** static void USBH_ParseDevDesc(USBH_DevDescTypeDef *dev_desc,
  75:Middlewares/ST/STM32_USB_Host_Library/Core/Src/usbh_ctlreq.c ****                               uint8_t *buf, uint16_t length);
  76:Middlewares/ST/STM32_USB_Host_Library/Core/Src/usbh_ctlreq.c **** 
  77:Middlewares/ST/STM32_USB_Host_Library/Core/Src/usbh_ctlreq.c **** static USBH_StatusTypeDef USBH_ParseCfgDesc(USBH_HandleTypeDef *phost,
  78:Middlewares/ST/STM32_USB_Host_Library/Core/Src/usbh_ctlreq.c ****                                             uint8_t *buf, uint16_t length);
  79:Middlewares/ST/STM32_USB_Host_Library/Core/Src/usbh_ctlreq.c **** 
  80:Middlewares/ST/STM32_USB_Host_Library/Core/Src/usbh_ctlreq.c **** static USBH_StatusTypeDef USBH_ParseEPDesc(USBH_HandleTypeDef *phost, USBH_EpDescTypeDef  *ep_descr
  81:Middlewares/ST/STM32_USB_Host_Library/Core/Src/usbh_ctlreq.c **** static void USBH_ParseStringDesc(uint8_t *psrc, uint8_t *pdest, uint16_t length);
  82:Middlewares/ST/STM32_USB_Host_Library/Core/Src/usbh_ctlreq.c **** static void USBH_ParseInterfaceDesc(USBH_InterfaceDescTypeDef  *if_descriptor, uint8_t *buf);
  83:Middlewares/ST/STM32_USB_Host_Library/Core/Src/usbh_ctlreq.c **** 
  84:Middlewares/ST/STM32_USB_Host_Library/Core/Src/usbh_ctlreq.c **** 
  85:Middlewares/ST/STM32_USB_Host_Library/Core/Src/usbh_ctlreq.c **** /**
  86:Middlewares/ST/STM32_USB_Host_Library/Core/Src/usbh_ctlreq.c ****   * @}
  87:Middlewares/ST/STM32_USB_Host_Library/Core/Src/usbh_ctlreq.c ****   */
ARM GAS  /tmp/ccDTG3e6.s 			page 3


  88:Middlewares/ST/STM32_USB_Host_Library/Core/Src/usbh_ctlreq.c **** 
  89:Middlewares/ST/STM32_USB_Host_Library/Core/Src/usbh_ctlreq.c **** 
  90:Middlewares/ST/STM32_USB_Host_Library/Core/Src/usbh_ctlreq.c **** /** @defgroup USBH_CTLREQ_Private_Functions
  91:Middlewares/ST/STM32_USB_Host_Library/Core/Src/usbh_ctlreq.c ****   * @{
  92:Middlewares/ST/STM32_USB_Host_Library/Core/Src/usbh_ctlreq.c ****   */
  93:Middlewares/ST/STM32_USB_Host_Library/Core/Src/usbh_ctlreq.c **** 
  94:Middlewares/ST/STM32_USB_Host_Library/Core/Src/usbh_ctlreq.c **** 
  95:Middlewares/ST/STM32_USB_Host_Library/Core/Src/usbh_ctlreq.c **** /**
  96:Middlewares/ST/STM32_USB_Host_Library/Core/Src/usbh_ctlreq.c ****   * @brief  USBH_Get_DevDesc
  97:Middlewares/ST/STM32_USB_Host_Library/Core/Src/usbh_ctlreq.c ****   *         Issue Get Device Descriptor command to the device. Once the response
  98:Middlewares/ST/STM32_USB_Host_Library/Core/Src/usbh_ctlreq.c ****   *         received, it parses the device descriptor and updates the status.
  99:Middlewares/ST/STM32_USB_Host_Library/Core/Src/usbh_ctlreq.c ****   * @param  phost: Host Handle
 100:Middlewares/ST/STM32_USB_Host_Library/Core/Src/usbh_ctlreq.c ****   * @param  length: Length of the descriptor
 101:Middlewares/ST/STM32_USB_Host_Library/Core/Src/usbh_ctlreq.c ****   * @retval USBH Status
 102:Middlewares/ST/STM32_USB_Host_Library/Core/Src/usbh_ctlreq.c ****   */
 103:Middlewares/ST/STM32_USB_Host_Library/Core/Src/usbh_ctlreq.c **** USBH_StatusTypeDef USBH_Get_DevDesc(USBH_HandleTypeDef *phost, uint8_t length)
 104:Middlewares/ST/STM32_USB_Host_Library/Core/Src/usbh_ctlreq.c **** {
 105:Middlewares/ST/STM32_USB_Host_Library/Core/Src/usbh_ctlreq.c ****   USBH_StatusTypeDef status;
 106:Middlewares/ST/STM32_USB_Host_Library/Core/Src/usbh_ctlreq.c **** 
 107:Middlewares/ST/STM32_USB_Host_Library/Core/Src/usbh_ctlreq.c ****   status = USBH_GetDescriptor(phost,
 108:Middlewares/ST/STM32_USB_Host_Library/Core/Src/usbh_ctlreq.c ****                               USB_REQ_RECIPIENT_DEVICE | USB_REQ_TYPE_STANDARD,
 109:Middlewares/ST/STM32_USB_Host_Library/Core/Src/usbh_ctlreq.c ****                               USB_DESC_DEVICE, phost->device.Data,
 110:Middlewares/ST/STM32_USB_Host_Library/Core/Src/usbh_ctlreq.c ****                               (uint16_t)length);
 111:Middlewares/ST/STM32_USB_Host_Library/Core/Src/usbh_ctlreq.c **** 
 112:Middlewares/ST/STM32_USB_Host_Library/Core/Src/usbh_ctlreq.c ****   if (status == USBH_OK)
 113:Middlewares/ST/STM32_USB_Host_Library/Core/Src/usbh_ctlreq.c ****   {
 114:Middlewares/ST/STM32_USB_Host_Library/Core/Src/usbh_ctlreq.c ****     /* Commands successfully sent and Response Received */
 115:Middlewares/ST/STM32_USB_Host_Library/Core/Src/usbh_ctlreq.c ****     USBH_ParseDevDesc(&phost->device.DevDesc, phost->device.Data,
 116:Middlewares/ST/STM32_USB_Host_Library/Core/Src/usbh_ctlreq.c ****                       (uint16_t)length);
 117:Middlewares/ST/STM32_USB_Host_Library/Core/Src/usbh_ctlreq.c ****   }
 118:Middlewares/ST/STM32_USB_Host_Library/Core/Src/usbh_ctlreq.c **** 
 119:Middlewares/ST/STM32_USB_Host_Library/Core/Src/usbh_ctlreq.c ****   return status;
 120:Middlewares/ST/STM32_USB_Host_Library/Core/Src/usbh_ctlreq.c **** }
 121:Middlewares/ST/STM32_USB_Host_Library/Core/Src/usbh_ctlreq.c **** 
 122:Middlewares/ST/STM32_USB_Host_Library/Core/Src/usbh_ctlreq.c **** 
 123:Middlewares/ST/STM32_USB_Host_Library/Core/Src/usbh_ctlreq.c **** /**
 124:Middlewares/ST/STM32_USB_Host_Library/Core/Src/usbh_ctlreq.c ****   * @brief  USBH_Get_CfgDesc
 125:Middlewares/ST/STM32_USB_Host_Library/Core/Src/usbh_ctlreq.c ****   *         Issues Configuration Descriptor to the device. Once the response
 126:Middlewares/ST/STM32_USB_Host_Library/Core/Src/usbh_ctlreq.c ****   *         received, it parses the configuration descriptor and updates the
 127:Middlewares/ST/STM32_USB_Host_Library/Core/Src/usbh_ctlreq.c ****   *         status.
 128:Middlewares/ST/STM32_USB_Host_Library/Core/Src/usbh_ctlreq.c ****   * @param  phost: Host Handle
 129:Middlewares/ST/STM32_USB_Host_Library/Core/Src/usbh_ctlreq.c ****   * @param  length: Length of the descriptor
 130:Middlewares/ST/STM32_USB_Host_Library/Core/Src/usbh_ctlreq.c ****   * @retval USBH Status
 131:Middlewares/ST/STM32_USB_Host_Library/Core/Src/usbh_ctlreq.c ****   */
 132:Middlewares/ST/STM32_USB_Host_Library/Core/Src/usbh_ctlreq.c **** USBH_StatusTypeDef USBH_Get_CfgDesc(USBH_HandleTypeDef *phost,
 133:Middlewares/ST/STM32_USB_Host_Library/Core/Src/usbh_ctlreq.c ****                                     uint16_t length)
 134:Middlewares/ST/STM32_USB_Host_Library/Core/Src/usbh_ctlreq.c **** 
 135:Middlewares/ST/STM32_USB_Host_Library/Core/Src/usbh_ctlreq.c **** {
 136:Middlewares/ST/STM32_USB_Host_Library/Core/Src/usbh_ctlreq.c ****   USBH_StatusTypeDef status;
 137:Middlewares/ST/STM32_USB_Host_Library/Core/Src/usbh_ctlreq.c ****   uint8_t *pData = phost->device.CfgDesc_Raw;
 138:Middlewares/ST/STM32_USB_Host_Library/Core/Src/usbh_ctlreq.c **** 
 139:Middlewares/ST/STM32_USB_Host_Library/Core/Src/usbh_ctlreq.c ****   status = USBH_GetDescriptor(phost, (USB_REQ_RECIPIENT_DEVICE | USB_REQ_TYPE_STANDARD),
 140:Middlewares/ST/STM32_USB_Host_Library/Core/Src/usbh_ctlreq.c ****                               USB_DESC_CONFIGURATION, pData, length);
 141:Middlewares/ST/STM32_USB_Host_Library/Core/Src/usbh_ctlreq.c **** 
 142:Middlewares/ST/STM32_USB_Host_Library/Core/Src/usbh_ctlreq.c ****   if (status == USBH_OK)
 143:Middlewares/ST/STM32_USB_Host_Library/Core/Src/usbh_ctlreq.c ****   {
 144:Middlewares/ST/STM32_USB_Host_Library/Core/Src/usbh_ctlreq.c ****     /* Commands successfully sent and Response Received  */
ARM GAS  /tmp/ccDTG3e6.s 			page 4


 145:Middlewares/ST/STM32_USB_Host_Library/Core/Src/usbh_ctlreq.c ****     status = USBH_ParseCfgDesc(phost, pData, length);
 146:Middlewares/ST/STM32_USB_Host_Library/Core/Src/usbh_ctlreq.c ****   }
 147:Middlewares/ST/STM32_USB_Host_Library/Core/Src/usbh_ctlreq.c **** 
 148:Middlewares/ST/STM32_USB_Host_Library/Core/Src/usbh_ctlreq.c ****   return status;
 149:Middlewares/ST/STM32_USB_Host_Library/Core/Src/usbh_ctlreq.c **** }
 150:Middlewares/ST/STM32_USB_Host_Library/Core/Src/usbh_ctlreq.c **** 
 151:Middlewares/ST/STM32_USB_Host_Library/Core/Src/usbh_ctlreq.c **** 
 152:Middlewares/ST/STM32_USB_Host_Library/Core/Src/usbh_ctlreq.c **** /**
 153:Middlewares/ST/STM32_USB_Host_Library/Core/Src/usbh_ctlreq.c ****   * @brief  USBH_Get_StringDesc
 154:Middlewares/ST/STM32_USB_Host_Library/Core/Src/usbh_ctlreq.c ****   *         Issues string Descriptor command to the device. Once the response
 155:Middlewares/ST/STM32_USB_Host_Library/Core/Src/usbh_ctlreq.c ****   *         received, it parses the string descriptor and updates the status.
 156:Middlewares/ST/STM32_USB_Host_Library/Core/Src/usbh_ctlreq.c ****   * @param  phost: Host Handle
 157:Middlewares/ST/STM32_USB_Host_Library/Core/Src/usbh_ctlreq.c ****   * @param  string_index: String index for the descriptor
 158:Middlewares/ST/STM32_USB_Host_Library/Core/Src/usbh_ctlreq.c ****   * @param  buff: Buffer address for the descriptor
 159:Middlewares/ST/STM32_USB_Host_Library/Core/Src/usbh_ctlreq.c ****   * @param  length: Length of the descriptor
 160:Middlewares/ST/STM32_USB_Host_Library/Core/Src/usbh_ctlreq.c ****   * @retval USBH Status
 161:Middlewares/ST/STM32_USB_Host_Library/Core/Src/usbh_ctlreq.c ****   */
 162:Middlewares/ST/STM32_USB_Host_Library/Core/Src/usbh_ctlreq.c **** USBH_StatusTypeDef USBH_Get_StringDesc(USBH_HandleTypeDef *phost,
 163:Middlewares/ST/STM32_USB_Host_Library/Core/Src/usbh_ctlreq.c ****                                        uint8_t string_index, uint8_t *buff,
 164:Middlewares/ST/STM32_USB_Host_Library/Core/Src/usbh_ctlreq.c ****                                        uint16_t length)
 165:Middlewares/ST/STM32_USB_Host_Library/Core/Src/usbh_ctlreq.c **** {
 166:Middlewares/ST/STM32_USB_Host_Library/Core/Src/usbh_ctlreq.c ****   USBH_StatusTypeDef status;
 167:Middlewares/ST/STM32_USB_Host_Library/Core/Src/usbh_ctlreq.c **** 
 168:Middlewares/ST/STM32_USB_Host_Library/Core/Src/usbh_ctlreq.c ****   status = USBH_GetDescriptor(phost,
 169:Middlewares/ST/STM32_USB_Host_Library/Core/Src/usbh_ctlreq.c ****                               USB_REQ_RECIPIENT_DEVICE | USB_REQ_TYPE_STANDARD,
 170:Middlewares/ST/STM32_USB_Host_Library/Core/Src/usbh_ctlreq.c ****                               USB_DESC_STRING | string_index,
 171:Middlewares/ST/STM32_USB_Host_Library/Core/Src/usbh_ctlreq.c ****                               phost->device.Data, length);
 172:Middlewares/ST/STM32_USB_Host_Library/Core/Src/usbh_ctlreq.c **** 
 173:Middlewares/ST/STM32_USB_Host_Library/Core/Src/usbh_ctlreq.c ****   if (status == USBH_OK)
 174:Middlewares/ST/STM32_USB_Host_Library/Core/Src/usbh_ctlreq.c ****   {
 175:Middlewares/ST/STM32_USB_Host_Library/Core/Src/usbh_ctlreq.c ****     /* Commands successfully sent and Response Received  */
 176:Middlewares/ST/STM32_USB_Host_Library/Core/Src/usbh_ctlreq.c ****     USBH_ParseStringDesc(phost->device.Data, buff, length);
 177:Middlewares/ST/STM32_USB_Host_Library/Core/Src/usbh_ctlreq.c ****   }
 178:Middlewares/ST/STM32_USB_Host_Library/Core/Src/usbh_ctlreq.c **** 
 179:Middlewares/ST/STM32_USB_Host_Library/Core/Src/usbh_ctlreq.c ****   return status;
 180:Middlewares/ST/STM32_USB_Host_Library/Core/Src/usbh_ctlreq.c **** }
 181:Middlewares/ST/STM32_USB_Host_Library/Core/Src/usbh_ctlreq.c **** 
 182:Middlewares/ST/STM32_USB_Host_Library/Core/Src/usbh_ctlreq.c **** 
 183:Middlewares/ST/STM32_USB_Host_Library/Core/Src/usbh_ctlreq.c **** /**
 184:Middlewares/ST/STM32_USB_Host_Library/Core/Src/usbh_ctlreq.c ****   * @brief  USBH_GetDescriptor
 185:Middlewares/ST/STM32_USB_Host_Library/Core/Src/usbh_ctlreq.c ****   *         Issues Descriptor command to the device. Once the response received,
 186:Middlewares/ST/STM32_USB_Host_Library/Core/Src/usbh_ctlreq.c ****   *         it parses the descriptor and updates the status.
 187:Middlewares/ST/STM32_USB_Host_Library/Core/Src/usbh_ctlreq.c ****   * @param  phost: Host Handle
 188:Middlewares/ST/STM32_USB_Host_Library/Core/Src/usbh_ctlreq.c ****   * @param  req_type: Descriptor type
 189:Middlewares/ST/STM32_USB_Host_Library/Core/Src/usbh_ctlreq.c ****   * @param  value_idx: Value for the GetDescriptr request
 190:Middlewares/ST/STM32_USB_Host_Library/Core/Src/usbh_ctlreq.c ****   * @param  buff: Buffer to store the descriptor
 191:Middlewares/ST/STM32_USB_Host_Library/Core/Src/usbh_ctlreq.c ****   * @param  length: Length of the descriptor
 192:Middlewares/ST/STM32_USB_Host_Library/Core/Src/usbh_ctlreq.c ****   * @retval USBH Status
 193:Middlewares/ST/STM32_USB_Host_Library/Core/Src/usbh_ctlreq.c ****   */
 194:Middlewares/ST/STM32_USB_Host_Library/Core/Src/usbh_ctlreq.c **** USBH_StatusTypeDef USBH_GetDescriptor(USBH_HandleTypeDef *phost,
 195:Middlewares/ST/STM32_USB_Host_Library/Core/Src/usbh_ctlreq.c ****                                       uint8_t  req_type,
 196:Middlewares/ST/STM32_USB_Host_Library/Core/Src/usbh_ctlreq.c ****                                       uint16_t value_idx,
 197:Middlewares/ST/STM32_USB_Host_Library/Core/Src/usbh_ctlreq.c ****                                       uint8_t *buff,
 198:Middlewares/ST/STM32_USB_Host_Library/Core/Src/usbh_ctlreq.c ****                                       uint16_t length)
 199:Middlewares/ST/STM32_USB_Host_Library/Core/Src/usbh_ctlreq.c **** {
 200:Middlewares/ST/STM32_USB_Host_Library/Core/Src/usbh_ctlreq.c ****   if (phost->RequestState == CMD_SEND)
 201:Middlewares/ST/STM32_USB_Host_Library/Core/Src/usbh_ctlreq.c ****   {
ARM GAS  /tmp/ccDTG3e6.s 			page 5


 202:Middlewares/ST/STM32_USB_Host_Library/Core/Src/usbh_ctlreq.c ****     phost->Control.setup.b.bmRequestType = USB_D2H | req_type;
 203:Middlewares/ST/STM32_USB_Host_Library/Core/Src/usbh_ctlreq.c ****     phost->Control.setup.b.bRequest = USB_REQ_GET_DESCRIPTOR;
 204:Middlewares/ST/STM32_USB_Host_Library/Core/Src/usbh_ctlreq.c ****     phost->Control.setup.b.wValue.w = value_idx;
 205:Middlewares/ST/STM32_USB_Host_Library/Core/Src/usbh_ctlreq.c **** 
 206:Middlewares/ST/STM32_USB_Host_Library/Core/Src/usbh_ctlreq.c ****     if ((value_idx & 0xff00U) == USB_DESC_STRING)
 207:Middlewares/ST/STM32_USB_Host_Library/Core/Src/usbh_ctlreq.c ****     {
 208:Middlewares/ST/STM32_USB_Host_Library/Core/Src/usbh_ctlreq.c ****       phost->Control.setup.b.wIndex.w = 0x0409U;
 209:Middlewares/ST/STM32_USB_Host_Library/Core/Src/usbh_ctlreq.c ****     }
 210:Middlewares/ST/STM32_USB_Host_Library/Core/Src/usbh_ctlreq.c ****     else
 211:Middlewares/ST/STM32_USB_Host_Library/Core/Src/usbh_ctlreq.c ****     {
 212:Middlewares/ST/STM32_USB_Host_Library/Core/Src/usbh_ctlreq.c ****       phost->Control.setup.b.wIndex.w = 0U;
 213:Middlewares/ST/STM32_USB_Host_Library/Core/Src/usbh_ctlreq.c ****     }
 214:Middlewares/ST/STM32_USB_Host_Library/Core/Src/usbh_ctlreq.c ****     phost->Control.setup.b.wLength.w = length;
 215:Middlewares/ST/STM32_USB_Host_Library/Core/Src/usbh_ctlreq.c ****   }
 216:Middlewares/ST/STM32_USB_Host_Library/Core/Src/usbh_ctlreq.c **** 
 217:Middlewares/ST/STM32_USB_Host_Library/Core/Src/usbh_ctlreq.c ****   return USBH_CtlReq(phost, buff, length);
 218:Middlewares/ST/STM32_USB_Host_Library/Core/Src/usbh_ctlreq.c **** }
 219:Middlewares/ST/STM32_USB_Host_Library/Core/Src/usbh_ctlreq.c **** 
 220:Middlewares/ST/STM32_USB_Host_Library/Core/Src/usbh_ctlreq.c **** 
 221:Middlewares/ST/STM32_USB_Host_Library/Core/Src/usbh_ctlreq.c **** /**
 222:Middlewares/ST/STM32_USB_Host_Library/Core/Src/usbh_ctlreq.c ****   * @brief  USBH_SetAddress
 223:Middlewares/ST/STM32_USB_Host_Library/Core/Src/usbh_ctlreq.c ****   *         This command sets the address to the connected device
 224:Middlewares/ST/STM32_USB_Host_Library/Core/Src/usbh_ctlreq.c ****   * @param  phost: Host Handle
 225:Middlewares/ST/STM32_USB_Host_Library/Core/Src/usbh_ctlreq.c ****   * @param  DeviceAddress: Device address to assign
 226:Middlewares/ST/STM32_USB_Host_Library/Core/Src/usbh_ctlreq.c ****   * @retval USBH Status
 227:Middlewares/ST/STM32_USB_Host_Library/Core/Src/usbh_ctlreq.c ****   */
 228:Middlewares/ST/STM32_USB_Host_Library/Core/Src/usbh_ctlreq.c **** USBH_StatusTypeDef USBH_SetAddress(USBH_HandleTypeDef *phost,
 229:Middlewares/ST/STM32_USB_Host_Library/Core/Src/usbh_ctlreq.c ****                                    uint8_t DeviceAddress)
 230:Middlewares/ST/STM32_USB_Host_Library/Core/Src/usbh_ctlreq.c **** {
 231:Middlewares/ST/STM32_USB_Host_Library/Core/Src/usbh_ctlreq.c ****   if (phost->RequestState == CMD_SEND)
 232:Middlewares/ST/STM32_USB_Host_Library/Core/Src/usbh_ctlreq.c ****   {
 233:Middlewares/ST/STM32_USB_Host_Library/Core/Src/usbh_ctlreq.c ****     phost->Control.setup.b.bmRequestType = USB_H2D | USB_REQ_RECIPIENT_DEVICE | \
 234:Middlewares/ST/STM32_USB_Host_Library/Core/Src/usbh_ctlreq.c ****                                            USB_REQ_TYPE_STANDARD;
 235:Middlewares/ST/STM32_USB_Host_Library/Core/Src/usbh_ctlreq.c **** 
 236:Middlewares/ST/STM32_USB_Host_Library/Core/Src/usbh_ctlreq.c ****     phost->Control.setup.b.bRequest = USB_REQ_SET_ADDRESS;
 237:Middlewares/ST/STM32_USB_Host_Library/Core/Src/usbh_ctlreq.c **** 
 238:Middlewares/ST/STM32_USB_Host_Library/Core/Src/usbh_ctlreq.c ****     phost->Control.setup.b.wValue.w = (uint16_t)DeviceAddress;
 239:Middlewares/ST/STM32_USB_Host_Library/Core/Src/usbh_ctlreq.c ****     phost->Control.setup.b.wIndex.w = 0U;
 240:Middlewares/ST/STM32_USB_Host_Library/Core/Src/usbh_ctlreq.c ****     phost->Control.setup.b.wLength.w = 0U;
 241:Middlewares/ST/STM32_USB_Host_Library/Core/Src/usbh_ctlreq.c ****   }
 242:Middlewares/ST/STM32_USB_Host_Library/Core/Src/usbh_ctlreq.c **** 
 243:Middlewares/ST/STM32_USB_Host_Library/Core/Src/usbh_ctlreq.c ****   return USBH_CtlReq(phost, NULL, 0U);
 244:Middlewares/ST/STM32_USB_Host_Library/Core/Src/usbh_ctlreq.c **** }
 245:Middlewares/ST/STM32_USB_Host_Library/Core/Src/usbh_ctlreq.c **** 
 246:Middlewares/ST/STM32_USB_Host_Library/Core/Src/usbh_ctlreq.c **** 
 247:Middlewares/ST/STM32_USB_Host_Library/Core/Src/usbh_ctlreq.c **** /**
 248:Middlewares/ST/STM32_USB_Host_Library/Core/Src/usbh_ctlreq.c ****   * @brief  USBH_SetCfg
 249:Middlewares/ST/STM32_USB_Host_Library/Core/Src/usbh_ctlreq.c ****   *         The command sets the configuration value to the connected device
 250:Middlewares/ST/STM32_USB_Host_Library/Core/Src/usbh_ctlreq.c ****   * @param  phost: Host Handle
 251:Middlewares/ST/STM32_USB_Host_Library/Core/Src/usbh_ctlreq.c ****   * @param  cfg_idx: Configuration value
 252:Middlewares/ST/STM32_USB_Host_Library/Core/Src/usbh_ctlreq.c ****   * @retval USBH Status
 253:Middlewares/ST/STM32_USB_Host_Library/Core/Src/usbh_ctlreq.c ****   */
 254:Middlewares/ST/STM32_USB_Host_Library/Core/Src/usbh_ctlreq.c **** USBH_StatusTypeDef USBH_SetCfg(USBH_HandleTypeDef *phost, uint16_t cfg_idx)
 255:Middlewares/ST/STM32_USB_Host_Library/Core/Src/usbh_ctlreq.c **** {
 256:Middlewares/ST/STM32_USB_Host_Library/Core/Src/usbh_ctlreq.c ****   if (phost->RequestState == CMD_SEND)
 257:Middlewares/ST/STM32_USB_Host_Library/Core/Src/usbh_ctlreq.c ****   {
 258:Middlewares/ST/STM32_USB_Host_Library/Core/Src/usbh_ctlreq.c ****     phost->Control.setup.b.bmRequestType = USB_H2D | USB_REQ_RECIPIENT_DEVICE
ARM GAS  /tmp/ccDTG3e6.s 			page 6


 259:Middlewares/ST/STM32_USB_Host_Library/Core/Src/usbh_ctlreq.c ****                                            | USB_REQ_TYPE_STANDARD;
 260:Middlewares/ST/STM32_USB_Host_Library/Core/Src/usbh_ctlreq.c **** 
 261:Middlewares/ST/STM32_USB_Host_Library/Core/Src/usbh_ctlreq.c ****     phost->Control.setup.b.bRequest = USB_REQ_SET_CONFIGURATION;
 262:Middlewares/ST/STM32_USB_Host_Library/Core/Src/usbh_ctlreq.c ****     phost->Control.setup.b.wValue.w = cfg_idx;
 263:Middlewares/ST/STM32_USB_Host_Library/Core/Src/usbh_ctlreq.c ****     phost->Control.setup.b.wIndex.w = 0U;
 264:Middlewares/ST/STM32_USB_Host_Library/Core/Src/usbh_ctlreq.c ****     phost->Control.setup.b.wLength.w = 0U;
 265:Middlewares/ST/STM32_USB_Host_Library/Core/Src/usbh_ctlreq.c ****   }
 266:Middlewares/ST/STM32_USB_Host_Library/Core/Src/usbh_ctlreq.c **** 
 267:Middlewares/ST/STM32_USB_Host_Library/Core/Src/usbh_ctlreq.c ****   return USBH_CtlReq(phost, NULL, 0U);
 268:Middlewares/ST/STM32_USB_Host_Library/Core/Src/usbh_ctlreq.c **** }
 269:Middlewares/ST/STM32_USB_Host_Library/Core/Src/usbh_ctlreq.c **** 
 270:Middlewares/ST/STM32_USB_Host_Library/Core/Src/usbh_ctlreq.c **** 
 271:Middlewares/ST/STM32_USB_Host_Library/Core/Src/usbh_ctlreq.c **** /**
 272:Middlewares/ST/STM32_USB_Host_Library/Core/Src/usbh_ctlreq.c ****   * @brief  USBH_SetInterface
 273:Middlewares/ST/STM32_USB_Host_Library/Core/Src/usbh_ctlreq.c ****   *         The command sets the Interface value to the connected device
 274:Middlewares/ST/STM32_USB_Host_Library/Core/Src/usbh_ctlreq.c ****   * @param  phost: Host Handle
 275:Middlewares/ST/STM32_USB_Host_Library/Core/Src/usbh_ctlreq.c ****   * @param  altSetting: Interface value
 276:Middlewares/ST/STM32_USB_Host_Library/Core/Src/usbh_ctlreq.c ****   * @retval USBH Status
 277:Middlewares/ST/STM32_USB_Host_Library/Core/Src/usbh_ctlreq.c ****   */
 278:Middlewares/ST/STM32_USB_Host_Library/Core/Src/usbh_ctlreq.c **** USBH_StatusTypeDef USBH_SetInterface(USBH_HandleTypeDef *phost, uint8_t ep_num,
 279:Middlewares/ST/STM32_USB_Host_Library/Core/Src/usbh_ctlreq.c ****                                      uint8_t altSetting)
 280:Middlewares/ST/STM32_USB_Host_Library/Core/Src/usbh_ctlreq.c **** {
 281:Middlewares/ST/STM32_USB_Host_Library/Core/Src/usbh_ctlreq.c ****   if (phost->RequestState == CMD_SEND)
 282:Middlewares/ST/STM32_USB_Host_Library/Core/Src/usbh_ctlreq.c ****   {
 283:Middlewares/ST/STM32_USB_Host_Library/Core/Src/usbh_ctlreq.c ****     phost->Control.setup.b.bmRequestType = USB_H2D | USB_REQ_RECIPIENT_INTERFACE
 284:Middlewares/ST/STM32_USB_Host_Library/Core/Src/usbh_ctlreq.c ****                                            | USB_REQ_TYPE_STANDARD;
 285:Middlewares/ST/STM32_USB_Host_Library/Core/Src/usbh_ctlreq.c **** 
 286:Middlewares/ST/STM32_USB_Host_Library/Core/Src/usbh_ctlreq.c ****     phost->Control.setup.b.bRequest = USB_REQ_SET_INTERFACE;
 287:Middlewares/ST/STM32_USB_Host_Library/Core/Src/usbh_ctlreq.c ****     phost->Control.setup.b.wValue.w = altSetting;
 288:Middlewares/ST/STM32_USB_Host_Library/Core/Src/usbh_ctlreq.c ****     phost->Control.setup.b.wIndex.w = ep_num;
 289:Middlewares/ST/STM32_USB_Host_Library/Core/Src/usbh_ctlreq.c ****     phost->Control.setup.b.wLength.w = 0U;
 290:Middlewares/ST/STM32_USB_Host_Library/Core/Src/usbh_ctlreq.c ****   }
 291:Middlewares/ST/STM32_USB_Host_Library/Core/Src/usbh_ctlreq.c **** 
 292:Middlewares/ST/STM32_USB_Host_Library/Core/Src/usbh_ctlreq.c ****   return USBH_CtlReq(phost, NULL, 0U);
 293:Middlewares/ST/STM32_USB_Host_Library/Core/Src/usbh_ctlreq.c **** }
 294:Middlewares/ST/STM32_USB_Host_Library/Core/Src/usbh_ctlreq.c **** 
 295:Middlewares/ST/STM32_USB_Host_Library/Core/Src/usbh_ctlreq.c **** 
 296:Middlewares/ST/STM32_USB_Host_Library/Core/Src/usbh_ctlreq.c **** /**
 297:Middlewares/ST/STM32_USB_Host_Library/Core/Src/usbh_ctlreq.c ****   * @brief  USBH_SetFeature
 298:Middlewares/ST/STM32_USB_Host_Library/Core/Src/usbh_ctlreq.c ****   *         The command sets the device features (remote wakeup feature,..)
 299:Middlewares/ST/STM32_USB_Host_Library/Core/Src/usbh_ctlreq.c ****   * @param  pdev: Selected device
 300:Middlewares/ST/STM32_USB_Host_Library/Core/Src/usbh_ctlreq.c ****   * @param  itf_idx
 301:Middlewares/ST/STM32_USB_Host_Library/Core/Src/usbh_ctlreq.c ****   * @retval Status
 302:Middlewares/ST/STM32_USB_Host_Library/Core/Src/usbh_ctlreq.c ****   */
 303:Middlewares/ST/STM32_USB_Host_Library/Core/Src/usbh_ctlreq.c **** USBH_StatusTypeDef USBH_SetFeature(USBH_HandleTypeDef *phost, uint8_t wValue)
 304:Middlewares/ST/STM32_USB_Host_Library/Core/Src/usbh_ctlreq.c **** {
 305:Middlewares/ST/STM32_USB_Host_Library/Core/Src/usbh_ctlreq.c ****   if (phost->RequestState == CMD_SEND)
 306:Middlewares/ST/STM32_USB_Host_Library/Core/Src/usbh_ctlreq.c ****   {
 307:Middlewares/ST/STM32_USB_Host_Library/Core/Src/usbh_ctlreq.c ****     phost->Control.setup.b.bmRequestType = USB_H2D | USB_REQ_RECIPIENT_DEVICE
 308:Middlewares/ST/STM32_USB_Host_Library/Core/Src/usbh_ctlreq.c ****                                            | USB_REQ_TYPE_STANDARD;
 309:Middlewares/ST/STM32_USB_Host_Library/Core/Src/usbh_ctlreq.c **** 
 310:Middlewares/ST/STM32_USB_Host_Library/Core/Src/usbh_ctlreq.c ****     phost->Control.setup.b.bRequest = USB_REQ_SET_FEATURE;
 311:Middlewares/ST/STM32_USB_Host_Library/Core/Src/usbh_ctlreq.c ****     phost->Control.setup.b.wValue.w = wValue;
 312:Middlewares/ST/STM32_USB_Host_Library/Core/Src/usbh_ctlreq.c ****     phost->Control.setup.b.wIndex.w = 0U;
 313:Middlewares/ST/STM32_USB_Host_Library/Core/Src/usbh_ctlreq.c ****     phost->Control.setup.b.wLength.w = 0U;
 314:Middlewares/ST/STM32_USB_Host_Library/Core/Src/usbh_ctlreq.c ****   }
 315:Middlewares/ST/STM32_USB_Host_Library/Core/Src/usbh_ctlreq.c **** 
ARM GAS  /tmp/ccDTG3e6.s 			page 7


 316:Middlewares/ST/STM32_USB_Host_Library/Core/Src/usbh_ctlreq.c ****   return USBH_CtlReq(phost, NULL, 0U);
 317:Middlewares/ST/STM32_USB_Host_Library/Core/Src/usbh_ctlreq.c **** }
 318:Middlewares/ST/STM32_USB_Host_Library/Core/Src/usbh_ctlreq.c **** 
 319:Middlewares/ST/STM32_USB_Host_Library/Core/Src/usbh_ctlreq.c **** 
 320:Middlewares/ST/STM32_USB_Host_Library/Core/Src/usbh_ctlreq.c **** /**
 321:Middlewares/ST/STM32_USB_Host_Library/Core/Src/usbh_ctlreq.c ****   * @brief  USBH_ClrFeature
 322:Middlewares/ST/STM32_USB_Host_Library/Core/Src/usbh_ctlreq.c ****   *         This request is used to clear or disable a specific feature.
 323:Middlewares/ST/STM32_USB_Host_Library/Core/Src/usbh_ctlreq.c ****   * @param  phost: Host Handle
 324:Middlewares/ST/STM32_USB_Host_Library/Core/Src/usbh_ctlreq.c ****   * @param  ep_num: endpoint number
 325:Middlewares/ST/STM32_USB_Host_Library/Core/Src/usbh_ctlreq.c ****   * @param  hc_num: Host channel number
 326:Middlewares/ST/STM32_USB_Host_Library/Core/Src/usbh_ctlreq.c ****   * @retval USBH Status
 327:Middlewares/ST/STM32_USB_Host_Library/Core/Src/usbh_ctlreq.c ****   */
 328:Middlewares/ST/STM32_USB_Host_Library/Core/Src/usbh_ctlreq.c **** USBH_StatusTypeDef USBH_ClrFeature(USBH_HandleTypeDef *phost, uint8_t ep_num)
 329:Middlewares/ST/STM32_USB_Host_Library/Core/Src/usbh_ctlreq.c **** {
 330:Middlewares/ST/STM32_USB_Host_Library/Core/Src/usbh_ctlreq.c ****   if (phost->RequestState == CMD_SEND)
 331:Middlewares/ST/STM32_USB_Host_Library/Core/Src/usbh_ctlreq.c ****   {
 332:Middlewares/ST/STM32_USB_Host_Library/Core/Src/usbh_ctlreq.c ****     phost->Control.setup.b.bmRequestType = USB_H2D | USB_REQ_RECIPIENT_ENDPOINT
 333:Middlewares/ST/STM32_USB_Host_Library/Core/Src/usbh_ctlreq.c ****                                            | USB_REQ_TYPE_STANDARD;
 334:Middlewares/ST/STM32_USB_Host_Library/Core/Src/usbh_ctlreq.c **** 
 335:Middlewares/ST/STM32_USB_Host_Library/Core/Src/usbh_ctlreq.c ****     phost->Control.setup.b.bRequest = USB_REQ_CLEAR_FEATURE;
 336:Middlewares/ST/STM32_USB_Host_Library/Core/Src/usbh_ctlreq.c ****     phost->Control.setup.b.wValue.w = FEATURE_SELECTOR_ENDPOINT;
 337:Middlewares/ST/STM32_USB_Host_Library/Core/Src/usbh_ctlreq.c ****     phost->Control.setup.b.wIndex.w = ep_num;
 338:Middlewares/ST/STM32_USB_Host_Library/Core/Src/usbh_ctlreq.c ****     phost->Control.setup.b.wLength.w = 0U;
 339:Middlewares/ST/STM32_USB_Host_Library/Core/Src/usbh_ctlreq.c ****   }
 340:Middlewares/ST/STM32_USB_Host_Library/Core/Src/usbh_ctlreq.c ****   return USBH_CtlReq(phost, NULL, 0U);
 341:Middlewares/ST/STM32_USB_Host_Library/Core/Src/usbh_ctlreq.c **** }
 342:Middlewares/ST/STM32_USB_Host_Library/Core/Src/usbh_ctlreq.c **** 
 343:Middlewares/ST/STM32_USB_Host_Library/Core/Src/usbh_ctlreq.c **** 
 344:Middlewares/ST/STM32_USB_Host_Library/Core/Src/usbh_ctlreq.c **** /**
 345:Middlewares/ST/STM32_USB_Host_Library/Core/Src/usbh_ctlreq.c ****   * @brief  USBH_ParseDevDesc
 346:Middlewares/ST/STM32_USB_Host_Library/Core/Src/usbh_ctlreq.c ****   *         This function Parses the device descriptor
 347:Middlewares/ST/STM32_USB_Host_Library/Core/Src/usbh_ctlreq.c ****   * @param  dev_desc: device_descriptor destination address
 348:Middlewares/ST/STM32_USB_Host_Library/Core/Src/usbh_ctlreq.c ****   * @param  buf: Buffer where the source descriptor is available
 349:Middlewares/ST/STM32_USB_Host_Library/Core/Src/usbh_ctlreq.c ****   * @param  length: Length of the descriptor
 350:Middlewares/ST/STM32_USB_Host_Library/Core/Src/usbh_ctlreq.c ****   * @retval None
 351:Middlewares/ST/STM32_USB_Host_Library/Core/Src/usbh_ctlreq.c ****   */
 352:Middlewares/ST/STM32_USB_Host_Library/Core/Src/usbh_ctlreq.c **** static void  USBH_ParseDevDesc(USBH_DevDescTypeDef *dev_desc, uint8_t *buf,
 353:Middlewares/ST/STM32_USB_Host_Library/Core/Src/usbh_ctlreq.c ****                                uint16_t length)
 354:Middlewares/ST/STM32_USB_Host_Library/Core/Src/usbh_ctlreq.c **** {
  29              		.loc 1 354 1 view -0
  30              		.cfi_startproc
  31              		@ args = 0, pretend = 0, frame = 0
  32              		@ frame_needed = 0, uses_anonymous_args = 0
  33              		@ link register save eliminated.
  34              		.loc 1 354 1 is_stmt 0 view .LVU1
  35 0000 10B4     		push	{r4}
  36              		.cfi_def_cfa_offset 4
  37              		.cfi_offset 4, -4
 355:Middlewares/ST/STM32_USB_Host_Library/Core/Src/usbh_ctlreq.c ****   dev_desc->bLength            = *(uint8_t *)(buf +  0);
  38              		.loc 1 355 3 is_stmt 1 view .LVU2
  39              		.loc 1 355 34 is_stmt 0 view .LVU3
  40 0002 0B78     		ldrb	r3, [r1]	@ zero_extendqisi2
  41              		.loc 1 355 32 view .LVU4
  42 0004 0370     		strb	r3, [r0]
 356:Middlewares/ST/STM32_USB_Host_Library/Core/Src/usbh_ctlreq.c ****   dev_desc->bDescriptorType    = *(uint8_t *)(buf +  1);
  43              		.loc 1 356 3 is_stmt 1 view .LVU5
  44              		.loc 1 356 32 is_stmt 0 view .LVU6
ARM GAS  /tmp/ccDTG3e6.s 			page 8


  45 0006 4B78     		ldrb	r3, [r1, #1]	@ zero_extendqisi2
  46 0008 4370     		strb	r3, [r0, #1]
 357:Middlewares/ST/STM32_USB_Host_Library/Core/Src/usbh_ctlreq.c ****   dev_desc->bcdUSB             = LE16(buf +  2);
  47              		.loc 1 357 3 is_stmt 1 view .LVU7
  48              		.loc 1 357 34 is_stmt 0 view .LVU8
  49 000a 8B78     		ldrb	r3, [r1, #2]	@ zero_extendqisi2
  50 000c 91F803C0 		ldrb	ip, [r1, #3]	@ zero_extendqisi2
  51 0010 43EA0C23 		orr	r3, r3, ip, lsl #8
  52              		.loc 1 357 32 view .LVU9
  53 0014 4380     		strh	r3, [r0, #2]	@ movhi
 358:Middlewares/ST/STM32_USB_Host_Library/Core/Src/usbh_ctlreq.c ****   dev_desc->bDeviceClass       = *(uint8_t *)(buf +  4);
  54              		.loc 1 358 3 is_stmt 1 view .LVU10
  55              		.loc 1 358 32 is_stmt 0 view .LVU11
  56 0016 0B79     		ldrb	r3, [r1, #4]	@ zero_extendqisi2
  57 0018 0371     		strb	r3, [r0, #4]
 359:Middlewares/ST/STM32_USB_Host_Library/Core/Src/usbh_ctlreq.c ****   dev_desc->bDeviceSubClass    = *(uint8_t *)(buf +  5);
  58              		.loc 1 359 3 is_stmt 1 view .LVU12
  59              		.loc 1 359 32 is_stmt 0 view .LVU13
  60 001a 4B79     		ldrb	r3, [r1, #5]	@ zero_extendqisi2
  61 001c 4371     		strb	r3, [r0, #5]
 360:Middlewares/ST/STM32_USB_Host_Library/Core/Src/usbh_ctlreq.c ****   dev_desc->bDeviceProtocol    = *(uint8_t *)(buf +  6);
  62              		.loc 1 360 3 is_stmt 1 view .LVU14
  63              		.loc 1 360 32 is_stmt 0 view .LVU15
  64 001e 8B79     		ldrb	r3, [r1, #6]	@ zero_extendqisi2
  65 0020 8371     		strb	r3, [r0, #6]
 361:Middlewares/ST/STM32_USB_Host_Library/Core/Src/usbh_ctlreq.c ****   dev_desc->bMaxPacketSize     = *(uint8_t *)(buf +  7);
  66              		.loc 1 361 3 is_stmt 1 view .LVU16
  67              		.loc 1 361 32 is_stmt 0 view .LVU17
  68 0022 CB79     		ldrb	r3, [r1, #7]	@ zero_extendqisi2
  69 0024 C371     		strb	r3, [r0, #7]
 362:Middlewares/ST/STM32_USB_Host_Library/Core/Src/usbh_ctlreq.c **** 
 363:Middlewares/ST/STM32_USB_Host_Library/Core/Src/usbh_ctlreq.c ****   /* Make sure that the max packet size is either 8, 16, 32, 64 or force it to 64 */
 364:Middlewares/ST/STM32_USB_Host_Library/Core/Src/usbh_ctlreq.c ****   switch (dev_desc->bMaxPacketSize)
  70              		.loc 1 364 3 is_stmt 1 view .LVU18
  71 0026 202B     		cmp	r3, #32
  72 0028 0AD8     		bhi	.L2
  73 002a 082B     		cmp	r3, #8
  74 002c 0AD3     		bcc	.L3
  75 002e 083B     		subs	r3, r3, #8
  76 0030 DBB2     		uxtb	r3, r3
  77 0032 134C     		ldr	r4, .L7
  78 0034 24FA03F3 		lsr	r3, r4, r3
  79 0038 13F0010F 		tst	r3, #1
  80 003c 04D1     		bne	.L4
  81 003e 01E0     		b	.L3
  82              	.L2:
  83 0040 402B     		cmp	r3, #64
  84 0042 01D0     		beq	.L4
  85              	.L3:
 365:Middlewares/ST/STM32_USB_Host_Library/Core/Src/usbh_ctlreq.c ****   {
 366:Middlewares/ST/STM32_USB_Host_Library/Core/Src/usbh_ctlreq.c ****     case 8:
 367:Middlewares/ST/STM32_USB_Host_Library/Core/Src/usbh_ctlreq.c ****     case 16:
 368:Middlewares/ST/STM32_USB_Host_Library/Core/Src/usbh_ctlreq.c ****     case 32:
 369:Middlewares/ST/STM32_USB_Host_Library/Core/Src/usbh_ctlreq.c ****     case 64:
 370:Middlewares/ST/STM32_USB_Host_Library/Core/Src/usbh_ctlreq.c ****       dev_desc->bMaxPacketSize = dev_desc->bMaxPacketSize;
 371:Middlewares/ST/STM32_USB_Host_Library/Core/Src/usbh_ctlreq.c ****       break;
 372:Middlewares/ST/STM32_USB_Host_Library/Core/Src/usbh_ctlreq.c **** 
ARM GAS  /tmp/ccDTG3e6.s 			page 9


 373:Middlewares/ST/STM32_USB_Host_Library/Core/Src/usbh_ctlreq.c ****     default:
 374:Middlewares/ST/STM32_USB_Host_Library/Core/Src/usbh_ctlreq.c ****       /*set the size to 64 in case the device has answered with incorrect size */
 375:Middlewares/ST/STM32_USB_Host_Library/Core/Src/usbh_ctlreq.c ****       dev_desc->bMaxPacketSize = 64U;
  86              		.loc 1 375 7 view .LVU19
  87              		.loc 1 375 32 is_stmt 0 view .LVU20
  88 0044 4023     		movs	r3, #64
  89 0046 C371     		strb	r3, [r0, #7]
 376:Middlewares/ST/STM32_USB_Host_Library/Core/Src/usbh_ctlreq.c ****       break;
  90              		.loc 1 376 7 is_stmt 1 view .LVU21
  91              	.L4:
 377:Middlewares/ST/STM32_USB_Host_Library/Core/Src/usbh_ctlreq.c ****   }
 378:Middlewares/ST/STM32_USB_Host_Library/Core/Src/usbh_ctlreq.c **** 
 379:Middlewares/ST/STM32_USB_Host_Library/Core/Src/usbh_ctlreq.c ****   if (length > 8U)
  92              		.loc 1 379 3 view .LVU22
  93              		.loc 1 379 6 is_stmt 0 view .LVU23
  94 0048 082A     		cmp	r2, #8
  95 004a 16D9     		bls	.L1
 380:Middlewares/ST/STM32_USB_Host_Library/Core/Src/usbh_ctlreq.c ****   {
 381:Middlewares/ST/STM32_USB_Host_Library/Core/Src/usbh_ctlreq.c ****     /* For 1st time after device connection, Host may issue only 8 bytes for
 382:Middlewares/ST/STM32_USB_Host_Library/Core/Src/usbh_ctlreq.c ****     Device Descriptor Length  */
 383:Middlewares/ST/STM32_USB_Host_Library/Core/Src/usbh_ctlreq.c ****     dev_desc->idVendor           = LE16(buf +  8);
  96              		.loc 1 383 5 is_stmt 1 view .LVU24
  97              		.loc 1 383 36 is_stmt 0 view .LVU25
  98 004c 0B7A     		ldrb	r3, [r1, #8]	@ zero_extendqisi2
  99 004e 4A7A     		ldrb	r2, [r1, #9]	@ zero_extendqisi2
 100              	.LVL1:
 101              		.loc 1 383 36 view .LVU26
 102 0050 43EA0223 		orr	r3, r3, r2, lsl #8
 103              		.loc 1 383 34 view .LVU27
 104 0054 0381     		strh	r3, [r0, #8]	@ movhi
 384:Middlewares/ST/STM32_USB_Host_Library/Core/Src/usbh_ctlreq.c ****     dev_desc->idProduct          = LE16(buf + 10);
 105              		.loc 1 384 5 is_stmt 1 view .LVU28
 106              		.loc 1 384 36 is_stmt 0 view .LVU29
 107 0056 8B7A     		ldrb	r3, [r1, #10]	@ zero_extendqisi2
 108 0058 CA7A     		ldrb	r2, [r1, #11]	@ zero_extendqisi2
 109 005a 43EA0223 		orr	r3, r3, r2, lsl #8
 110              		.loc 1 384 34 view .LVU30
 111 005e 4381     		strh	r3, [r0, #10]	@ movhi
 385:Middlewares/ST/STM32_USB_Host_Library/Core/Src/usbh_ctlreq.c ****     dev_desc->bcdDevice          = LE16(buf + 12);
 112              		.loc 1 385 5 is_stmt 1 view .LVU31
 113              		.loc 1 385 36 is_stmt 0 view .LVU32
 114 0060 0B7B     		ldrb	r3, [r1, #12]	@ zero_extendqisi2
 115 0062 4A7B     		ldrb	r2, [r1, #13]	@ zero_extendqisi2
 116 0064 43EA0223 		orr	r3, r3, r2, lsl #8
 117              		.loc 1 385 34 view .LVU33
 118 0068 8381     		strh	r3, [r0, #12]	@ movhi
 386:Middlewares/ST/STM32_USB_Host_Library/Core/Src/usbh_ctlreq.c ****     dev_desc->iManufacturer      = *(uint8_t *)(buf + 14);
 119              		.loc 1 386 5 is_stmt 1 view .LVU34
 120              		.loc 1 386 34 is_stmt 0 view .LVU35
 121 006a 8B7B     		ldrb	r3, [r1, #14]	@ zero_extendqisi2
 122 006c 8373     		strb	r3, [r0, #14]
 387:Middlewares/ST/STM32_USB_Host_Library/Core/Src/usbh_ctlreq.c ****     dev_desc->iProduct           = *(uint8_t *)(buf + 15);
 123              		.loc 1 387 5 is_stmt 1 view .LVU36
 124              		.loc 1 387 34 is_stmt 0 view .LVU37
 125 006e CB7B     		ldrb	r3, [r1, #15]	@ zero_extendqisi2
 126 0070 C373     		strb	r3, [r0, #15]
 388:Middlewares/ST/STM32_USB_Host_Library/Core/Src/usbh_ctlreq.c ****     dev_desc->iSerialNumber      = *(uint8_t *)(buf + 16);
ARM GAS  /tmp/ccDTG3e6.s 			page 10


 127              		.loc 1 388 5 is_stmt 1 view .LVU38
 128              		.loc 1 388 34 is_stmt 0 view .LVU39
 129 0072 0B7C     		ldrb	r3, [r1, #16]	@ zero_extendqisi2
 130 0074 0374     		strb	r3, [r0, #16]
 389:Middlewares/ST/STM32_USB_Host_Library/Core/Src/usbh_ctlreq.c ****     dev_desc->bNumConfigurations = *(uint8_t *)(buf + 17);
 131              		.loc 1 389 5 is_stmt 1 view .LVU40
 132              		.loc 1 389 34 is_stmt 0 view .LVU41
 133 0076 4B7C     		ldrb	r3, [r1, #17]	@ zero_extendqisi2
 134 0078 4374     		strb	r3, [r0, #17]
 135              	.L1:
 390:Middlewares/ST/STM32_USB_Host_Library/Core/Src/usbh_ctlreq.c ****   }
 391:Middlewares/ST/STM32_USB_Host_Library/Core/Src/usbh_ctlreq.c **** }
 136              		.loc 1 391 1 view .LVU42
 137 007a 5DF8044B 		ldr	r4, [sp], #4
 138              		.cfi_restore 4
 139              		.cfi_def_cfa_offset 0
 140 007e 7047     		bx	lr
 141              	.L8:
 142              		.align	2
 143              	.L7:
 144 0080 01010001 		.word	16777473
 145              		.cfi_endproc
 146              	.LFE142:
 148              		.section	.text.USBH_ParseInterfaceDesc,"ax",%progbits
 149              		.align	1
 150              		.syntax unified
 151              		.thumb
 152              		.thumb_func
 154              	USBH_ParseInterfaceDesc:
 155              	.LVL2:
 156              	.LFB144:
 392:Middlewares/ST/STM32_USB_Host_Library/Core/Src/usbh_ctlreq.c **** 
 393:Middlewares/ST/STM32_USB_Host_Library/Core/Src/usbh_ctlreq.c **** 
 394:Middlewares/ST/STM32_USB_Host_Library/Core/Src/usbh_ctlreq.c **** /**
 395:Middlewares/ST/STM32_USB_Host_Library/Core/Src/usbh_ctlreq.c ****   * @brief  USBH_ParseCfgDesc
 396:Middlewares/ST/STM32_USB_Host_Library/Core/Src/usbh_ctlreq.c ****   *         This function Parses the configuration descriptor
 397:Middlewares/ST/STM32_USB_Host_Library/Core/Src/usbh_ctlreq.c ****   * @param  phost: USB Host handler
 398:Middlewares/ST/STM32_USB_Host_Library/Core/Src/usbh_ctlreq.c ****   * @param  buf: Buffer where the source descriptor is available
 399:Middlewares/ST/STM32_USB_Host_Library/Core/Src/usbh_ctlreq.c ****   * @param  length: Length of the descriptor
 400:Middlewares/ST/STM32_USB_Host_Library/Core/Src/usbh_ctlreq.c ****   * @retval USBH statuse
 401:Middlewares/ST/STM32_USB_Host_Library/Core/Src/usbh_ctlreq.c ****   */
 402:Middlewares/ST/STM32_USB_Host_Library/Core/Src/usbh_ctlreq.c **** static USBH_StatusTypeDef USBH_ParseCfgDesc(USBH_HandleTypeDef *phost, uint8_t *buf, uint16_t lengt
 403:Middlewares/ST/STM32_USB_Host_Library/Core/Src/usbh_ctlreq.c **** {
 404:Middlewares/ST/STM32_USB_Host_Library/Core/Src/usbh_ctlreq.c ****   USBH_CfgDescTypeDef *cfg_desc = &phost->device.CfgDesc;
 405:Middlewares/ST/STM32_USB_Host_Library/Core/Src/usbh_ctlreq.c ****   USBH_StatusTypeDef           status = USBH_OK;
 406:Middlewares/ST/STM32_USB_Host_Library/Core/Src/usbh_ctlreq.c ****   USBH_InterfaceDescTypeDef    *pif ;
 407:Middlewares/ST/STM32_USB_Host_Library/Core/Src/usbh_ctlreq.c ****   USBH_EpDescTypeDef           *pep;
 408:Middlewares/ST/STM32_USB_Host_Library/Core/Src/usbh_ctlreq.c ****   USBH_DescHeader_t            *pdesc = (USBH_DescHeader_t *)(void *)buf;
 409:Middlewares/ST/STM32_USB_Host_Library/Core/Src/usbh_ctlreq.c ****   uint16_t                     ptr;
 410:Middlewares/ST/STM32_USB_Host_Library/Core/Src/usbh_ctlreq.c ****   uint8_t                      if_ix = 0U;
 411:Middlewares/ST/STM32_USB_Host_Library/Core/Src/usbh_ctlreq.c ****   uint8_t                      ep_ix = 0U;
 412:Middlewares/ST/STM32_USB_Host_Library/Core/Src/usbh_ctlreq.c **** 
 413:Middlewares/ST/STM32_USB_Host_Library/Core/Src/usbh_ctlreq.c ****   pdesc   = (USBH_DescHeader_t *)(void *)buf;
 414:Middlewares/ST/STM32_USB_Host_Library/Core/Src/usbh_ctlreq.c **** 
 415:Middlewares/ST/STM32_USB_Host_Library/Core/Src/usbh_ctlreq.c ****   /* Parse configuration descriptor */
 416:Middlewares/ST/STM32_USB_Host_Library/Core/Src/usbh_ctlreq.c ****   cfg_desc->bLength             = *(uint8_t *)(buf + 0);
 417:Middlewares/ST/STM32_USB_Host_Library/Core/Src/usbh_ctlreq.c ****   cfg_desc->bDescriptorType     = *(uint8_t *)(buf + 1);
ARM GAS  /tmp/ccDTG3e6.s 			page 11


 418:Middlewares/ST/STM32_USB_Host_Library/Core/Src/usbh_ctlreq.c ****   cfg_desc->wTotalLength        = MIN(((uint16_t) LE16(buf + 2)), ((uint16_t)USBH_MAX_SIZE_CONFIGUR
 419:Middlewares/ST/STM32_USB_Host_Library/Core/Src/usbh_ctlreq.c ****   cfg_desc->bNumInterfaces      = *(uint8_t *)(buf + 4);
 420:Middlewares/ST/STM32_USB_Host_Library/Core/Src/usbh_ctlreq.c ****   cfg_desc->bConfigurationValue = *(uint8_t *)(buf + 5);
 421:Middlewares/ST/STM32_USB_Host_Library/Core/Src/usbh_ctlreq.c ****   cfg_desc->iConfiguration      = *(uint8_t *)(buf + 6);
 422:Middlewares/ST/STM32_USB_Host_Library/Core/Src/usbh_ctlreq.c ****   cfg_desc->bmAttributes        = *(uint8_t *)(buf + 7);
 423:Middlewares/ST/STM32_USB_Host_Library/Core/Src/usbh_ctlreq.c ****   cfg_desc->bMaxPower           = *(uint8_t *)(buf + 8);
 424:Middlewares/ST/STM32_USB_Host_Library/Core/Src/usbh_ctlreq.c **** 
 425:Middlewares/ST/STM32_USB_Host_Library/Core/Src/usbh_ctlreq.c ****   /* Make sure that the Confguration descriptor's bLength is equal to USB_CONFIGURATION_DESC_SIZE *
 426:Middlewares/ST/STM32_USB_Host_Library/Core/Src/usbh_ctlreq.c ****   if (cfg_desc->bLength  != USB_CONFIGURATION_DESC_SIZE)
 427:Middlewares/ST/STM32_USB_Host_Library/Core/Src/usbh_ctlreq.c ****   {
 428:Middlewares/ST/STM32_USB_Host_Library/Core/Src/usbh_ctlreq.c ****     cfg_desc->bLength = USB_CONFIGURATION_DESC_SIZE;
 429:Middlewares/ST/STM32_USB_Host_Library/Core/Src/usbh_ctlreq.c ****   }
 430:Middlewares/ST/STM32_USB_Host_Library/Core/Src/usbh_ctlreq.c **** 
 431:Middlewares/ST/STM32_USB_Host_Library/Core/Src/usbh_ctlreq.c ****   if (length > USB_CONFIGURATION_DESC_SIZE)
 432:Middlewares/ST/STM32_USB_Host_Library/Core/Src/usbh_ctlreq.c ****   {
 433:Middlewares/ST/STM32_USB_Host_Library/Core/Src/usbh_ctlreq.c ****     ptr = USB_LEN_CFG_DESC;
 434:Middlewares/ST/STM32_USB_Host_Library/Core/Src/usbh_ctlreq.c ****     pif = (USBH_InterfaceDescTypeDef *)NULL;
 435:Middlewares/ST/STM32_USB_Host_Library/Core/Src/usbh_ctlreq.c **** 
 436:Middlewares/ST/STM32_USB_Host_Library/Core/Src/usbh_ctlreq.c ****     while ((if_ix < USBH_MAX_NUM_INTERFACES) && (ptr < cfg_desc->wTotalLength))
 437:Middlewares/ST/STM32_USB_Host_Library/Core/Src/usbh_ctlreq.c ****     {
 438:Middlewares/ST/STM32_USB_Host_Library/Core/Src/usbh_ctlreq.c ****       pdesc = USBH_GetNextDesc((uint8_t *)(void *)pdesc, &ptr);
 439:Middlewares/ST/STM32_USB_Host_Library/Core/Src/usbh_ctlreq.c ****       if (pdesc->bDescriptorType == USB_DESC_TYPE_INTERFACE)
 440:Middlewares/ST/STM32_USB_Host_Library/Core/Src/usbh_ctlreq.c ****       {
 441:Middlewares/ST/STM32_USB_Host_Library/Core/Src/usbh_ctlreq.c ****         /* Make sure that the interface descriptor's bLength is equal to USB_INTERFACE_DESC_SIZE */
 442:Middlewares/ST/STM32_USB_Host_Library/Core/Src/usbh_ctlreq.c ****         if (pdesc->bLength != USB_INTERFACE_DESC_SIZE)
 443:Middlewares/ST/STM32_USB_Host_Library/Core/Src/usbh_ctlreq.c ****         {
 444:Middlewares/ST/STM32_USB_Host_Library/Core/Src/usbh_ctlreq.c ****           pdesc->bLength = USB_INTERFACE_DESC_SIZE;
 445:Middlewares/ST/STM32_USB_Host_Library/Core/Src/usbh_ctlreq.c ****         }
 446:Middlewares/ST/STM32_USB_Host_Library/Core/Src/usbh_ctlreq.c **** 
 447:Middlewares/ST/STM32_USB_Host_Library/Core/Src/usbh_ctlreq.c ****         pif = &cfg_desc->Itf_Desc[if_ix];
 448:Middlewares/ST/STM32_USB_Host_Library/Core/Src/usbh_ctlreq.c ****         USBH_ParseInterfaceDesc(pif, (uint8_t *)(void *)pdesc);
 449:Middlewares/ST/STM32_USB_Host_Library/Core/Src/usbh_ctlreq.c **** 
 450:Middlewares/ST/STM32_USB_Host_Library/Core/Src/usbh_ctlreq.c ****         ep_ix = 0U;
 451:Middlewares/ST/STM32_USB_Host_Library/Core/Src/usbh_ctlreq.c ****         pep = (USBH_EpDescTypeDef *)NULL;
 452:Middlewares/ST/STM32_USB_Host_Library/Core/Src/usbh_ctlreq.c **** 
 453:Middlewares/ST/STM32_USB_Host_Library/Core/Src/usbh_ctlreq.c ****         while ((ep_ix < pif->bNumEndpoints) && (ptr < cfg_desc->wTotalLength))
 454:Middlewares/ST/STM32_USB_Host_Library/Core/Src/usbh_ctlreq.c ****         {
 455:Middlewares/ST/STM32_USB_Host_Library/Core/Src/usbh_ctlreq.c ****           pdesc = USBH_GetNextDesc((uint8_t *)(void *)pdesc, &ptr);
 456:Middlewares/ST/STM32_USB_Host_Library/Core/Src/usbh_ctlreq.c **** 
 457:Middlewares/ST/STM32_USB_Host_Library/Core/Src/usbh_ctlreq.c ****           if (pdesc->bDescriptorType == USB_DESC_TYPE_ENDPOINT)
 458:Middlewares/ST/STM32_USB_Host_Library/Core/Src/usbh_ctlreq.c ****           {
 459:Middlewares/ST/STM32_USB_Host_Library/Core/Src/usbh_ctlreq.c ****             /* Check if the endpoint is appartening to an audio streaming interface */
 460:Middlewares/ST/STM32_USB_Host_Library/Core/Src/usbh_ctlreq.c ****             if ((pif->bInterfaceClass == 0x01U) && (pif->bInterfaceSubClass == 0x02U))
 461:Middlewares/ST/STM32_USB_Host_Library/Core/Src/usbh_ctlreq.c ****             {
 462:Middlewares/ST/STM32_USB_Host_Library/Core/Src/usbh_ctlreq.c ****               /* Check if it is supporting the USB AUDIO 01 class specification */
 463:Middlewares/ST/STM32_USB_Host_Library/Core/Src/usbh_ctlreq.c ****               if ((pif->bInterfaceProtocol == 0x00U) && (pdesc->bLength != 0x09U))
 464:Middlewares/ST/STM32_USB_Host_Library/Core/Src/usbh_ctlreq.c ****               {
 465:Middlewares/ST/STM32_USB_Host_Library/Core/Src/usbh_ctlreq.c ****                 pdesc->bLength = 0x09U;
 466:Middlewares/ST/STM32_USB_Host_Library/Core/Src/usbh_ctlreq.c ****               }
 467:Middlewares/ST/STM32_USB_Host_Library/Core/Src/usbh_ctlreq.c ****             }
 468:Middlewares/ST/STM32_USB_Host_Library/Core/Src/usbh_ctlreq.c ****             /* Make sure that the endpoint descriptor's bLength is equal to
 469:Middlewares/ST/STM32_USB_Host_Library/Core/Src/usbh_ctlreq.c ****                USB_ENDPOINT_DESC_SIZE for all other endpoints types */
 470:Middlewares/ST/STM32_USB_Host_Library/Core/Src/usbh_ctlreq.c ****             else if (pdesc->bLength != USB_ENDPOINT_DESC_SIZE)
 471:Middlewares/ST/STM32_USB_Host_Library/Core/Src/usbh_ctlreq.c ****             {
 472:Middlewares/ST/STM32_USB_Host_Library/Core/Src/usbh_ctlreq.c ****               pdesc->bLength = USB_ENDPOINT_DESC_SIZE;
 473:Middlewares/ST/STM32_USB_Host_Library/Core/Src/usbh_ctlreq.c ****             }
 474:Middlewares/ST/STM32_USB_Host_Library/Core/Src/usbh_ctlreq.c ****             else
ARM GAS  /tmp/ccDTG3e6.s 			page 12


 475:Middlewares/ST/STM32_USB_Host_Library/Core/Src/usbh_ctlreq.c ****             {
 476:Middlewares/ST/STM32_USB_Host_Library/Core/Src/usbh_ctlreq.c ****               /* ... */
 477:Middlewares/ST/STM32_USB_Host_Library/Core/Src/usbh_ctlreq.c ****             }
 478:Middlewares/ST/STM32_USB_Host_Library/Core/Src/usbh_ctlreq.c **** 
 479:Middlewares/ST/STM32_USB_Host_Library/Core/Src/usbh_ctlreq.c ****             pep = &cfg_desc->Itf_Desc[if_ix].Ep_Desc[ep_ix];
 480:Middlewares/ST/STM32_USB_Host_Library/Core/Src/usbh_ctlreq.c **** 
 481:Middlewares/ST/STM32_USB_Host_Library/Core/Src/usbh_ctlreq.c ****             status = USBH_ParseEPDesc(phost, pep, (uint8_t *)(void *)pdesc);
 482:Middlewares/ST/STM32_USB_Host_Library/Core/Src/usbh_ctlreq.c **** 
 483:Middlewares/ST/STM32_USB_Host_Library/Core/Src/usbh_ctlreq.c ****             ep_ix++;
 484:Middlewares/ST/STM32_USB_Host_Library/Core/Src/usbh_ctlreq.c ****           }
 485:Middlewares/ST/STM32_USB_Host_Library/Core/Src/usbh_ctlreq.c ****         }
 486:Middlewares/ST/STM32_USB_Host_Library/Core/Src/usbh_ctlreq.c **** 
 487:Middlewares/ST/STM32_USB_Host_Library/Core/Src/usbh_ctlreq.c ****         /* Check if the required endpoint(s) data are parsed */
 488:Middlewares/ST/STM32_USB_Host_Library/Core/Src/usbh_ctlreq.c ****         if (ep_ix < pif->bNumEndpoints)
 489:Middlewares/ST/STM32_USB_Host_Library/Core/Src/usbh_ctlreq.c ****         {
 490:Middlewares/ST/STM32_USB_Host_Library/Core/Src/usbh_ctlreq.c ****           return USBH_NOT_SUPPORTED;
 491:Middlewares/ST/STM32_USB_Host_Library/Core/Src/usbh_ctlreq.c ****         }
 492:Middlewares/ST/STM32_USB_Host_Library/Core/Src/usbh_ctlreq.c **** 
 493:Middlewares/ST/STM32_USB_Host_Library/Core/Src/usbh_ctlreq.c ****         if_ix++;
 494:Middlewares/ST/STM32_USB_Host_Library/Core/Src/usbh_ctlreq.c ****       }
 495:Middlewares/ST/STM32_USB_Host_Library/Core/Src/usbh_ctlreq.c ****     }
 496:Middlewares/ST/STM32_USB_Host_Library/Core/Src/usbh_ctlreq.c **** 
 497:Middlewares/ST/STM32_USB_Host_Library/Core/Src/usbh_ctlreq.c ****     /* Check if the required interface(s) data are parsed */
 498:Middlewares/ST/STM32_USB_Host_Library/Core/Src/usbh_ctlreq.c ****     if (if_ix < MIN(cfg_desc->bNumInterfaces, (uint8_t)USBH_MAX_NUM_INTERFACES))
 499:Middlewares/ST/STM32_USB_Host_Library/Core/Src/usbh_ctlreq.c ****     {
 500:Middlewares/ST/STM32_USB_Host_Library/Core/Src/usbh_ctlreq.c ****       return USBH_NOT_SUPPORTED;
 501:Middlewares/ST/STM32_USB_Host_Library/Core/Src/usbh_ctlreq.c ****     }
 502:Middlewares/ST/STM32_USB_Host_Library/Core/Src/usbh_ctlreq.c ****   }
 503:Middlewares/ST/STM32_USB_Host_Library/Core/Src/usbh_ctlreq.c **** 
 504:Middlewares/ST/STM32_USB_Host_Library/Core/Src/usbh_ctlreq.c ****   return status;
 505:Middlewares/ST/STM32_USB_Host_Library/Core/Src/usbh_ctlreq.c **** }
 506:Middlewares/ST/STM32_USB_Host_Library/Core/Src/usbh_ctlreq.c **** 
 507:Middlewares/ST/STM32_USB_Host_Library/Core/Src/usbh_ctlreq.c **** 
 508:Middlewares/ST/STM32_USB_Host_Library/Core/Src/usbh_ctlreq.c **** /**
 509:Middlewares/ST/STM32_USB_Host_Library/Core/Src/usbh_ctlreq.c ****   * @brief  USBH_ParseInterfaceDesc
 510:Middlewares/ST/STM32_USB_Host_Library/Core/Src/usbh_ctlreq.c ****   *         This function Parses the interface descriptor
 511:Middlewares/ST/STM32_USB_Host_Library/Core/Src/usbh_ctlreq.c ****   * @param  if_descriptor : Interface descriptor destination
 512:Middlewares/ST/STM32_USB_Host_Library/Core/Src/usbh_ctlreq.c ****   * @param  buf: Buffer where the descriptor data is available
 513:Middlewares/ST/STM32_USB_Host_Library/Core/Src/usbh_ctlreq.c ****   * @retval None
 514:Middlewares/ST/STM32_USB_Host_Library/Core/Src/usbh_ctlreq.c ****   */
 515:Middlewares/ST/STM32_USB_Host_Library/Core/Src/usbh_ctlreq.c **** static void  USBH_ParseInterfaceDesc(USBH_InterfaceDescTypeDef *if_descriptor,
 516:Middlewares/ST/STM32_USB_Host_Library/Core/Src/usbh_ctlreq.c ****                                      uint8_t *buf)
 517:Middlewares/ST/STM32_USB_Host_Library/Core/Src/usbh_ctlreq.c **** {
 157              		.loc 1 517 1 is_stmt 1 view -0
 158              		.cfi_startproc
 159              		@ args = 0, pretend = 0, frame = 0
 160              		@ frame_needed = 0, uses_anonymous_args = 0
 161              		@ link register save eliminated.
 518:Middlewares/ST/STM32_USB_Host_Library/Core/Src/usbh_ctlreq.c ****   if_descriptor->bLength            = *(uint8_t *)(buf + 0);
 162              		.loc 1 518 3 view .LVU44
 163              		.loc 1 518 39 is_stmt 0 view .LVU45
 164 0000 0B78     		ldrb	r3, [r1]	@ zero_extendqisi2
 165              		.loc 1 518 37 view .LVU46
 166 0002 0370     		strb	r3, [r0]
 519:Middlewares/ST/STM32_USB_Host_Library/Core/Src/usbh_ctlreq.c ****   if_descriptor->bDescriptorType    = *(uint8_t *)(buf + 1);
 167              		.loc 1 519 3 is_stmt 1 view .LVU47
 168              		.loc 1 519 37 is_stmt 0 view .LVU48
ARM GAS  /tmp/ccDTG3e6.s 			page 13


 169 0004 4B78     		ldrb	r3, [r1, #1]	@ zero_extendqisi2
 170 0006 4370     		strb	r3, [r0, #1]
 520:Middlewares/ST/STM32_USB_Host_Library/Core/Src/usbh_ctlreq.c ****   if_descriptor->bInterfaceNumber   = *(uint8_t *)(buf + 2);
 171              		.loc 1 520 3 is_stmt 1 view .LVU49
 172              		.loc 1 520 37 is_stmt 0 view .LVU50
 173 0008 8B78     		ldrb	r3, [r1, #2]	@ zero_extendqisi2
 174 000a 8370     		strb	r3, [r0, #2]
 521:Middlewares/ST/STM32_USB_Host_Library/Core/Src/usbh_ctlreq.c ****   if_descriptor->bAlternateSetting  = *(uint8_t *)(buf + 3);
 175              		.loc 1 521 3 is_stmt 1 view .LVU51
 176              		.loc 1 521 37 is_stmt 0 view .LVU52
 177 000c CB78     		ldrb	r3, [r1, #3]	@ zero_extendqisi2
 178 000e C370     		strb	r3, [r0, #3]
 522:Middlewares/ST/STM32_USB_Host_Library/Core/Src/usbh_ctlreq.c ****   if_descriptor->bNumEndpoints      = *(uint8_t *)(buf + 4);
 179              		.loc 1 522 3 is_stmt 1 view .LVU53
 180              		.loc 1 522 37 is_stmt 0 view .LVU54
 181 0010 0B79     		ldrb	r3, [r1, #4]	@ zero_extendqisi2
 182 0012 0371     		strb	r3, [r0, #4]
 523:Middlewares/ST/STM32_USB_Host_Library/Core/Src/usbh_ctlreq.c ****   if_descriptor->bInterfaceClass    = *(uint8_t *)(buf + 5);
 183              		.loc 1 523 3 is_stmt 1 view .LVU55
 184              		.loc 1 523 37 is_stmt 0 view .LVU56
 185 0014 4B79     		ldrb	r3, [r1, #5]	@ zero_extendqisi2
 186 0016 4371     		strb	r3, [r0, #5]
 524:Middlewares/ST/STM32_USB_Host_Library/Core/Src/usbh_ctlreq.c ****   if_descriptor->bInterfaceSubClass = *(uint8_t *)(buf + 6);
 187              		.loc 1 524 3 is_stmt 1 view .LVU57
 188              		.loc 1 524 37 is_stmt 0 view .LVU58
 189 0018 8B79     		ldrb	r3, [r1, #6]	@ zero_extendqisi2
 190 001a 8371     		strb	r3, [r0, #6]
 525:Middlewares/ST/STM32_USB_Host_Library/Core/Src/usbh_ctlreq.c ****   if_descriptor->bInterfaceProtocol = *(uint8_t *)(buf + 7);
 191              		.loc 1 525 3 is_stmt 1 view .LVU59
 192              		.loc 1 525 37 is_stmt 0 view .LVU60
 193 001c CB79     		ldrb	r3, [r1, #7]	@ zero_extendqisi2
 194 001e C371     		strb	r3, [r0, #7]
 526:Middlewares/ST/STM32_USB_Host_Library/Core/Src/usbh_ctlreq.c ****   if_descriptor->iInterface         = *(uint8_t *)(buf + 8);
 195              		.loc 1 526 3 is_stmt 1 view .LVU61
 196              		.loc 1 526 37 is_stmt 0 view .LVU62
 197 0020 0B7A     		ldrb	r3, [r1, #8]	@ zero_extendqisi2
 198 0022 0372     		strb	r3, [r0, #8]
 527:Middlewares/ST/STM32_USB_Host_Library/Core/Src/usbh_ctlreq.c **** }
 199              		.loc 1 527 1 view .LVU63
 200 0024 7047     		bx	lr
 201              		.cfi_endproc
 202              	.LFE144:
 204              		.section	.text.USBH_ParseEPDesc,"ax",%progbits
 205              		.align	1
 206              		.syntax unified
 207              		.thumb
 208              		.thumb_func
 210              	USBH_ParseEPDesc:
 211              	.LVL3:
 212              	.LFB145:
 528:Middlewares/ST/STM32_USB_Host_Library/Core/Src/usbh_ctlreq.c **** 
 529:Middlewares/ST/STM32_USB_Host_Library/Core/Src/usbh_ctlreq.c **** 
 530:Middlewares/ST/STM32_USB_Host_Library/Core/Src/usbh_ctlreq.c **** /**
 531:Middlewares/ST/STM32_USB_Host_Library/Core/Src/usbh_ctlreq.c ****   * @brief  USBH_ParseEPDesc
 532:Middlewares/ST/STM32_USB_Host_Library/Core/Src/usbh_ctlreq.c ****   *         This function Parses the endpoint descriptor
 533:Middlewares/ST/STM32_USB_Host_Library/Core/Src/usbh_ctlreq.c ****   * @param  phost: USB Host handler
 534:Middlewares/ST/STM32_USB_Host_Library/Core/Src/usbh_ctlreq.c ****   * @param  ep_descriptor: Endpoint descriptor destination address
ARM GAS  /tmp/ccDTG3e6.s 			page 14


 535:Middlewares/ST/STM32_USB_Host_Library/Core/Src/usbh_ctlreq.c ****   * @param  buf: Buffer where the parsed descriptor stored
 536:Middlewares/ST/STM32_USB_Host_Library/Core/Src/usbh_ctlreq.c ****   * @retval USBH Status
 537:Middlewares/ST/STM32_USB_Host_Library/Core/Src/usbh_ctlreq.c ****   */
 538:Middlewares/ST/STM32_USB_Host_Library/Core/Src/usbh_ctlreq.c **** static USBH_StatusTypeDef  USBH_ParseEPDesc(USBH_HandleTypeDef *phost, USBH_EpDescTypeDef  *ep_desc
 539:Middlewares/ST/STM32_USB_Host_Library/Core/Src/usbh_ctlreq.c ****                                             uint8_t *buf)
 540:Middlewares/ST/STM32_USB_Host_Library/Core/Src/usbh_ctlreq.c **** {
 213              		.loc 1 540 1 is_stmt 1 view -0
 214              		.cfi_startproc
 215              		@ args = 0, pretend = 0, frame = 0
 216              		@ frame_needed = 0, uses_anonymous_args = 0
 217              		.loc 1 540 1 is_stmt 0 view .LVU65
 218 0000 10B5     		push	{r4, lr}
 219              		.cfi_def_cfa_offset 8
 220              		.cfi_offset 4, -8
 221              		.cfi_offset 14, -4
 222 0002 8646     		mov	lr, r0
 541:Middlewares/ST/STM32_USB_Host_Library/Core/Src/usbh_ctlreq.c ****   USBH_StatusTypeDef status = USBH_OK;
 223              		.loc 1 541 3 is_stmt 1 view .LVU66
 224              	.LVL4:
 542:Middlewares/ST/STM32_USB_Host_Library/Core/Src/usbh_ctlreq.c ****   ep_descriptor->bLength          = *(uint8_t *)(buf + 0);
 225              		.loc 1 542 3 view .LVU67
 226              		.loc 1 542 37 is_stmt 0 view .LVU68
 227 0004 1378     		ldrb	r3, [r2]	@ zero_extendqisi2
 228              		.loc 1 542 35 view .LVU69
 229 0006 0B70     		strb	r3, [r1]
 543:Middlewares/ST/STM32_USB_Host_Library/Core/Src/usbh_ctlreq.c ****   ep_descriptor->bDescriptorType  = *(uint8_t *)(buf + 1);
 230              		.loc 1 543 3 is_stmt 1 view .LVU70
 231              		.loc 1 543 35 is_stmt 0 view .LVU71
 232 0008 5378     		ldrb	r3, [r2, #1]	@ zero_extendqisi2
 233 000a 4B70     		strb	r3, [r1, #1]
 544:Middlewares/ST/STM32_USB_Host_Library/Core/Src/usbh_ctlreq.c ****   ep_descriptor->bEndpointAddress = *(uint8_t *)(buf + 2);
 234              		.loc 1 544 3 is_stmt 1 view .LVU72
 235              		.loc 1 544 35 is_stmt 0 view .LVU73
 236 000c 9378     		ldrb	r3, [r2, #2]	@ zero_extendqisi2
 237 000e 8B70     		strb	r3, [r1, #2]
 545:Middlewares/ST/STM32_USB_Host_Library/Core/Src/usbh_ctlreq.c ****   ep_descriptor->bmAttributes     = *(uint8_t *)(buf + 3);
 238              		.loc 1 545 3 is_stmt 1 view .LVU74
 239              		.loc 1 545 35 is_stmt 0 view .LVU75
 240 0010 92F803C0 		ldrb	ip, [r2, #3]	@ zero_extendqisi2
 241 0014 81F803C0 		strb	ip, [r1, #3]
 546:Middlewares/ST/STM32_USB_Host_Library/Core/Src/usbh_ctlreq.c ****   ep_descriptor->wMaxPacketSize   = LE16(buf + 4);
 242              		.loc 1 546 3 is_stmt 1 view .LVU76
 243              		.loc 1 546 37 is_stmt 0 view .LVU77
 244 0018 1379     		ldrb	r3, [r2, #4]	@ zero_extendqisi2
 245 001a 5079     		ldrb	r0, [r2, #5]	@ zero_extendqisi2
 246              	.LVL5:
 247              		.loc 1 546 37 view .LVU78
 248 001c 43EA0023 		orr	r3, r3, r0, lsl #8
 249              		.loc 1 546 35 view .LVU79
 250 0020 8B80     		strh	r3, [r1, #4]	@ movhi
 547:Middlewares/ST/STM32_USB_Host_Library/Core/Src/usbh_ctlreq.c ****   ep_descriptor->bInterval        = *(uint8_t *)(buf + 6);
 251              		.loc 1 547 3 is_stmt 1 view .LVU80
 252              		.loc 1 547 35 is_stmt 0 view .LVU81
 253 0022 9479     		ldrb	r4, [r2, #6]	@ zero_extendqisi2
 254 0024 8C71     		strb	r4, [r1, #6]
 548:Middlewares/ST/STM32_USB_Host_Library/Core/Src/usbh_ctlreq.c **** 
 549:Middlewares/ST/STM32_USB_Host_Library/Core/Src/usbh_ctlreq.c ****   /* Make sure that wMaxPacketSize is different from 0 */
ARM GAS  /tmp/ccDTG3e6.s 			page 15


 550:Middlewares/ST/STM32_USB_Host_Library/Core/Src/usbh_ctlreq.c ****   if (ep_descriptor->wMaxPacketSize == 0x00U)
 255              		.loc 1 550 3 is_stmt 1 view .LVU82
 256              		.loc 1 550 6 is_stmt 0 view .LVU83
 257 0026 93B1     		cbz	r3, .L17
 551:Middlewares/ST/STM32_USB_Host_Library/Core/Src/usbh_ctlreq.c ****   {
 552:Middlewares/ST/STM32_USB_Host_Library/Core/Src/usbh_ctlreq.c ****     status = USBH_NOT_SUPPORTED;
 553:Middlewares/ST/STM32_USB_Host_Library/Core/Src/usbh_ctlreq.c ****   }
 554:Middlewares/ST/STM32_USB_Host_Library/Core/Src/usbh_ctlreq.c ****   else if (USBH_MAX_EP_PACKET_SIZE < (uint16_t)USBH_MAX_DATA_BUFFER)
 258              		.loc 1 554 8 is_stmt 1 view .LVU84
 555:Middlewares/ST/STM32_USB_Host_Library/Core/Src/usbh_ctlreq.c ****   {
 556:Middlewares/ST/STM32_USB_Host_Library/Core/Src/usbh_ctlreq.c ****     /* Make sure that maximum packet size (bits 0..10) does not exceed the max endpoint packet size
 557:Middlewares/ST/STM32_USB_Host_Library/Core/Src/usbh_ctlreq.c ****     ep_descriptor->wMaxPacketSize &= ~0x7FFU;
 558:Middlewares/ST/STM32_USB_Host_Library/Core/Src/usbh_ctlreq.c ****     ep_descriptor->wMaxPacketSize |=  MIN((uint16_t)(LE16(buf + 4) & 0x7FFU), (uint16_t)USBH_MAX_EP
 559:Middlewares/ST/STM32_USB_Host_Library/Core/Src/usbh_ctlreq.c **** 
 560:Middlewares/ST/STM32_USB_Host_Library/Core/Src/usbh_ctlreq.c ****   }
 561:Middlewares/ST/STM32_USB_Host_Library/Core/Src/usbh_ctlreq.c ****   else if ((uint16_t)USBH_MAX_DATA_BUFFER < USBH_MAX_EP_PACKET_SIZE)
 259              		.loc 1 561 8 view .LVU85
 562:Middlewares/ST/STM32_USB_Host_Library/Core/Src/usbh_ctlreq.c ****   {
 563:Middlewares/ST/STM32_USB_Host_Library/Core/Src/usbh_ctlreq.c ****     /* Make sure that maximum packet size (bits 0..10) does not exceed the total buffer length */
 564:Middlewares/ST/STM32_USB_Host_Library/Core/Src/usbh_ctlreq.c ****     ep_descriptor->wMaxPacketSize &= ~0x7FFU;
 260              		.loc 1 564 5 view .LVU86
 261              		.loc 1 564 35 is_stmt 0 view .LVU87
 262 0028 03F47843 		and	r3, r3, #63488
 263 002c 8B80     		strh	r3, [r1, #4]	@ movhi
 565:Middlewares/ST/STM32_USB_Host_Library/Core/Src/usbh_ctlreq.c ****     ep_descriptor->wMaxPacketSize |= MIN((uint16_t)(LE16(buf + 4) & 0x7FFU), (uint16_t)USBH_MAX_DAT
 264              		.loc 1 565 5 is_stmt 1 view .LVU88
 265              		.loc 1 565 38 is_stmt 0 view .LVU89
 266 002e 1079     		ldrb	r0, [r2, #4]	@ zero_extendqisi2
 267 0030 5279     		ldrb	r2, [r2, #5]	@ zero_extendqisi2
 268              	.LVL6:
 269              		.loc 1 565 38 view .LVU90
 270 0032 40EA0222 		orr	r2, r0, r2, lsl #8
 271              		.loc 1 565 35 view .LVU91
 272 0036 12F4C06F 		tst	r2, #1536
 273 003a 05D1     		bne	.L18
 274              		.loc 1 565 35 discriminator 1 view .LVU92
 275 003c C2F30A02 		ubfx	r2, r2, #0, #11
 276              	.L12:
 277              		.loc 1 565 35 discriminator 4 view .LVU93
 278 0040 1343     		orrs	r3, r3, r2
 279 0042 8B80     		strh	r3, [r1, #4]	@ movhi
 541:Middlewares/ST/STM32_USB_Host_Library/Core/Src/usbh_ctlreq.c ****   ep_descriptor->bLength          = *(uint8_t *)(buf + 0);
 280              		.loc 1 541 22 view .LVU94
 281 0044 0020     		movs	r0, #0
 282 0046 03E0     		b	.L11
 283              	.L18:
 284              		.loc 1 565 35 discriminator 2 view .LVU95
 285 0048 4FF40072 		mov	r2, #512
 286 004c F8E7     		b	.L12
 287              	.LVL7:
 288              	.L17:
 552:Middlewares/ST/STM32_USB_Host_Library/Core/Src/usbh_ctlreq.c ****   }
 289              		.loc 1 552 12 view .LVU96
 290 004e 0320     		movs	r0, #3
 291              	.LVL8:
 292              	.L11:
 566:Middlewares/ST/STM32_USB_Host_Library/Core/Src/usbh_ctlreq.c ****   }
ARM GAS  /tmp/ccDTG3e6.s 			page 16


 567:Middlewares/ST/STM32_USB_Host_Library/Core/Src/usbh_ctlreq.c ****   else
 568:Middlewares/ST/STM32_USB_Host_Library/Core/Src/usbh_ctlreq.c ****   {
 569:Middlewares/ST/STM32_USB_Host_Library/Core/Src/usbh_ctlreq.c ****     /* ... */
 570:Middlewares/ST/STM32_USB_Host_Library/Core/Src/usbh_ctlreq.c ****   }
 293              		.loc 1 570 3 is_stmt 1 view .LVU97
 571:Middlewares/ST/STM32_USB_Host_Library/Core/Src/usbh_ctlreq.c **** 
 572:Middlewares/ST/STM32_USB_Host_Library/Core/Src/usbh_ctlreq.c ****   /* For high-speed interrupt/isochronous endpoints, bInterval can vary from 1 to 16 */
 573:Middlewares/ST/STM32_USB_Host_Library/Core/Src/usbh_ctlreq.c ****   if (phost->device.speed == (uint8_t)USBH_SPEED_HIGH)
 294              		.loc 1 573 3 view .LVU98
 295              		.loc 1 573 20 is_stmt 0 view .LVU99
 296 0050 9EF81D33 		ldrb	r3, [lr, #797]	@ zero_extendqisi2
 297              		.loc 1 573 6 view .LVU100
 298 0054 73B9     		cbnz	r3, .L13
 574:Middlewares/ST/STM32_USB_Host_Library/Core/Src/usbh_ctlreq.c ****   {
 575:Middlewares/ST/STM32_USB_Host_Library/Core/Src/usbh_ctlreq.c ****     if (((ep_descriptor->bmAttributes & EP_TYPE_MSK) == EP_TYPE_ISOC) ||
 299              		.loc 1 575 5 is_stmt 1 view .LVU101
 300 0056 0CF0030C 		and	ip, ip, #3
 301              		.loc 1 575 8 is_stmt 0 view .LVU102
 302 005a BCF1010F 		cmp	ip, #1
 303 005e 03D0     		beq	.L14
 304              		.loc 1 575 71 discriminator 1 view .LVU103
 305 0060 BCF1030F 		cmp	ip, #3
 306 0064 00D0     		beq	.L14
 307              	.LVL9:
 308              	.L15:
 576:Middlewares/ST/STM32_USB_Host_Library/Core/Src/usbh_ctlreq.c ****         ((ep_descriptor->bmAttributes & EP_TYPE_MSK) == EP_TYPE_INTR))
 577:Middlewares/ST/STM32_USB_Host_Library/Core/Src/usbh_ctlreq.c ****     {
 578:Middlewares/ST/STM32_USB_Host_Library/Core/Src/usbh_ctlreq.c ****       if ((ep_descriptor->bInterval == 0U) || (ep_descriptor->bInterval > 0x10U))
 579:Middlewares/ST/STM32_USB_Host_Library/Core/Src/usbh_ctlreq.c ****       {
 580:Middlewares/ST/STM32_USB_Host_Library/Core/Src/usbh_ctlreq.c ****         status = USBH_NOT_SUPPORTED;
 581:Middlewares/ST/STM32_USB_Host_Library/Core/Src/usbh_ctlreq.c ****       }
 582:Middlewares/ST/STM32_USB_Host_Library/Core/Src/usbh_ctlreq.c ****     }
 583:Middlewares/ST/STM32_USB_Host_Library/Core/Src/usbh_ctlreq.c ****   }
 584:Middlewares/ST/STM32_USB_Host_Library/Core/Src/usbh_ctlreq.c ****   else
 585:Middlewares/ST/STM32_USB_Host_Library/Core/Src/usbh_ctlreq.c ****   {
 586:Middlewares/ST/STM32_USB_Host_Library/Core/Src/usbh_ctlreq.c ****     /* For full-speed isochronous endpoints, the value of bInterval must be in the range from 1 to 
 587:Middlewares/ST/STM32_USB_Host_Library/Core/Src/usbh_ctlreq.c ****     if ((ep_descriptor->bmAttributes & EP_TYPE_MSK) == EP_TYPE_ISOC)
 588:Middlewares/ST/STM32_USB_Host_Library/Core/Src/usbh_ctlreq.c ****     {
 589:Middlewares/ST/STM32_USB_Host_Library/Core/Src/usbh_ctlreq.c ****       if ((ep_descriptor->bInterval == 0U) || (ep_descriptor->bInterval > 0x10U))
 590:Middlewares/ST/STM32_USB_Host_Library/Core/Src/usbh_ctlreq.c ****       {
 591:Middlewares/ST/STM32_USB_Host_Library/Core/Src/usbh_ctlreq.c ****         status = USBH_NOT_SUPPORTED;
 592:Middlewares/ST/STM32_USB_Host_Library/Core/Src/usbh_ctlreq.c ****       }
 593:Middlewares/ST/STM32_USB_Host_Library/Core/Src/usbh_ctlreq.c ****     }
 594:Middlewares/ST/STM32_USB_Host_Library/Core/Src/usbh_ctlreq.c ****     /* For full-/low-speed interrupt endpoints, the value of bInterval may be from 1 to 255.*/
 595:Middlewares/ST/STM32_USB_Host_Library/Core/Src/usbh_ctlreq.c ****     else if ((ep_descriptor->bmAttributes & EP_TYPE_MSK) == EP_TYPE_INTR)
 596:Middlewares/ST/STM32_USB_Host_Library/Core/Src/usbh_ctlreq.c ****     {
 597:Middlewares/ST/STM32_USB_Host_Library/Core/Src/usbh_ctlreq.c ****       if (ep_descriptor->bInterval == 0U)
 598:Middlewares/ST/STM32_USB_Host_Library/Core/Src/usbh_ctlreq.c ****       {
 599:Middlewares/ST/STM32_USB_Host_Library/Core/Src/usbh_ctlreq.c ****         status = USBH_NOT_SUPPORTED;
 600:Middlewares/ST/STM32_USB_Host_Library/Core/Src/usbh_ctlreq.c ****       }
 601:Middlewares/ST/STM32_USB_Host_Library/Core/Src/usbh_ctlreq.c ****     }
 602:Middlewares/ST/STM32_USB_Host_Library/Core/Src/usbh_ctlreq.c ****     else
 603:Middlewares/ST/STM32_USB_Host_Library/Core/Src/usbh_ctlreq.c ****     {
 604:Middlewares/ST/STM32_USB_Host_Library/Core/Src/usbh_ctlreq.c ****       /* ... */
 605:Middlewares/ST/STM32_USB_Host_Library/Core/Src/usbh_ctlreq.c ****     }
 309              		.loc 1 605 5 is_stmt 1 view .LVU104
 606:Middlewares/ST/STM32_USB_Host_Library/Core/Src/usbh_ctlreq.c ****   }
ARM GAS  /tmp/ccDTG3e6.s 			page 17


 607:Middlewares/ST/STM32_USB_Host_Library/Core/Src/usbh_ctlreq.c **** 
 608:Middlewares/ST/STM32_USB_Host_Library/Core/Src/usbh_ctlreq.c ****   return status;
 310              		.loc 1 608 3 view .LVU105
 609:Middlewares/ST/STM32_USB_Host_Library/Core/Src/usbh_ctlreq.c **** }
 311              		.loc 1 609 1 is_stmt 0 view .LVU106
 312 0066 10BD     		pop	{r4, pc}
 313              	.L14:
 578:Middlewares/ST/STM32_USB_Host_Library/Core/Src/usbh_ctlreq.c ****       {
 314              		.loc 1 578 7 is_stmt 1 view .LVU107
 578:Middlewares/ST/STM32_USB_Host_Library/Core/Src/usbh_ctlreq.c ****       {
 315              		.loc 1 578 44 is_stmt 0 view .LVU108
 316 0068 013C     		subs	r4, r4, #1
 317 006a E4B2     		uxtb	r4, r4
 578:Middlewares/ST/STM32_USB_Host_Library/Core/Src/usbh_ctlreq.c ****       {
 318              		.loc 1 578 10 view .LVU109
 319 006c 0F2C     		cmp	r4, #15
 320 006e FAD9     		bls	.L15
 580:Middlewares/ST/STM32_USB_Host_Library/Core/Src/usbh_ctlreq.c ****       }
 321              		.loc 1 580 16 view .LVU110
 322 0070 0320     		movs	r0, #3
 323              	.LVL10:
 580:Middlewares/ST/STM32_USB_Host_Library/Core/Src/usbh_ctlreq.c ****       }
 324              		.loc 1 580 16 view .LVU111
 325 0072 F8E7     		b	.L15
 326              	.LVL11:
 327              	.L13:
 587:Middlewares/ST/STM32_USB_Host_Library/Core/Src/usbh_ctlreq.c ****     {
 328              		.loc 1 587 5 is_stmt 1 view .LVU112
 329 0074 0CF0030C 		and	ip, ip, #3
 587:Middlewares/ST/STM32_USB_Host_Library/Core/Src/usbh_ctlreq.c ****     {
 330              		.loc 1 587 8 is_stmt 0 view .LVU113
 331 0078 BCF1010F 		cmp	ip, #1
 332 007c 06D0     		beq	.L23
 595:Middlewares/ST/STM32_USB_Host_Library/Core/Src/usbh_ctlreq.c ****     {
 333              		.loc 1 595 10 is_stmt 1 view .LVU114
 595:Middlewares/ST/STM32_USB_Host_Library/Core/Src/usbh_ctlreq.c ****     {
 334              		.loc 1 595 13 is_stmt 0 view .LVU115
 335 007e BCF1030F 		cmp	ip, #3
 336 0082 F0D1     		bne	.L15
 597:Middlewares/ST/STM32_USB_Host_Library/Core/Src/usbh_ctlreq.c ****       {
 337              		.loc 1 597 7 is_stmt 1 view .LVU116
 597:Middlewares/ST/STM32_USB_Host_Library/Core/Src/usbh_ctlreq.c ****       {
 338              		.loc 1 597 10 is_stmt 0 view .LVU117
 339 0084 002C     		cmp	r4, #0
 340 0086 EED1     		bne	.L15
 599:Middlewares/ST/STM32_USB_Host_Library/Core/Src/usbh_ctlreq.c ****       }
 341              		.loc 1 599 16 view .LVU118
 342 0088 6046     		mov	r0, ip
 343              	.LVL12:
 599:Middlewares/ST/STM32_USB_Host_Library/Core/Src/usbh_ctlreq.c ****       }
 344              		.loc 1 599 16 view .LVU119
 345 008a ECE7     		b	.L15
 346              	.LVL13:
 347              	.L23:
 589:Middlewares/ST/STM32_USB_Host_Library/Core/Src/usbh_ctlreq.c ****       {
 348              		.loc 1 589 7 is_stmt 1 view .LVU120
 589:Middlewares/ST/STM32_USB_Host_Library/Core/Src/usbh_ctlreq.c ****       {
ARM GAS  /tmp/ccDTG3e6.s 			page 18


 349              		.loc 1 589 44 is_stmt 0 view .LVU121
 350 008c 013C     		subs	r4, r4, #1
 351 008e E4B2     		uxtb	r4, r4
 589:Middlewares/ST/STM32_USB_Host_Library/Core/Src/usbh_ctlreq.c ****       {
 352              		.loc 1 589 10 view .LVU122
 353 0090 0F2C     		cmp	r4, #15
 354 0092 E8D9     		bls	.L15
 591:Middlewares/ST/STM32_USB_Host_Library/Core/Src/usbh_ctlreq.c ****       }
 355              		.loc 1 591 16 view .LVU123
 356 0094 0320     		movs	r0, #3
 357              	.LVL14:
 591:Middlewares/ST/STM32_USB_Host_Library/Core/Src/usbh_ctlreq.c ****       }
 358              		.loc 1 591 16 view .LVU124
 359 0096 E6E7     		b	.L15
 360              		.cfi_endproc
 361              	.LFE145:
 363              		.section	.text.USBH_ParseStringDesc,"ax",%progbits
 364              		.align	1
 365              		.syntax unified
 366              		.thumb
 367              		.thumb_func
 369              	USBH_ParseStringDesc:
 370              	.LVL15:
 371              	.LFB146:
 610:Middlewares/ST/STM32_USB_Host_Library/Core/Src/usbh_ctlreq.c **** 
 611:Middlewares/ST/STM32_USB_Host_Library/Core/Src/usbh_ctlreq.c **** 
 612:Middlewares/ST/STM32_USB_Host_Library/Core/Src/usbh_ctlreq.c **** /**
 613:Middlewares/ST/STM32_USB_Host_Library/Core/Src/usbh_ctlreq.c ****   * @brief  USBH_ParseStringDesc
 614:Middlewares/ST/STM32_USB_Host_Library/Core/Src/usbh_ctlreq.c ****   *         This function Parses the string descriptor
 615:Middlewares/ST/STM32_USB_Host_Library/Core/Src/usbh_ctlreq.c ****   * @param  psrc: Source pointer containing the descriptor data
 616:Middlewares/ST/STM32_USB_Host_Library/Core/Src/usbh_ctlreq.c ****   * @param  pdest: Destination address pointer
 617:Middlewares/ST/STM32_USB_Host_Library/Core/Src/usbh_ctlreq.c ****   * @param  length: Length of the descriptor
 618:Middlewares/ST/STM32_USB_Host_Library/Core/Src/usbh_ctlreq.c ****   * @retval None
 619:Middlewares/ST/STM32_USB_Host_Library/Core/Src/usbh_ctlreq.c ****   */
 620:Middlewares/ST/STM32_USB_Host_Library/Core/Src/usbh_ctlreq.c **** static void USBH_ParseStringDesc(uint8_t *psrc, uint8_t *pdest, uint16_t length)
 621:Middlewares/ST/STM32_USB_Host_Library/Core/Src/usbh_ctlreq.c **** {
 372              		.loc 1 621 1 is_stmt 1 view -0
 373              		.cfi_startproc
 374              		@ args = 0, pretend = 0, frame = 0
 375              		@ frame_needed = 0, uses_anonymous_args = 0
 376              		@ link register save eliminated.
 622:Middlewares/ST/STM32_USB_Host_Library/Core/Src/usbh_ctlreq.c ****   uint16_t strlength;
 377              		.loc 1 622 3 view .LVU126
 623:Middlewares/ST/STM32_USB_Host_Library/Core/Src/usbh_ctlreq.c ****   uint16_t idx;
 378              		.loc 1 623 3 view .LVU127
 624:Middlewares/ST/STM32_USB_Host_Library/Core/Src/usbh_ctlreq.c **** 
 625:Middlewares/ST/STM32_USB_Host_Library/Core/Src/usbh_ctlreq.c ****   /* The UNICODE string descriptor is not NULL-terminated. The string length is
 626:Middlewares/ST/STM32_USB_Host_Library/Core/Src/usbh_ctlreq.c ****   computed by subtracting two from the value of the first byte of the descriptor.
 627:Middlewares/ST/STM32_USB_Host_Library/Core/Src/usbh_ctlreq.c ****   */
 628:Middlewares/ST/STM32_USB_Host_Library/Core/Src/usbh_ctlreq.c **** 
 629:Middlewares/ST/STM32_USB_Host_Library/Core/Src/usbh_ctlreq.c ****   /* Check which is lower size, the Size of string or the length of bytes read
 630:Middlewares/ST/STM32_USB_Host_Library/Core/Src/usbh_ctlreq.c ****   from the device */
 631:Middlewares/ST/STM32_USB_Host_Library/Core/Src/usbh_ctlreq.c **** 
 632:Middlewares/ST/STM32_USB_Host_Library/Core/Src/usbh_ctlreq.c ****   if (psrc[1] == USB_DESC_TYPE_STRING)
 379              		.loc 1 632 3 view .LVU128
 380              		.loc 1 632 11 is_stmt 0 view .LVU129
 381 0000 4378     		ldrb	r3, [r0, #1]	@ zero_extendqisi2
ARM GAS  /tmp/ccDTG3e6.s 			page 19


 382              		.loc 1 632 6 view .LVU130
 383 0002 032B     		cmp	r3, #3
 384 0004 00D0     		beq	.L28
 385              	.LVL16:
 386              	.L24:
 633:Middlewares/ST/STM32_USB_Host_Library/Core/Src/usbh_ctlreq.c ****   {
 634:Middlewares/ST/STM32_USB_Host_Library/Core/Src/usbh_ctlreq.c ****     /* Make sure the Descriptor is String Type */
 635:Middlewares/ST/STM32_USB_Host_Library/Core/Src/usbh_ctlreq.c **** 
 636:Middlewares/ST/STM32_USB_Host_Library/Core/Src/usbh_ctlreq.c ****     /* psrc[0] contains Size of Descriptor, subtract 2 to get the length of string */
 637:Middlewares/ST/STM32_USB_Host_Library/Core/Src/usbh_ctlreq.c ****     strlength = ((((uint16_t)psrc[0] - 2U) <= length) ? ((uint16_t)psrc[0] - 2U) : length);
 638:Middlewares/ST/STM32_USB_Host_Library/Core/Src/usbh_ctlreq.c **** 
 639:Middlewares/ST/STM32_USB_Host_Library/Core/Src/usbh_ctlreq.c ****     /* Adjust the offset ignoring the String Len and Descriptor type */
 640:Middlewares/ST/STM32_USB_Host_Library/Core/Src/usbh_ctlreq.c ****     psrc += 2U;
 641:Middlewares/ST/STM32_USB_Host_Library/Core/Src/usbh_ctlreq.c **** 
 642:Middlewares/ST/STM32_USB_Host_Library/Core/Src/usbh_ctlreq.c ****     for (idx = 0U; idx < strlength; idx += 2U)
 643:Middlewares/ST/STM32_USB_Host_Library/Core/Src/usbh_ctlreq.c ****     {
 644:Middlewares/ST/STM32_USB_Host_Library/Core/Src/usbh_ctlreq.c ****       /* Copy Only the string and ignore the UNICODE ID, hence add the src */
 645:Middlewares/ST/STM32_USB_Host_Library/Core/Src/usbh_ctlreq.c ****       *pdest =  psrc[idx];
 646:Middlewares/ST/STM32_USB_Host_Library/Core/Src/usbh_ctlreq.c ****       pdest++;
 647:Middlewares/ST/STM32_USB_Host_Library/Core/Src/usbh_ctlreq.c ****     }
 648:Middlewares/ST/STM32_USB_Host_Library/Core/Src/usbh_ctlreq.c ****     *pdest = 0U; /* mark end of string */
 649:Middlewares/ST/STM32_USB_Host_Library/Core/Src/usbh_ctlreq.c ****   }
 650:Middlewares/ST/STM32_USB_Host_Library/Core/Src/usbh_ctlreq.c **** }
 387              		.loc 1 650 1 view .LVU131
 388 0006 7047     		bx	lr
 389              	.LVL17:
 390              	.L28:
 637:Middlewares/ST/STM32_USB_Host_Library/Core/Src/usbh_ctlreq.c **** 
 391              		.loc 1 637 5 is_stmt 1 view .LVU132
 637:Middlewares/ST/STM32_USB_Host_Library/Core/Src/usbh_ctlreq.c **** 
 392              		.loc 1 637 34 is_stmt 0 view .LVU133
 393 0008 0378     		ldrb	r3, [r0]	@ zero_extendqisi2
 637:Middlewares/ST/STM32_USB_Host_Library/Core/Src/usbh_ctlreq.c **** 
 394              		.loc 1 637 38 view .LVU134
 395 000a 023B     		subs	r3, r3, #2
 637:Middlewares/ST/STM32_USB_Host_Library/Core/Src/usbh_ctlreq.c **** 
 396              		.loc 1 637 82 view .LVU135
 397 000c 9A42     		cmp	r2, r3
 398 000e 28BF     		it	cs
 399 0010 1A46     		movcs	r2, r3
 400              	.LVL18:
 637:Middlewares/ST/STM32_USB_Host_Library/Core/Src/usbh_ctlreq.c **** 
 401              		.loc 1 637 15 view .LVU136
 402 0012 92B2     		uxth	r2, r2
 403              	.LVL19:
 640:Middlewares/ST/STM32_USB_Host_Library/Core/Src/usbh_ctlreq.c **** 
 404              		.loc 1 640 5 is_stmt 1 view .LVU137
 642:Middlewares/ST/STM32_USB_Host_Library/Core/Src/usbh_ctlreq.c ****     {
 405              		.loc 1 642 5 view .LVU138
 642:Middlewares/ST/STM32_USB_Host_Library/Core/Src/usbh_ctlreq.c ****     {
 406              		.loc 1 642 14 is_stmt 0 view .LVU139
 407 0014 0023     		movs	r3, #0
 642:Middlewares/ST/STM32_USB_Host_Library/Core/Src/usbh_ctlreq.c ****     {
 408              		.loc 1 642 5 view .LVU140
 409 0016 07E0     		b	.L26
 410              	.LVL20:
 411              	.L27:
ARM GAS  /tmp/ccDTG3e6.s 			page 20


 645:Middlewares/ST/STM32_USB_Host_Library/Core/Src/usbh_ctlreq.c ****       pdest++;
 412              		.loc 1 645 7 is_stmt 1 view .LVU141
 645:Middlewares/ST/STM32_USB_Host_Library/Core/Src/usbh_ctlreq.c ****       pdest++;
 413              		.loc 1 645 21 is_stmt 0 view .LVU142
 414 0018 00EB030C 		add	ip, r0, r3
 415 001c 9CF802C0 		ldrb	ip, [ip, #2]	@ zero_extendqisi2
 645:Middlewares/ST/STM32_USB_Host_Library/Core/Src/usbh_ctlreq.c ****       pdest++;
 416              		.loc 1 645 14 view .LVU143
 417 0020 01F801CB 		strb	ip, [r1], #1
 418              	.LVL21:
 646:Middlewares/ST/STM32_USB_Host_Library/Core/Src/usbh_ctlreq.c ****     }
 419              		.loc 1 646 7 is_stmt 1 view .LVU144
 642:Middlewares/ST/STM32_USB_Host_Library/Core/Src/usbh_ctlreq.c ****     {
 420              		.loc 1 642 41 discriminator 3 view .LVU145
 421 0024 0233     		adds	r3, r3, #2
 422              	.LVL22:
 642:Middlewares/ST/STM32_USB_Host_Library/Core/Src/usbh_ctlreq.c ****     {
 423              		.loc 1 642 41 is_stmt 0 discriminator 3 view .LVU146
 424 0026 9BB2     		uxth	r3, r3
 425              	.LVL23:
 426              	.L26:
 642:Middlewares/ST/STM32_USB_Host_Library/Core/Src/usbh_ctlreq.c ****     {
 427              		.loc 1 642 24 is_stmt 1 discriminator 1 view .LVU147
 428 0028 9342     		cmp	r3, r2
 429 002a F5D3     		bcc	.L27
 648:Middlewares/ST/STM32_USB_Host_Library/Core/Src/usbh_ctlreq.c ****   }
 430              		.loc 1 648 5 view .LVU148
 648:Middlewares/ST/STM32_USB_Host_Library/Core/Src/usbh_ctlreq.c ****   }
 431              		.loc 1 648 12 is_stmt 0 view .LVU149
 432 002c 0023     		movs	r3, #0
 433              	.LVL24:
 648:Middlewares/ST/STM32_USB_Host_Library/Core/Src/usbh_ctlreq.c ****   }
 434              		.loc 1 648 12 view .LVU150
 435 002e 0B70     		strb	r3, [r1]
 436              		.loc 1 650 1 view .LVU151
 437 0030 E9E7     		b	.L24
 438              		.cfi_endproc
 439              	.LFE146:
 441              		.section	.text.USBH_HandleControl,"ax",%progbits
 442              		.align	1
 443              		.syntax unified
 444              		.thumb
 445              		.thumb_func
 447              	USBH_HandleControl:
 448              	.LVL25:
 449              	.LFB149:
 651:Middlewares/ST/STM32_USB_Host_Library/Core/Src/usbh_ctlreq.c **** 
 652:Middlewares/ST/STM32_USB_Host_Library/Core/Src/usbh_ctlreq.c **** 
 653:Middlewares/ST/STM32_USB_Host_Library/Core/Src/usbh_ctlreq.c **** /**
 654:Middlewares/ST/STM32_USB_Host_Library/Core/Src/usbh_ctlreq.c ****   * @brief  USBH_GetNextDesc
 655:Middlewares/ST/STM32_USB_Host_Library/Core/Src/usbh_ctlreq.c ****   *         This function return the next descriptor header
 656:Middlewares/ST/STM32_USB_Host_Library/Core/Src/usbh_ctlreq.c ****   * @param  buf: Buffer where the cfg descriptor is available
 657:Middlewares/ST/STM32_USB_Host_Library/Core/Src/usbh_ctlreq.c ****   * @param  ptr: data pointer inside the cfg descriptor
 658:Middlewares/ST/STM32_USB_Host_Library/Core/Src/usbh_ctlreq.c ****   * @retval next header
 659:Middlewares/ST/STM32_USB_Host_Library/Core/Src/usbh_ctlreq.c ****   */
 660:Middlewares/ST/STM32_USB_Host_Library/Core/Src/usbh_ctlreq.c **** USBH_DescHeader_t  *USBH_GetNextDesc(uint8_t   *pbuf, uint16_t  *ptr)
 661:Middlewares/ST/STM32_USB_Host_Library/Core/Src/usbh_ctlreq.c **** {
ARM GAS  /tmp/ccDTG3e6.s 			page 21


 662:Middlewares/ST/STM32_USB_Host_Library/Core/Src/usbh_ctlreq.c ****   USBH_DescHeader_t  *pnext;
 663:Middlewares/ST/STM32_USB_Host_Library/Core/Src/usbh_ctlreq.c **** 
 664:Middlewares/ST/STM32_USB_Host_Library/Core/Src/usbh_ctlreq.c ****   *ptr += ((USBH_DescHeader_t *)(void *)pbuf)->bLength;
 665:Middlewares/ST/STM32_USB_Host_Library/Core/Src/usbh_ctlreq.c ****   pnext = (USBH_DescHeader_t *)(void *)((uint8_t *)(void *)pbuf + \
 666:Middlewares/ST/STM32_USB_Host_Library/Core/Src/usbh_ctlreq.c ****                                         ((USBH_DescHeader_t *)(void *)pbuf)->bLength);
 667:Middlewares/ST/STM32_USB_Host_Library/Core/Src/usbh_ctlreq.c **** 
 668:Middlewares/ST/STM32_USB_Host_Library/Core/Src/usbh_ctlreq.c ****   return (pnext);
 669:Middlewares/ST/STM32_USB_Host_Library/Core/Src/usbh_ctlreq.c **** }
 670:Middlewares/ST/STM32_USB_Host_Library/Core/Src/usbh_ctlreq.c **** 
 671:Middlewares/ST/STM32_USB_Host_Library/Core/Src/usbh_ctlreq.c **** 
 672:Middlewares/ST/STM32_USB_Host_Library/Core/Src/usbh_ctlreq.c **** /**
 673:Middlewares/ST/STM32_USB_Host_Library/Core/Src/usbh_ctlreq.c ****   * @brief  USBH_CtlReq
 674:Middlewares/ST/STM32_USB_Host_Library/Core/Src/usbh_ctlreq.c ****   *         USBH_CtlReq sends a control request and provide the status after
 675:Middlewares/ST/STM32_USB_Host_Library/Core/Src/usbh_ctlreq.c ****   *            completion of the request
 676:Middlewares/ST/STM32_USB_Host_Library/Core/Src/usbh_ctlreq.c ****   * @param  phost: Host Handle
 677:Middlewares/ST/STM32_USB_Host_Library/Core/Src/usbh_ctlreq.c ****   * @param  req: Setup Request Structure
 678:Middlewares/ST/STM32_USB_Host_Library/Core/Src/usbh_ctlreq.c ****   * @param  buff: data buffer address to store the response
 679:Middlewares/ST/STM32_USB_Host_Library/Core/Src/usbh_ctlreq.c ****   * @param  length: length of the response
 680:Middlewares/ST/STM32_USB_Host_Library/Core/Src/usbh_ctlreq.c ****   * @retval USBH Status
 681:Middlewares/ST/STM32_USB_Host_Library/Core/Src/usbh_ctlreq.c ****   */
 682:Middlewares/ST/STM32_USB_Host_Library/Core/Src/usbh_ctlreq.c **** USBH_StatusTypeDef USBH_CtlReq(USBH_HandleTypeDef *phost, uint8_t *buff,
 683:Middlewares/ST/STM32_USB_Host_Library/Core/Src/usbh_ctlreq.c ****                                uint16_t length)
 684:Middlewares/ST/STM32_USB_Host_Library/Core/Src/usbh_ctlreq.c **** {
 685:Middlewares/ST/STM32_USB_Host_Library/Core/Src/usbh_ctlreq.c ****   USBH_StatusTypeDef status;
 686:Middlewares/ST/STM32_USB_Host_Library/Core/Src/usbh_ctlreq.c ****   status = USBH_BUSY;
 687:Middlewares/ST/STM32_USB_Host_Library/Core/Src/usbh_ctlreq.c **** 
 688:Middlewares/ST/STM32_USB_Host_Library/Core/Src/usbh_ctlreq.c ****   switch (phost->RequestState)
 689:Middlewares/ST/STM32_USB_Host_Library/Core/Src/usbh_ctlreq.c ****   {
 690:Middlewares/ST/STM32_USB_Host_Library/Core/Src/usbh_ctlreq.c ****     case CMD_SEND:
 691:Middlewares/ST/STM32_USB_Host_Library/Core/Src/usbh_ctlreq.c ****       /* Start a SETUP transfer */
 692:Middlewares/ST/STM32_USB_Host_Library/Core/Src/usbh_ctlreq.c ****       phost->Control.buff = buff;
 693:Middlewares/ST/STM32_USB_Host_Library/Core/Src/usbh_ctlreq.c ****       phost->Control.length = length;
 694:Middlewares/ST/STM32_USB_Host_Library/Core/Src/usbh_ctlreq.c ****       phost->Control.state = CTRL_SETUP;
 695:Middlewares/ST/STM32_USB_Host_Library/Core/Src/usbh_ctlreq.c ****       phost->RequestState = CMD_WAIT;
 696:Middlewares/ST/STM32_USB_Host_Library/Core/Src/usbh_ctlreq.c ****       status = USBH_BUSY;
 697:Middlewares/ST/STM32_USB_Host_Library/Core/Src/usbh_ctlreq.c **** 
 698:Middlewares/ST/STM32_USB_Host_Library/Core/Src/usbh_ctlreq.c **** #if (USBH_USE_OS == 1U)
 699:Middlewares/ST/STM32_USB_Host_Library/Core/Src/usbh_ctlreq.c ****       phost->os_msg = (uint32_t)USBH_CONTROL_EVENT;
 700:Middlewares/ST/STM32_USB_Host_Library/Core/Src/usbh_ctlreq.c **** #if (osCMSIS < 0x20000U)
 701:Middlewares/ST/STM32_USB_Host_Library/Core/Src/usbh_ctlreq.c ****       (void)osMessagePut(phost->os_event, phost->os_msg, 0U);
 702:Middlewares/ST/STM32_USB_Host_Library/Core/Src/usbh_ctlreq.c **** #else
 703:Middlewares/ST/STM32_USB_Host_Library/Core/Src/usbh_ctlreq.c ****       (void)osMessageQueuePut(phost->os_event, &phost->os_msg, 0U, 0U);
 704:Middlewares/ST/STM32_USB_Host_Library/Core/Src/usbh_ctlreq.c **** #endif
 705:Middlewares/ST/STM32_USB_Host_Library/Core/Src/usbh_ctlreq.c **** #endif
 706:Middlewares/ST/STM32_USB_Host_Library/Core/Src/usbh_ctlreq.c ****       break;
 707:Middlewares/ST/STM32_USB_Host_Library/Core/Src/usbh_ctlreq.c **** 
 708:Middlewares/ST/STM32_USB_Host_Library/Core/Src/usbh_ctlreq.c ****     case CMD_WAIT:
 709:Middlewares/ST/STM32_USB_Host_Library/Core/Src/usbh_ctlreq.c ****       status = USBH_HandleControl(phost);
 710:Middlewares/ST/STM32_USB_Host_Library/Core/Src/usbh_ctlreq.c ****       if ((status == USBH_OK) || (status == USBH_NOT_SUPPORTED))
 711:Middlewares/ST/STM32_USB_Host_Library/Core/Src/usbh_ctlreq.c ****       {
 712:Middlewares/ST/STM32_USB_Host_Library/Core/Src/usbh_ctlreq.c ****         /* Transaction completed, move control state to idle */
 713:Middlewares/ST/STM32_USB_Host_Library/Core/Src/usbh_ctlreq.c ****         phost->RequestState = CMD_SEND;
 714:Middlewares/ST/STM32_USB_Host_Library/Core/Src/usbh_ctlreq.c ****         phost->Control.state = CTRL_IDLE;
 715:Middlewares/ST/STM32_USB_Host_Library/Core/Src/usbh_ctlreq.c ****       }
 716:Middlewares/ST/STM32_USB_Host_Library/Core/Src/usbh_ctlreq.c ****       else if (status == USBH_FAIL)
 717:Middlewares/ST/STM32_USB_Host_Library/Core/Src/usbh_ctlreq.c ****       {
 718:Middlewares/ST/STM32_USB_Host_Library/Core/Src/usbh_ctlreq.c ****         /* Failure Mode */
ARM GAS  /tmp/ccDTG3e6.s 			page 22


 719:Middlewares/ST/STM32_USB_Host_Library/Core/Src/usbh_ctlreq.c ****         phost->RequestState = CMD_SEND;
 720:Middlewares/ST/STM32_USB_Host_Library/Core/Src/usbh_ctlreq.c ****       }
 721:Middlewares/ST/STM32_USB_Host_Library/Core/Src/usbh_ctlreq.c ****       else
 722:Middlewares/ST/STM32_USB_Host_Library/Core/Src/usbh_ctlreq.c ****       {
 723:Middlewares/ST/STM32_USB_Host_Library/Core/Src/usbh_ctlreq.c ****         /* .. */
 724:Middlewares/ST/STM32_USB_Host_Library/Core/Src/usbh_ctlreq.c ****       }
 725:Middlewares/ST/STM32_USB_Host_Library/Core/Src/usbh_ctlreq.c **** #if (USBH_USE_OS == 1U)
 726:Middlewares/ST/STM32_USB_Host_Library/Core/Src/usbh_ctlreq.c ****       phost->os_msg = (uint32_t)USBH_CONTROL_EVENT;
 727:Middlewares/ST/STM32_USB_Host_Library/Core/Src/usbh_ctlreq.c **** #if (osCMSIS < 0x20000U)
 728:Middlewares/ST/STM32_USB_Host_Library/Core/Src/usbh_ctlreq.c ****       (void)osMessagePut(phost->os_event, phost->os_msg, 0U);
 729:Middlewares/ST/STM32_USB_Host_Library/Core/Src/usbh_ctlreq.c **** #else
 730:Middlewares/ST/STM32_USB_Host_Library/Core/Src/usbh_ctlreq.c ****       (void)osMessageQueuePut(phost->os_event, &phost->os_msg, 0U, 0U);
 731:Middlewares/ST/STM32_USB_Host_Library/Core/Src/usbh_ctlreq.c **** #endif
 732:Middlewares/ST/STM32_USB_Host_Library/Core/Src/usbh_ctlreq.c **** #endif
 733:Middlewares/ST/STM32_USB_Host_Library/Core/Src/usbh_ctlreq.c ****       break;
 734:Middlewares/ST/STM32_USB_Host_Library/Core/Src/usbh_ctlreq.c **** 
 735:Middlewares/ST/STM32_USB_Host_Library/Core/Src/usbh_ctlreq.c ****     default:
 736:Middlewares/ST/STM32_USB_Host_Library/Core/Src/usbh_ctlreq.c ****       break;
 737:Middlewares/ST/STM32_USB_Host_Library/Core/Src/usbh_ctlreq.c ****   }
 738:Middlewares/ST/STM32_USB_Host_Library/Core/Src/usbh_ctlreq.c ****   return status;
 739:Middlewares/ST/STM32_USB_Host_Library/Core/Src/usbh_ctlreq.c **** }
 740:Middlewares/ST/STM32_USB_Host_Library/Core/Src/usbh_ctlreq.c **** 
 741:Middlewares/ST/STM32_USB_Host_Library/Core/Src/usbh_ctlreq.c **** 
 742:Middlewares/ST/STM32_USB_Host_Library/Core/Src/usbh_ctlreq.c **** /**
 743:Middlewares/ST/STM32_USB_Host_Library/Core/Src/usbh_ctlreq.c ****   * @brief  USBH_HandleControl
 744:Middlewares/ST/STM32_USB_Host_Library/Core/Src/usbh_ctlreq.c ****   *         Handles the USB control transfer state machine
 745:Middlewares/ST/STM32_USB_Host_Library/Core/Src/usbh_ctlreq.c ****   * @param  phost: Host Handle
 746:Middlewares/ST/STM32_USB_Host_Library/Core/Src/usbh_ctlreq.c ****   * @retval USBH Status
 747:Middlewares/ST/STM32_USB_Host_Library/Core/Src/usbh_ctlreq.c ****   */
 748:Middlewares/ST/STM32_USB_Host_Library/Core/Src/usbh_ctlreq.c **** static USBH_StatusTypeDef USBH_HandleControl(USBH_HandleTypeDef *phost)
 749:Middlewares/ST/STM32_USB_Host_Library/Core/Src/usbh_ctlreq.c **** {
 450              		.loc 1 749 1 is_stmt 1 view -0
 451              		.cfi_startproc
 452              		@ args = 0, pretend = 0, frame = 0
 453              		@ frame_needed = 0, uses_anonymous_args = 0
 454              		.loc 1 749 1 is_stmt 0 view .LVU153
 455 0000 30B5     		push	{r4, r5, lr}
 456              		.cfi_def_cfa_offset 12
 457              		.cfi_offset 4, -12
 458              		.cfi_offset 5, -8
 459              		.cfi_offset 14, -4
 460 0002 83B0     		sub	sp, sp, #12
 461              		.cfi_def_cfa_offset 24
 462 0004 0446     		mov	r4, r0
 750:Middlewares/ST/STM32_USB_Host_Library/Core/Src/usbh_ctlreq.c ****   uint8_t direction;
 463              		.loc 1 750 3 is_stmt 1 view .LVU154
 751:Middlewares/ST/STM32_USB_Host_Library/Core/Src/usbh_ctlreq.c ****   USBH_StatusTypeDef status = USBH_BUSY;
 464              		.loc 1 751 3 view .LVU155
 465              	.LVL26:
 752:Middlewares/ST/STM32_USB_Host_Library/Core/Src/usbh_ctlreq.c ****   USBH_URBStateTypeDef URB_Status = USBH_URB_IDLE;
 466              		.loc 1 752 3 view .LVU156
 753:Middlewares/ST/STM32_USB_Host_Library/Core/Src/usbh_ctlreq.c **** 
 754:Middlewares/ST/STM32_USB_Host_Library/Core/Src/usbh_ctlreq.c ****   switch (phost->Control.state)
 467              		.loc 1 754 3 view .LVU157
 468              		.loc 1 754 25 is_stmt 0 view .LVU158
 469 0006 057E     		ldrb	r5, [r0, #24]	@ zero_extendqisi2
 470              		.loc 1 754 3 view .LVU159
ARM GAS  /tmp/ccDTG3e6.s 			page 23


 471 0008 6B1E     		subs	r3, r5, #1
 472 000a 0A2B     		cmp	r3, #10
 473 000c 00F2DC80 		bhi	.L60
 474 0010 DFE803F0 		tbb	[pc, r3]
 475              	.L32:
 476 0014 06       		.byte	(.L42-.L32)/2
 477 0015 10       		.byte	(.L41-.L32)/2
 478 0016 35       		.byte	(.L40-.L32)/2
 479 0017 41       		.byte	(.L39-.L32)/2
 480 0018 54       		.byte	(.L38-.L32)/2
 481 0019 61       		.byte	(.L37-.L32)/2
 482 001a 7C       		.byte	(.L36-.L32)/2
 483 001b 88       		.byte	(.L35-.L32)/2
 484 001c 9B       		.byte	(.L34-.L32)/2
 485 001d A8       		.byte	(.L33-.L32)/2
 486 001e BF       		.byte	(.L31-.L32)/2
 487 001f 00       		.p2align 1
 488              	.L42:
 755:Middlewares/ST/STM32_USB_Host_Library/Core/Src/usbh_ctlreq.c ****   {
 756:Middlewares/ST/STM32_USB_Host_Library/Core/Src/usbh_ctlreq.c ****     case CTRL_SETUP:
 757:Middlewares/ST/STM32_USB_Host_Library/Core/Src/usbh_ctlreq.c ****       /* send a SETUP packet */
 758:Middlewares/ST/STM32_USB_Host_Library/Core/Src/usbh_ctlreq.c ****       (void)USBH_CtlSendSetup(phost, (uint8_t *)(void *)phost->Control.setup.d8,
 489              		.loc 1 758 7 is_stmt 1 view .LVU160
 490              		.loc 1 758 13 is_stmt 0 view .LVU161
 491 0020 4279     		ldrb	r2, [r0, #5]	@ zero_extendqisi2
 492 0022 00F11001 		add	r1, r0, #16
 493 0026 FFF7FEFF 		bl	USBH_CtlSendSetup
 494              	.LVL27:
 759:Middlewares/ST/STM32_USB_Host_Library/Core/Src/usbh_ctlreq.c ****                               phost->Control.pipe_out);
 760:Middlewares/ST/STM32_USB_Host_Library/Core/Src/usbh_ctlreq.c **** 
 761:Middlewares/ST/STM32_USB_Host_Library/Core/Src/usbh_ctlreq.c ****       phost->Control.state = CTRL_SETUP_WAIT;
 495              		.loc 1 761 7 is_stmt 1 view .LVU162
 496              		.loc 1 761 28 is_stmt 0 view .LVU163
 497 002a 0223     		movs	r3, #2
 498 002c 2376     		strb	r3, [r4, #24]
 762:Middlewares/ST/STM32_USB_Host_Library/Core/Src/usbh_ctlreq.c ****       break;
 499              		.loc 1 762 7 is_stmt 1 view .LVU164
 500              	.LVL28:
 501              	.L30:
 763:Middlewares/ST/STM32_USB_Host_Library/Core/Src/usbh_ctlreq.c **** 
 764:Middlewares/ST/STM32_USB_Host_Library/Core/Src/usbh_ctlreq.c ****     case CTRL_SETUP_WAIT:
 765:Middlewares/ST/STM32_USB_Host_Library/Core/Src/usbh_ctlreq.c **** 
 766:Middlewares/ST/STM32_USB_Host_Library/Core/Src/usbh_ctlreq.c ****       URB_Status = USBH_LL_GetURBState(phost, phost->Control.pipe_out);
 767:Middlewares/ST/STM32_USB_Host_Library/Core/Src/usbh_ctlreq.c ****       /* case SETUP packet sent successfully */
 768:Middlewares/ST/STM32_USB_Host_Library/Core/Src/usbh_ctlreq.c ****       if (URB_Status == USBH_URB_DONE)
 769:Middlewares/ST/STM32_USB_Host_Library/Core/Src/usbh_ctlreq.c ****       {
 770:Middlewares/ST/STM32_USB_Host_Library/Core/Src/usbh_ctlreq.c ****         direction = (phost->Control.setup.b.bmRequestType & USB_REQ_DIR_MASK);
 771:Middlewares/ST/STM32_USB_Host_Library/Core/Src/usbh_ctlreq.c **** 
 772:Middlewares/ST/STM32_USB_Host_Library/Core/Src/usbh_ctlreq.c ****         /* check if there is a data stage */
 773:Middlewares/ST/STM32_USB_Host_Library/Core/Src/usbh_ctlreq.c ****         if (phost->Control.setup.b.wLength.w != 0U)
 774:Middlewares/ST/STM32_USB_Host_Library/Core/Src/usbh_ctlreq.c ****         {
 775:Middlewares/ST/STM32_USB_Host_Library/Core/Src/usbh_ctlreq.c ****           if (direction == USB_D2H)
 776:Middlewares/ST/STM32_USB_Host_Library/Core/Src/usbh_ctlreq.c ****           {
 777:Middlewares/ST/STM32_USB_Host_Library/Core/Src/usbh_ctlreq.c ****             /* Data Direction is IN */
 778:Middlewares/ST/STM32_USB_Host_Library/Core/Src/usbh_ctlreq.c ****             phost->Control.state = CTRL_DATA_IN;
 779:Middlewares/ST/STM32_USB_Host_Library/Core/Src/usbh_ctlreq.c ****           }
 780:Middlewares/ST/STM32_USB_Host_Library/Core/Src/usbh_ctlreq.c ****           else
ARM GAS  /tmp/ccDTG3e6.s 			page 24


 781:Middlewares/ST/STM32_USB_Host_Library/Core/Src/usbh_ctlreq.c ****           {
 782:Middlewares/ST/STM32_USB_Host_Library/Core/Src/usbh_ctlreq.c ****             /* Data Direction is OUT */
 783:Middlewares/ST/STM32_USB_Host_Library/Core/Src/usbh_ctlreq.c ****             phost->Control.state = CTRL_DATA_OUT;
 784:Middlewares/ST/STM32_USB_Host_Library/Core/Src/usbh_ctlreq.c ****           }
 785:Middlewares/ST/STM32_USB_Host_Library/Core/Src/usbh_ctlreq.c ****         }
 786:Middlewares/ST/STM32_USB_Host_Library/Core/Src/usbh_ctlreq.c ****         /* No DATA stage */
 787:Middlewares/ST/STM32_USB_Host_Library/Core/Src/usbh_ctlreq.c ****         else
 788:Middlewares/ST/STM32_USB_Host_Library/Core/Src/usbh_ctlreq.c ****         {
 789:Middlewares/ST/STM32_USB_Host_Library/Core/Src/usbh_ctlreq.c ****           /* If there is No Data Transfer Stage */
 790:Middlewares/ST/STM32_USB_Host_Library/Core/Src/usbh_ctlreq.c ****           if (direction == USB_D2H)
 791:Middlewares/ST/STM32_USB_Host_Library/Core/Src/usbh_ctlreq.c ****           {
 792:Middlewares/ST/STM32_USB_Host_Library/Core/Src/usbh_ctlreq.c ****             /* Data Direction is IN */
 793:Middlewares/ST/STM32_USB_Host_Library/Core/Src/usbh_ctlreq.c ****             phost->Control.state = CTRL_STATUS_OUT;
 794:Middlewares/ST/STM32_USB_Host_Library/Core/Src/usbh_ctlreq.c ****           }
 795:Middlewares/ST/STM32_USB_Host_Library/Core/Src/usbh_ctlreq.c ****           else
 796:Middlewares/ST/STM32_USB_Host_Library/Core/Src/usbh_ctlreq.c ****           {
 797:Middlewares/ST/STM32_USB_Host_Library/Core/Src/usbh_ctlreq.c ****             /* Data Direction is OUT */
 798:Middlewares/ST/STM32_USB_Host_Library/Core/Src/usbh_ctlreq.c ****             phost->Control.state = CTRL_STATUS_IN;
 799:Middlewares/ST/STM32_USB_Host_Library/Core/Src/usbh_ctlreq.c ****           }
 800:Middlewares/ST/STM32_USB_Host_Library/Core/Src/usbh_ctlreq.c ****         }
 801:Middlewares/ST/STM32_USB_Host_Library/Core/Src/usbh_ctlreq.c **** 
 802:Middlewares/ST/STM32_USB_Host_Library/Core/Src/usbh_ctlreq.c **** #if (USBH_USE_OS == 1U)
 803:Middlewares/ST/STM32_USB_Host_Library/Core/Src/usbh_ctlreq.c ****         phost->os_msg = (uint32_t)USBH_CONTROL_EVENT;
 804:Middlewares/ST/STM32_USB_Host_Library/Core/Src/usbh_ctlreq.c **** #if (osCMSIS < 0x20000U)
 805:Middlewares/ST/STM32_USB_Host_Library/Core/Src/usbh_ctlreq.c ****         (void)osMessagePut(phost->os_event, phost->os_msg, 0U);
 806:Middlewares/ST/STM32_USB_Host_Library/Core/Src/usbh_ctlreq.c **** #else
 807:Middlewares/ST/STM32_USB_Host_Library/Core/Src/usbh_ctlreq.c ****         (void)osMessageQueuePut(phost->os_event, &phost->os_msg, 0U, 0U);
 808:Middlewares/ST/STM32_USB_Host_Library/Core/Src/usbh_ctlreq.c **** #endif
 809:Middlewares/ST/STM32_USB_Host_Library/Core/Src/usbh_ctlreq.c **** #endif
 810:Middlewares/ST/STM32_USB_Host_Library/Core/Src/usbh_ctlreq.c ****       }
 811:Middlewares/ST/STM32_USB_Host_Library/Core/Src/usbh_ctlreq.c ****       else
 812:Middlewares/ST/STM32_USB_Host_Library/Core/Src/usbh_ctlreq.c ****       {
 813:Middlewares/ST/STM32_USB_Host_Library/Core/Src/usbh_ctlreq.c ****         if ((URB_Status == USBH_URB_ERROR) || (URB_Status == USBH_URB_NOTREADY))
 814:Middlewares/ST/STM32_USB_Host_Library/Core/Src/usbh_ctlreq.c ****         {
 815:Middlewares/ST/STM32_USB_Host_Library/Core/Src/usbh_ctlreq.c ****           phost->Control.state = CTRL_ERROR;
 816:Middlewares/ST/STM32_USB_Host_Library/Core/Src/usbh_ctlreq.c **** 
 817:Middlewares/ST/STM32_USB_Host_Library/Core/Src/usbh_ctlreq.c **** #if (USBH_USE_OS == 1U)
 818:Middlewares/ST/STM32_USB_Host_Library/Core/Src/usbh_ctlreq.c ****           phost->os_msg = (uint32_t)USBH_CONTROL_EVENT;
 819:Middlewares/ST/STM32_USB_Host_Library/Core/Src/usbh_ctlreq.c **** #if (osCMSIS < 0x20000U)
 820:Middlewares/ST/STM32_USB_Host_Library/Core/Src/usbh_ctlreq.c ****           (void)osMessagePut(phost->os_event, phost->os_msg, 0U);
 821:Middlewares/ST/STM32_USB_Host_Library/Core/Src/usbh_ctlreq.c **** #else
 822:Middlewares/ST/STM32_USB_Host_Library/Core/Src/usbh_ctlreq.c ****           (void)osMessageQueuePut(phost->os_event, &phost->os_msg, 0U, 0U);
 823:Middlewares/ST/STM32_USB_Host_Library/Core/Src/usbh_ctlreq.c **** #endif
 824:Middlewares/ST/STM32_USB_Host_Library/Core/Src/usbh_ctlreq.c **** #endif
 825:Middlewares/ST/STM32_USB_Host_Library/Core/Src/usbh_ctlreq.c ****         }
 826:Middlewares/ST/STM32_USB_Host_Library/Core/Src/usbh_ctlreq.c ****       }
 827:Middlewares/ST/STM32_USB_Host_Library/Core/Src/usbh_ctlreq.c ****       break;
 828:Middlewares/ST/STM32_USB_Host_Library/Core/Src/usbh_ctlreq.c **** 
 829:Middlewares/ST/STM32_USB_Host_Library/Core/Src/usbh_ctlreq.c ****     case CTRL_DATA_IN:
 830:Middlewares/ST/STM32_USB_Host_Library/Core/Src/usbh_ctlreq.c ****       /* Issue an IN token */
 831:Middlewares/ST/STM32_USB_Host_Library/Core/Src/usbh_ctlreq.c ****       phost->Control.timer = (uint16_t)phost->Timer;
 832:Middlewares/ST/STM32_USB_Host_Library/Core/Src/usbh_ctlreq.c ****       (void)USBH_CtlReceiveData(phost, phost->Control.buff,
 833:Middlewares/ST/STM32_USB_Host_Library/Core/Src/usbh_ctlreq.c ****                                 phost->Control.length, phost->Control.pipe_in);
 834:Middlewares/ST/STM32_USB_Host_Library/Core/Src/usbh_ctlreq.c **** 
 835:Middlewares/ST/STM32_USB_Host_Library/Core/Src/usbh_ctlreq.c ****       phost->Control.state = CTRL_DATA_IN_WAIT;
 836:Middlewares/ST/STM32_USB_Host_Library/Core/Src/usbh_ctlreq.c ****       break;
 837:Middlewares/ST/STM32_USB_Host_Library/Core/Src/usbh_ctlreq.c **** 
ARM GAS  /tmp/ccDTG3e6.s 			page 25


 838:Middlewares/ST/STM32_USB_Host_Library/Core/Src/usbh_ctlreq.c ****     case CTRL_DATA_IN_WAIT:
 839:Middlewares/ST/STM32_USB_Host_Library/Core/Src/usbh_ctlreq.c **** 
 840:Middlewares/ST/STM32_USB_Host_Library/Core/Src/usbh_ctlreq.c ****       URB_Status = USBH_LL_GetURBState(phost, phost->Control.pipe_in);
 841:Middlewares/ST/STM32_USB_Host_Library/Core/Src/usbh_ctlreq.c **** 
 842:Middlewares/ST/STM32_USB_Host_Library/Core/Src/usbh_ctlreq.c ****       /* check is DATA packet transferred successfully */
 843:Middlewares/ST/STM32_USB_Host_Library/Core/Src/usbh_ctlreq.c ****       if (URB_Status == USBH_URB_DONE)
 844:Middlewares/ST/STM32_USB_Host_Library/Core/Src/usbh_ctlreq.c ****       {
 845:Middlewares/ST/STM32_USB_Host_Library/Core/Src/usbh_ctlreq.c ****         phost->Control.state = CTRL_STATUS_OUT;
 846:Middlewares/ST/STM32_USB_Host_Library/Core/Src/usbh_ctlreq.c **** 
 847:Middlewares/ST/STM32_USB_Host_Library/Core/Src/usbh_ctlreq.c **** #if (USBH_USE_OS == 1U)
 848:Middlewares/ST/STM32_USB_Host_Library/Core/Src/usbh_ctlreq.c ****         phost->os_msg = (uint32_t)USBH_CONTROL_EVENT;
 849:Middlewares/ST/STM32_USB_Host_Library/Core/Src/usbh_ctlreq.c **** #if (osCMSIS < 0x20000U)
 850:Middlewares/ST/STM32_USB_Host_Library/Core/Src/usbh_ctlreq.c ****         (void)osMessagePut(phost->os_event, phost->os_msg, 0U);
 851:Middlewares/ST/STM32_USB_Host_Library/Core/Src/usbh_ctlreq.c **** #else
 852:Middlewares/ST/STM32_USB_Host_Library/Core/Src/usbh_ctlreq.c ****         (void)osMessageQueuePut(phost->os_event, &phost->os_msg, 0U, 0U);
 853:Middlewares/ST/STM32_USB_Host_Library/Core/Src/usbh_ctlreq.c **** #endif
 854:Middlewares/ST/STM32_USB_Host_Library/Core/Src/usbh_ctlreq.c **** #endif
 855:Middlewares/ST/STM32_USB_Host_Library/Core/Src/usbh_ctlreq.c ****       }
 856:Middlewares/ST/STM32_USB_Host_Library/Core/Src/usbh_ctlreq.c **** 
 857:Middlewares/ST/STM32_USB_Host_Library/Core/Src/usbh_ctlreq.c ****       /* manage error cases*/
 858:Middlewares/ST/STM32_USB_Host_Library/Core/Src/usbh_ctlreq.c ****       if (URB_Status == USBH_URB_STALL)
 859:Middlewares/ST/STM32_USB_Host_Library/Core/Src/usbh_ctlreq.c ****       {
 860:Middlewares/ST/STM32_USB_Host_Library/Core/Src/usbh_ctlreq.c ****         /* In stall case, return to previous machine state*/
 861:Middlewares/ST/STM32_USB_Host_Library/Core/Src/usbh_ctlreq.c ****         status = USBH_NOT_SUPPORTED;
 862:Middlewares/ST/STM32_USB_Host_Library/Core/Src/usbh_ctlreq.c **** 
 863:Middlewares/ST/STM32_USB_Host_Library/Core/Src/usbh_ctlreq.c **** #if (USBH_USE_OS == 1U)
 864:Middlewares/ST/STM32_USB_Host_Library/Core/Src/usbh_ctlreq.c ****         phost->os_msg = (uint32_t)USBH_CONTROL_EVENT;
 865:Middlewares/ST/STM32_USB_Host_Library/Core/Src/usbh_ctlreq.c **** #if (osCMSIS < 0x20000U)
 866:Middlewares/ST/STM32_USB_Host_Library/Core/Src/usbh_ctlreq.c ****         (void)osMessagePut(phost->os_event, phost->os_msg, 0U);
 867:Middlewares/ST/STM32_USB_Host_Library/Core/Src/usbh_ctlreq.c **** #else
 868:Middlewares/ST/STM32_USB_Host_Library/Core/Src/usbh_ctlreq.c ****         (void)osMessageQueuePut(phost->os_event, &phost->os_msg, 0U, 0U);
 869:Middlewares/ST/STM32_USB_Host_Library/Core/Src/usbh_ctlreq.c **** #endif
 870:Middlewares/ST/STM32_USB_Host_Library/Core/Src/usbh_ctlreq.c **** #endif
 871:Middlewares/ST/STM32_USB_Host_Library/Core/Src/usbh_ctlreq.c ****       }
 872:Middlewares/ST/STM32_USB_Host_Library/Core/Src/usbh_ctlreq.c ****       else
 873:Middlewares/ST/STM32_USB_Host_Library/Core/Src/usbh_ctlreq.c ****       {
 874:Middlewares/ST/STM32_USB_Host_Library/Core/Src/usbh_ctlreq.c ****         if (URB_Status == USBH_URB_ERROR)
 875:Middlewares/ST/STM32_USB_Host_Library/Core/Src/usbh_ctlreq.c ****         {
 876:Middlewares/ST/STM32_USB_Host_Library/Core/Src/usbh_ctlreq.c ****           /* Device error */
 877:Middlewares/ST/STM32_USB_Host_Library/Core/Src/usbh_ctlreq.c ****           phost->Control.state = CTRL_ERROR;
 878:Middlewares/ST/STM32_USB_Host_Library/Core/Src/usbh_ctlreq.c **** 
 879:Middlewares/ST/STM32_USB_Host_Library/Core/Src/usbh_ctlreq.c **** #if (USBH_USE_OS == 1U)
 880:Middlewares/ST/STM32_USB_Host_Library/Core/Src/usbh_ctlreq.c ****           phost->os_msg = (uint32_t)USBH_CONTROL_EVENT;
 881:Middlewares/ST/STM32_USB_Host_Library/Core/Src/usbh_ctlreq.c **** #if (osCMSIS < 0x20000U)
 882:Middlewares/ST/STM32_USB_Host_Library/Core/Src/usbh_ctlreq.c ****           (void)osMessagePut(phost->os_event, phost->os_msg, 0U);
 883:Middlewares/ST/STM32_USB_Host_Library/Core/Src/usbh_ctlreq.c **** #else
 884:Middlewares/ST/STM32_USB_Host_Library/Core/Src/usbh_ctlreq.c ****           (void)osMessageQueuePut(phost->os_event, &phost->os_msg, 0U, 0U);
 885:Middlewares/ST/STM32_USB_Host_Library/Core/Src/usbh_ctlreq.c **** #endif
 886:Middlewares/ST/STM32_USB_Host_Library/Core/Src/usbh_ctlreq.c **** #endif
 887:Middlewares/ST/STM32_USB_Host_Library/Core/Src/usbh_ctlreq.c ****         }
 888:Middlewares/ST/STM32_USB_Host_Library/Core/Src/usbh_ctlreq.c ****       }
 889:Middlewares/ST/STM32_USB_Host_Library/Core/Src/usbh_ctlreq.c ****       break;
 890:Middlewares/ST/STM32_USB_Host_Library/Core/Src/usbh_ctlreq.c **** 
 891:Middlewares/ST/STM32_USB_Host_Library/Core/Src/usbh_ctlreq.c ****     case CTRL_DATA_OUT:
 892:Middlewares/ST/STM32_USB_Host_Library/Core/Src/usbh_ctlreq.c **** 
 893:Middlewares/ST/STM32_USB_Host_Library/Core/Src/usbh_ctlreq.c ****       (void)USBH_CtlSendData(phost, phost->Control.buff, phost->Control.length,
 894:Middlewares/ST/STM32_USB_Host_Library/Core/Src/usbh_ctlreq.c ****                              phost->Control.pipe_out, 1U);
ARM GAS  /tmp/ccDTG3e6.s 			page 26


 895:Middlewares/ST/STM32_USB_Host_Library/Core/Src/usbh_ctlreq.c **** 
 896:Middlewares/ST/STM32_USB_Host_Library/Core/Src/usbh_ctlreq.c ****       phost->Control.timer = (uint16_t)phost->Timer;
 897:Middlewares/ST/STM32_USB_Host_Library/Core/Src/usbh_ctlreq.c ****       phost->Control.state = CTRL_DATA_OUT_WAIT;
 898:Middlewares/ST/STM32_USB_Host_Library/Core/Src/usbh_ctlreq.c ****       break;
 899:Middlewares/ST/STM32_USB_Host_Library/Core/Src/usbh_ctlreq.c **** 
 900:Middlewares/ST/STM32_USB_Host_Library/Core/Src/usbh_ctlreq.c ****     case CTRL_DATA_OUT_WAIT:
 901:Middlewares/ST/STM32_USB_Host_Library/Core/Src/usbh_ctlreq.c **** 
 902:Middlewares/ST/STM32_USB_Host_Library/Core/Src/usbh_ctlreq.c ****       URB_Status = USBH_LL_GetURBState(phost, phost->Control.pipe_out);
 903:Middlewares/ST/STM32_USB_Host_Library/Core/Src/usbh_ctlreq.c **** 
 904:Middlewares/ST/STM32_USB_Host_Library/Core/Src/usbh_ctlreq.c ****       if (URB_Status == USBH_URB_DONE)
 905:Middlewares/ST/STM32_USB_Host_Library/Core/Src/usbh_ctlreq.c ****       {
 906:Middlewares/ST/STM32_USB_Host_Library/Core/Src/usbh_ctlreq.c ****         /* If the Setup Pkt is sent successful, then change the state */
 907:Middlewares/ST/STM32_USB_Host_Library/Core/Src/usbh_ctlreq.c ****         phost->Control.state = CTRL_STATUS_IN;
 908:Middlewares/ST/STM32_USB_Host_Library/Core/Src/usbh_ctlreq.c **** 
 909:Middlewares/ST/STM32_USB_Host_Library/Core/Src/usbh_ctlreq.c **** #if (USBH_USE_OS == 1U)
 910:Middlewares/ST/STM32_USB_Host_Library/Core/Src/usbh_ctlreq.c ****         phost->os_msg = (uint32_t)USBH_CONTROL_EVENT;
 911:Middlewares/ST/STM32_USB_Host_Library/Core/Src/usbh_ctlreq.c **** #if (osCMSIS < 0x20000U)
 912:Middlewares/ST/STM32_USB_Host_Library/Core/Src/usbh_ctlreq.c ****         (void)osMessagePut(phost->os_event, phost->os_msg, 0U);
 913:Middlewares/ST/STM32_USB_Host_Library/Core/Src/usbh_ctlreq.c **** #else
 914:Middlewares/ST/STM32_USB_Host_Library/Core/Src/usbh_ctlreq.c ****         (void)osMessageQueuePut(phost->os_event, &phost->os_msg, 0U, 0U);
 915:Middlewares/ST/STM32_USB_Host_Library/Core/Src/usbh_ctlreq.c **** #endif
 916:Middlewares/ST/STM32_USB_Host_Library/Core/Src/usbh_ctlreq.c **** #endif
 917:Middlewares/ST/STM32_USB_Host_Library/Core/Src/usbh_ctlreq.c ****       }
 918:Middlewares/ST/STM32_USB_Host_Library/Core/Src/usbh_ctlreq.c **** 
 919:Middlewares/ST/STM32_USB_Host_Library/Core/Src/usbh_ctlreq.c ****       /* handle error cases */
 920:Middlewares/ST/STM32_USB_Host_Library/Core/Src/usbh_ctlreq.c ****       else if (URB_Status == USBH_URB_STALL)
 921:Middlewares/ST/STM32_USB_Host_Library/Core/Src/usbh_ctlreq.c ****       {
 922:Middlewares/ST/STM32_USB_Host_Library/Core/Src/usbh_ctlreq.c ****         /* In stall case, return to previous machine state*/
 923:Middlewares/ST/STM32_USB_Host_Library/Core/Src/usbh_ctlreq.c ****         phost->Control.state = CTRL_STALLED;
 924:Middlewares/ST/STM32_USB_Host_Library/Core/Src/usbh_ctlreq.c ****         status = USBH_NOT_SUPPORTED;
 925:Middlewares/ST/STM32_USB_Host_Library/Core/Src/usbh_ctlreq.c **** 
 926:Middlewares/ST/STM32_USB_Host_Library/Core/Src/usbh_ctlreq.c **** #if (USBH_USE_OS == 1U)
 927:Middlewares/ST/STM32_USB_Host_Library/Core/Src/usbh_ctlreq.c ****         phost->os_msg = (uint32_t)USBH_CONTROL_EVENT;
 928:Middlewares/ST/STM32_USB_Host_Library/Core/Src/usbh_ctlreq.c **** #if (osCMSIS < 0x20000U)
 929:Middlewares/ST/STM32_USB_Host_Library/Core/Src/usbh_ctlreq.c ****         (void)osMessagePut(phost->os_event, phost->os_msg, 0U);
 930:Middlewares/ST/STM32_USB_Host_Library/Core/Src/usbh_ctlreq.c **** #else
 931:Middlewares/ST/STM32_USB_Host_Library/Core/Src/usbh_ctlreq.c ****         (void)osMessageQueuePut(phost->os_event, &phost->os_msg, 0U, 0U);
 932:Middlewares/ST/STM32_USB_Host_Library/Core/Src/usbh_ctlreq.c **** #endif
 933:Middlewares/ST/STM32_USB_Host_Library/Core/Src/usbh_ctlreq.c **** #endif
 934:Middlewares/ST/STM32_USB_Host_Library/Core/Src/usbh_ctlreq.c ****       }
 935:Middlewares/ST/STM32_USB_Host_Library/Core/Src/usbh_ctlreq.c ****       else if (URB_Status == USBH_URB_NOTREADY)
 936:Middlewares/ST/STM32_USB_Host_Library/Core/Src/usbh_ctlreq.c ****       {
 937:Middlewares/ST/STM32_USB_Host_Library/Core/Src/usbh_ctlreq.c ****         /* Nack received from device */
 938:Middlewares/ST/STM32_USB_Host_Library/Core/Src/usbh_ctlreq.c ****         phost->Control.state = CTRL_DATA_OUT;
 939:Middlewares/ST/STM32_USB_Host_Library/Core/Src/usbh_ctlreq.c **** 
 940:Middlewares/ST/STM32_USB_Host_Library/Core/Src/usbh_ctlreq.c **** #if (USBH_USE_OS == 1U)
 941:Middlewares/ST/STM32_USB_Host_Library/Core/Src/usbh_ctlreq.c ****         phost->os_msg = (uint32_t)USBH_CONTROL_EVENT;
 942:Middlewares/ST/STM32_USB_Host_Library/Core/Src/usbh_ctlreq.c **** #if (osCMSIS < 0x20000U)
 943:Middlewares/ST/STM32_USB_Host_Library/Core/Src/usbh_ctlreq.c ****         (void)osMessagePut(phost->os_event, phost->os_msg, 0U);
 944:Middlewares/ST/STM32_USB_Host_Library/Core/Src/usbh_ctlreq.c **** #else
 945:Middlewares/ST/STM32_USB_Host_Library/Core/Src/usbh_ctlreq.c ****         (void)osMessageQueuePut(phost->os_event, &phost->os_msg, 0U, 0U);
 946:Middlewares/ST/STM32_USB_Host_Library/Core/Src/usbh_ctlreq.c **** #endif
 947:Middlewares/ST/STM32_USB_Host_Library/Core/Src/usbh_ctlreq.c **** #endif
 948:Middlewares/ST/STM32_USB_Host_Library/Core/Src/usbh_ctlreq.c ****       }
 949:Middlewares/ST/STM32_USB_Host_Library/Core/Src/usbh_ctlreq.c ****       else
 950:Middlewares/ST/STM32_USB_Host_Library/Core/Src/usbh_ctlreq.c ****       {
 951:Middlewares/ST/STM32_USB_Host_Library/Core/Src/usbh_ctlreq.c ****         if (URB_Status == USBH_URB_ERROR)
ARM GAS  /tmp/ccDTG3e6.s 			page 27


 952:Middlewares/ST/STM32_USB_Host_Library/Core/Src/usbh_ctlreq.c ****         {
 953:Middlewares/ST/STM32_USB_Host_Library/Core/Src/usbh_ctlreq.c ****           /* device error */
 954:Middlewares/ST/STM32_USB_Host_Library/Core/Src/usbh_ctlreq.c ****           phost->Control.state = CTRL_ERROR;
 955:Middlewares/ST/STM32_USB_Host_Library/Core/Src/usbh_ctlreq.c ****           status = USBH_FAIL;
 956:Middlewares/ST/STM32_USB_Host_Library/Core/Src/usbh_ctlreq.c **** 
 957:Middlewares/ST/STM32_USB_Host_Library/Core/Src/usbh_ctlreq.c **** #if (USBH_USE_OS == 1U)
 958:Middlewares/ST/STM32_USB_Host_Library/Core/Src/usbh_ctlreq.c ****           phost->os_msg = (uint32_t)USBH_CONTROL_EVENT;
 959:Middlewares/ST/STM32_USB_Host_Library/Core/Src/usbh_ctlreq.c **** #if (osCMSIS < 0x20000U)
 960:Middlewares/ST/STM32_USB_Host_Library/Core/Src/usbh_ctlreq.c ****           (void)osMessagePut(phost->os_event, phost->os_msg, 0U);
 961:Middlewares/ST/STM32_USB_Host_Library/Core/Src/usbh_ctlreq.c **** #else
 962:Middlewares/ST/STM32_USB_Host_Library/Core/Src/usbh_ctlreq.c ****           (void)osMessageQueuePut(phost->os_event, &phost->os_msg, 0U, 0U);
 963:Middlewares/ST/STM32_USB_Host_Library/Core/Src/usbh_ctlreq.c **** #endif
 964:Middlewares/ST/STM32_USB_Host_Library/Core/Src/usbh_ctlreq.c **** #endif
 965:Middlewares/ST/STM32_USB_Host_Library/Core/Src/usbh_ctlreq.c ****         }
 966:Middlewares/ST/STM32_USB_Host_Library/Core/Src/usbh_ctlreq.c ****       }
 967:Middlewares/ST/STM32_USB_Host_Library/Core/Src/usbh_ctlreq.c ****       break;
 968:Middlewares/ST/STM32_USB_Host_Library/Core/Src/usbh_ctlreq.c **** 
 969:Middlewares/ST/STM32_USB_Host_Library/Core/Src/usbh_ctlreq.c ****     case CTRL_STATUS_IN:
 970:Middlewares/ST/STM32_USB_Host_Library/Core/Src/usbh_ctlreq.c ****       /* Send 0 bytes out packet */
 971:Middlewares/ST/STM32_USB_Host_Library/Core/Src/usbh_ctlreq.c ****       (void)USBH_CtlReceiveData(phost, NULL, 0U, phost->Control.pipe_in);
 972:Middlewares/ST/STM32_USB_Host_Library/Core/Src/usbh_ctlreq.c **** 
 973:Middlewares/ST/STM32_USB_Host_Library/Core/Src/usbh_ctlreq.c ****       phost->Control.timer = (uint16_t)phost->Timer;
 974:Middlewares/ST/STM32_USB_Host_Library/Core/Src/usbh_ctlreq.c ****       phost->Control.state = CTRL_STATUS_IN_WAIT;
 975:Middlewares/ST/STM32_USB_Host_Library/Core/Src/usbh_ctlreq.c **** 
 976:Middlewares/ST/STM32_USB_Host_Library/Core/Src/usbh_ctlreq.c ****       break;
 977:Middlewares/ST/STM32_USB_Host_Library/Core/Src/usbh_ctlreq.c **** 
 978:Middlewares/ST/STM32_USB_Host_Library/Core/Src/usbh_ctlreq.c ****     case CTRL_STATUS_IN_WAIT:
 979:Middlewares/ST/STM32_USB_Host_Library/Core/Src/usbh_ctlreq.c **** 
 980:Middlewares/ST/STM32_USB_Host_Library/Core/Src/usbh_ctlreq.c ****       URB_Status = USBH_LL_GetURBState(phost, phost->Control.pipe_in);
 981:Middlewares/ST/STM32_USB_Host_Library/Core/Src/usbh_ctlreq.c **** 
 982:Middlewares/ST/STM32_USB_Host_Library/Core/Src/usbh_ctlreq.c ****       if (URB_Status == USBH_URB_DONE)
 983:Middlewares/ST/STM32_USB_Host_Library/Core/Src/usbh_ctlreq.c ****       {
 984:Middlewares/ST/STM32_USB_Host_Library/Core/Src/usbh_ctlreq.c ****         /* Control transfers completed, Exit the State Machine */
 985:Middlewares/ST/STM32_USB_Host_Library/Core/Src/usbh_ctlreq.c ****         phost->Control.state = CTRL_COMPLETE;
 986:Middlewares/ST/STM32_USB_Host_Library/Core/Src/usbh_ctlreq.c ****         status = USBH_OK;
 987:Middlewares/ST/STM32_USB_Host_Library/Core/Src/usbh_ctlreq.c **** 
 988:Middlewares/ST/STM32_USB_Host_Library/Core/Src/usbh_ctlreq.c **** #if (USBH_USE_OS == 1U)
 989:Middlewares/ST/STM32_USB_Host_Library/Core/Src/usbh_ctlreq.c ****         phost->os_msg = (uint32_t)USBH_CONTROL_EVENT;
 990:Middlewares/ST/STM32_USB_Host_Library/Core/Src/usbh_ctlreq.c **** #if (osCMSIS < 0x20000U)
 991:Middlewares/ST/STM32_USB_Host_Library/Core/Src/usbh_ctlreq.c ****         (void)osMessagePut(phost->os_event, phost->os_msg, 0U);
 992:Middlewares/ST/STM32_USB_Host_Library/Core/Src/usbh_ctlreq.c **** #else
 993:Middlewares/ST/STM32_USB_Host_Library/Core/Src/usbh_ctlreq.c ****         (void)osMessageQueuePut(phost->os_event, &phost->os_msg, 0U, 0U);
 994:Middlewares/ST/STM32_USB_Host_Library/Core/Src/usbh_ctlreq.c **** #endif
 995:Middlewares/ST/STM32_USB_Host_Library/Core/Src/usbh_ctlreq.c **** #endif
 996:Middlewares/ST/STM32_USB_Host_Library/Core/Src/usbh_ctlreq.c ****       }
 997:Middlewares/ST/STM32_USB_Host_Library/Core/Src/usbh_ctlreq.c ****       else if (URB_Status == USBH_URB_ERROR)
 998:Middlewares/ST/STM32_USB_Host_Library/Core/Src/usbh_ctlreq.c ****       {
 999:Middlewares/ST/STM32_USB_Host_Library/Core/Src/usbh_ctlreq.c ****         phost->Control.state = CTRL_ERROR;
1000:Middlewares/ST/STM32_USB_Host_Library/Core/Src/usbh_ctlreq.c **** 
1001:Middlewares/ST/STM32_USB_Host_Library/Core/Src/usbh_ctlreq.c **** #if (USBH_USE_OS == 1U)
1002:Middlewares/ST/STM32_USB_Host_Library/Core/Src/usbh_ctlreq.c ****         phost->os_msg = (uint32_t)USBH_CONTROL_EVENT;
1003:Middlewares/ST/STM32_USB_Host_Library/Core/Src/usbh_ctlreq.c **** #if (osCMSIS < 0x20000U)
1004:Middlewares/ST/STM32_USB_Host_Library/Core/Src/usbh_ctlreq.c ****         (void)osMessagePut(phost->os_event, phost->os_msg, 0U);
1005:Middlewares/ST/STM32_USB_Host_Library/Core/Src/usbh_ctlreq.c **** #else
1006:Middlewares/ST/STM32_USB_Host_Library/Core/Src/usbh_ctlreq.c ****         (void)osMessageQueuePut(phost->os_event, &phost->os_msg, 0U, 0U);
1007:Middlewares/ST/STM32_USB_Host_Library/Core/Src/usbh_ctlreq.c **** #endif
1008:Middlewares/ST/STM32_USB_Host_Library/Core/Src/usbh_ctlreq.c **** #endif
ARM GAS  /tmp/ccDTG3e6.s 			page 28


1009:Middlewares/ST/STM32_USB_Host_Library/Core/Src/usbh_ctlreq.c ****       }
1010:Middlewares/ST/STM32_USB_Host_Library/Core/Src/usbh_ctlreq.c ****       else
1011:Middlewares/ST/STM32_USB_Host_Library/Core/Src/usbh_ctlreq.c ****       {
1012:Middlewares/ST/STM32_USB_Host_Library/Core/Src/usbh_ctlreq.c ****         if (URB_Status == USBH_URB_STALL)
1013:Middlewares/ST/STM32_USB_Host_Library/Core/Src/usbh_ctlreq.c ****         {
1014:Middlewares/ST/STM32_USB_Host_Library/Core/Src/usbh_ctlreq.c ****           /* Control transfers completed, Exit the State Machine */
1015:Middlewares/ST/STM32_USB_Host_Library/Core/Src/usbh_ctlreq.c ****           status = USBH_NOT_SUPPORTED;
1016:Middlewares/ST/STM32_USB_Host_Library/Core/Src/usbh_ctlreq.c **** 
1017:Middlewares/ST/STM32_USB_Host_Library/Core/Src/usbh_ctlreq.c **** #if (USBH_USE_OS == 1U)
1018:Middlewares/ST/STM32_USB_Host_Library/Core/Src/usbh_ctlreq.c ****           phost->os_msg = (uint32_t)USBH_CONTROL_EVENT;
1019:Middlewares/ST/STM32_USB_Host_Library/Core/Src/usbh_ctlreq.c **** #if (osCMSIS < 0x20000U)
1020:Middlewares/ST/STM32_USB_Host_Library/Core/Src/usbh_ctlreq.c ****           (void)osMessagePut(phost->os_event, phost->os_msg, 0U);
1021:Middlewares/ST/STM32_USB_Host_Library/Core/Src/usbh_ctlreq.c **** #else
1022:Middlewares/ST/STM32_USB_Host_Library/Core/Src/usbh_ctlreq.c ****           (void)osMessageQueuePut(phost->os_event, &phost->os_msg, 0U, 0U);
1023:Middlewares/ST/STM32_USB_Host_Library/Core/Src/usbh_ctlreq.c **** #endif
1024:Middlewares/ST/STM32_USB_Host_Library/Core/Src/usbh_ctlreq.c **** #endif
1025:Middlewares/ST/STM32_USB_Host_Library/Core/Src/usbh_ctlreq.c ****         }
1026:Middlewares/ST/STM32_USB_Host_Library/Core/Src/usbh_ctlreq.c ****       }
1027:Middlewares/ST/STM32_USB_Host_Library/Core/Src/usbh_ctlreq.c ****       break;
1028:Middlewares/ST/STM32_USB_Host_Library/Core/Src/usbh_ctlreq.c **** 
1029:Middlewares/ST/STM32_USB_Host_Library/Core/Src/usbh_ctlreq.c ****     case CTRL_STATUS_OUT:
1030:Middlewares/ST/STM32_USB_Host_Library/Core/Src/usbh_ctlreq.c ****       (void)USBH_CtlSendData(phost, NULL, 0U, phost->Control.pipe_out, 1U);
1031:Middlewares/ST/STM32_USB_Host_Library/Core/Src/usbh_ctlreq.c **** 
1032:Middlewares/ST/STM32_USB_Host_Library/Core/Src/usbh_ctlreq.c ****       phost->Control.timer = (uint16_t)phost->Timer;
1033:Middlewares/ST/STM32_USB_Host_Library/Core/Src/usbh_ctlreq.c ****       phost->Control.state = CTRL_STATUS_OUT_WAIT;
1034:Middlewares/ST/STM32_USB_Host_Library/Core/Src/usbh_ctlreq.c ****       break;
1035:Middlewares/ST/STM32_USB_Host_Library/Core/Src/usbh_ctlreq.c **** 
1036:Middlewares/ST/STM32_USB_Host_Library/Core/Src/usbh_ctlreq.c ****     case CTRL_STATUS_OUT_WAIT:
1037:Middlewares/ST/STM32_USB_Host_Library/Core/Src/usbh_ctlreq.c ****       URB_Status = USBH_LL_GetURBState(phost, phost->Control.pipe_out);
1038:Middlewares/ST/STM32_USB_Host_Library/Core/Src/usbh_ctlreq.c ****       if (URB_Status == USBH_URB_DONE)
1039:Middlewares/ST/STM32_USB_Host_Library/Core/Src/usbh_ctlreq.c ****       {
1040:Middlewares/ST/STM32_USB_Host_Library/Core/Src/usbh_ctlreq.c ****         status = USBH_OK;
1041:Middlewares/ST/STM32_USB_Host_Library/Core/Src/usbh_ctlreq.c ****         phost->Control.state = CTRL_COMPLETE;
1042:Middlewares/ST/STM32_USB_Host_Library/Core/Src/usbh_ctlreq.c **** 
1043:Middlewares/ST/STM32_USB_Host_Library/Core/Src/usbh_ctlreq.c **** #if (USBH_USE_OS == 1U)
1044:Middlewares/ST/STM32_USB_Host_Library/Core/Src/usbh_ctlreq.c ****         phost->os_msg = (uint32_t)USBH_CONTROL_EVENT;
1045:Middlewares/ST/STM32_USB_Host_Library/Core/Src/usbh_ctlreq.c **** #if (osCMSIS < 0x20000U)
1046:Middlewares/ST/STM32_USB_Host_Library/Core/Src/usbh_ctlreq.c ****         (void)osMessagePut(phost->os_event, phost->os_msg, 0U);
1047:Middlewares/ST/STM32_USB_Host_Library/Core/Src/usbh_ctlreq.c **** #else
1048:Middlewares/ST/STM32_USB_Host_Library/Core/Src/usbh_ctlreq.c ****         (void)osMessageQueuePut(phost->os_event, &phost->os_msg, 0U, 0U);
1049:Middlewares/ST/STM32_USB_Host_Library/Core/Src/usbh_ctlreq.c **** #endif
1050:Middlewares/ST/STM32_USB_Host_Library/Core/Src/usbh_ctlreq.c **** #endif
1051:Middlewares/ST/STM32_USB_Host_Library/Core/Src/usbh_ctlreq.c ****       }
1052:Middlewares/ST/STM32_USB_Host_Library/Core/Src/usbh_ctlreq.c ****       else if (URB_Status == USBH_URB_NOTREADY)
1053:Middlewares/ST/STM32_USB_Host_Library/Core/Src/usbh_ctlreq.c ****       {
1054:Middlewares/ST/STM32_USB_Host_Library/Core/Src/usbh_ctlreq.c ****         phost->Control.state = CTRL_STATUS_OUT;
1055:Middlewares/ST/STM32_USB_Host_Library/Core/Src/usbh_ctlreq.c **** 
1056:Middlewares/ST/STM32_USB_Host_Library/Core/Src/usbh_ctlreq.c **** #if (USBH_USE_OS == 1U)
1057:Middlewares/ST/STM32_USB_Host_Library/Core/Src/usbh_ctlreq.c ****         phost->os_msg = (uint32_t)USBH_CONTROL_EVENT;
1058:Middlewares/ST/STM32_USB_Host_Library/Core/Src/usbh_ctlreq.c **** #if (osCMSIS < 0x20000U)
1059:Middlewares/ST/STM32_USB_Host_Library/Core/Src/usbh_ctlreq.c ****         (void)osMessagePut(phost->os_event, phost->os_msg, 0U);
1060:Middlewares/ST/STM32_USB_Host_Library/Core/Src/usbh_ctlreq.c **** #else
1061:Middlewares/ST/STM32_USB_Host_Library/Core/Src/usbh_ctlreq.c ****         (void)osMessageQueuePut(phost->os_event, &phost->os_msg, 0U, 0U);
1062:Middlewares/ST/STM32_USB_Host_Library/Core/Src/usbh_ctlreq.c **** #endif
1063:Middlewares/ST/STM32_USB_Host_Library/Core/Src/usbh_ctlreq.c **** #endif
1064:Middlewares/ST/STM32_USB_Host_Library/Core/Src/usbh_ctlreq.c ****       }
1065:Middlewares/ST/STM32_USB_Host_Library/Core/Src/usbh_ctlreq.c ****       else
ARM GAS  /tmp/ccDTG3e6.s 			page 29


1066:Middlewares/ST/STM32_USB_Host_Library/Core/Src/usbh_ctlreq.c ****       {
1067:Middlewares/ST/STM32_USB_Host_Library/Core/Src/usbh_ctlreq.c ****         if (URB_Status == USBH_URB_ERROR)
1068:Middlewares/ST/STM32_USB_Host_Library/Core/Src/usbh_ctlreq.c ****         {
1069:Middlewares/ST/STM32_USB_Host_Library/Core/Src/usbh_ctlreq.c ****           phost->Control.state = CTRL_ERROR;
1070:Middlewares/ST/STM32_USB_Host_Library/Core/Src/usbh_ctlreq.c **** 
1071:Middlewares/ST/STM32_USB_Host_Library/Core/Src/usbh_ctlreq.c **** #if (USBH_USE_OS == 1U)
1072:Middlewares/ST/STM32_USB_Host_Library/Core/Src/usbh_ctlreq.c ****           phost->os_msg = (uint32_t)USBH_CONTROL_EVENT;
1073:Middlewares/ST/STM32_USB_Host_Library/Core/Src/usbh_ctlreq.c **** #if (osCMSIS < 0x20000U)
1074:Middlewares/ST/STM32_USB_Host_Library/Core/Src/usbh_ctlreq.c ****           (void)osMessagePut(phost->os_event, phost->os_msg, 0U);
1075:Middlewares/ST/STM32_USB_Host_Library/Core/Src/usbh_ctlreq.c **** #else
1076:Middlewares/ST/STM32_USB_Host_Library/Core/Src/usbh_ctlreq.c ****           (void)osMessageQueuePut(phost->os_event, &phost->os_msg, 0U, 0U);
1077:Middlewares/ST/STM32_USB_Host_Library/Core/Src/usbh_ctlreq.c **** #endif
1078:Middlewares/ST/STM32_USB_Host_Library/Core/Src/usbh_ctlreq.c **** #endif
1079:Middlewares/ST/STM32_USB_Host_Library/Core/Src/usbh_ctlreq.c ****         }
1080:Middlewares/ST/STM32_USB_Host_Library/Core/Src/usbh_ctlreq.c ****       }
1081:Middlewares/ST/STM32_USB_Host_Library/Core/Src/usbh_ctlreq.c ****       break;
1082:Middlewares/ST/STM32_USB_Host_Library/Core/Src/usbh_ctlreq.c **** 
1083:Middlewares/ST/STM32_USB_Host_Library/Core/Src/usbh_ctlreq.c ****     case CTRL_ERROR:
1084:Middlewares/ST/STM32_USB_Host_Library/Core/Src/usbh_ctlreq.c ****       /*
1085:Middlewares/ST/STM32_USB_Host_Library/Core/Src/usbh_ctlreq.c ****       After a halt condition is encountered or an error is detected by the
1086:Middlewares/ST/STM32_USB_Host_Library/Core/Src/usbh_ctlreq.c ****       host, a control endpoint is allowed to recover by accepting the next Setup
1087:Middlewares/ST/STM32_USB_Host_Library/Core/Src/usbh_ctlreq.c ****       PID; i.e., recovery actions via some other pipe are not required for control
1088:Middlewares/ST/STM32_USB_Host_Library/Core/Src/usbh_ctlreq.c ****       endpoints. For the Default Control Pipe, a device reset will ultimately be
1089:Middlewares/ST/STM32_USB_Host_Library/Core/Src/usbh_ctlreq.c ****       required to clear the halt or error condition if the next Setup PID is not
1090:Middlewares/ST/STM32_USB_Host_Library/Core/Src/usbh_ctlreq.c ****       accepted.
1091:Middlewares/ST/STM32_USB_Host_Library/Core/Src/usbh_ctlreq.c ****       */
1092:Middlewares/ST/STM32_USB_Host_Library/Core/Src/usbh_ctlreq.c ****       if (++phost->Control.errorcount <= USBH_MAX_ERROR_COUNT)
1093:Middlewares/ST/STM32_USB_Host_Library/Core/Src/usbh_ctlreq.c ****       {
1094:Middlewares/ST/STM32_USB_Host_Library/Core/Src/usbh_ctlreq.c ****         /* Do the transmission again, starting from SETUP Packet */
1095:Middlewares/ST/STM32_USB_Host_Library/Core/Src/usbh_ctlreq.c ****         phost->Control.state = CTRL_SETUP;
1096:Middlewares/ST/STM32_USB_Host_Library/Core/Src/usbh_ctlreq.c ****         phost->RequestState = CMD_SEND;
1097:Middlewares/ST/STM32_USB_Host_Library/Core/Src/usbh_ctlreq.c ****       }
1098:Middlewares/ST/STM32_USB_Host_Library/Core/Src/usbh_ctlreq.c ****       else
1099:Middlewares/ST/STM32_USB_Host_Library/Core/Src/usbh_ctlreq.c ****       {
1100:Middlewares/ST/STM32_USB_Host_Library/Core/Src/usbh_ctlreq.c ****         phost->pUser(phost, HOST_USER_UNRECOVERED_ERROR);
1101:Middlewares/ST/STM32_USB_Host_Library/Core/Src/usbh_ctlreq.c ****         phost->Control.errorcount = 0U;
1102:Middlewares/ST/STM32_USB_Host_Library/Core/Src/usbh_ctlreq.c ****         USBH_ErrLog("Control error: Device not responding");
1103:Middlewares/ST/STM32_USB_Host_Library/Core/Src/usbh_ctlreq.c **** 
1104:Middlewares/ST/STM32_USB_Host_Library/Core/Src/usbh_ctlreq.c ****         /* Free control pipes */
1105:Middlewares/ST/STM32_USB_Host_Library/Core/Src/usbh_ctlreq.c ****         (void)USBH_FreePipe(phost, phost->Control.pipe_out);
1106:Middlewares/ST/STM32_USB_Host_Library/Core/Src/usbh_ctlreq.c ****         (void)USBH_FreePipe(phost, phost->Control.pipe_in);
1107:Middlewares/ST/STM32_USB_Host_Library/Core/Src/usbh_ctlreq.c **** 
1108:Middlewares/ST/STM32_USB_Host_Library/Core/Src/usbh_ctlreq.c ****         phost->gState = HOST_IDLE;
1109:Middlewares/ST/STM32_USB_Host_Library/Core/Src/usbh_ctlreq.c ****         status = USBH_FAIL;
1110:Middlewares/ST/STM32_USB_Host_Library/Core/Src/usbh_ctlreq.c ****       }
1111:Middlewares/ST/STM32_USB_Host_Library/Core/Src/usbh_ctlreq.c ****       break;
1112:Middlewares/ST/STM32_USB_Host_Library/Core/Src/usbh_ctlreq.c **** 
1113:Middlewares/ST/STM32_USB_Host_Library/Core/Src/usbh_ctlreq.c ****     default:
1114:Middlewares/ST/STM32_USB_Host_Library/Core/Src/usbh_ctlreq.c ****       break;
1115:Middlewares/ST/STM32_USB_Host_Library/Core/Src/usbh_ctlreq.c ****   }
1116:Middlewares/ST/STM32_USB_Host_Library/Core/Src/usbh_ctlreq.c **** 
1117:Middlewares/ST/STM32_USB_Host_Library/Core/Src/usbh_ctlreq.c ****   return status;
 502              		.loc 1 1117 3 view .LVU165
1118:Middlewares/ST/STM32_USB_Host_Library/Core/Src/usbh_ctlreq.c **** }
 503              		.loc 1 1118 1 is_stmt 0 view .LVU166
 504 002e 2846     		mov	r0, r5
 505 0030 03B0     		add	sp, sp, #12
ARM GAS  /tmp/ccDTG3e6.s 			page 30


 506              		.cfi_remember_state
 507              		.cfi_def_cfa_offset 12
 508              		@ sp needed
 509 0032 30BD     		pop	{r4, r5, pc}
 510              	.LVL29:
 511              	.L41:
 512              		.cfi_restore_state
 766:Middlewares/ST/STM32_USB_Host_Library/Core/Src/usbh_ctlreq.c ****       /* case SETUP packet sent successfully */
 513              		.loc 1 766 7 is_stmt 1 view .LVU167
 766:Middlewares/ST/STM32_USB_Host_Library/Core/Src/usbh_ctlreq.c ****       /* case SETUP packet sent successfully */
 514              		.loc 1 766 20 is_stmt 0 view .LVU168
 515 0034 4179     		ldrb	r1, [r0, #5]	@ zero_extendqisi2
 516 0036 FFF7FEFF 		bl	USBH_LL_GetURBState
 517              	.LVL30:
 766:Middlewares/ST/STM32_USB_Host_Library/Core/Src/usbh_ctlreq.c ****       /* case SETUP packet sent successfully */
 518              		.loc 1 766 20 view .LVU169
 519 003a 0546     		mov	r5, r0
 520              	.LVL31:
 768:Middlewares/ST/STM32_USB_Host_Library/Core/Src/usbh_ctlreq.c ****       {
 521              		.loc 1 768 7 is_stmt 1 view .LVU170
 768:Middlewares/ST/STM32_USB_Host_Library/Core/Src/usbh_ctlreq.c ****       {
 522              		.loc 1 768 10 is_stmt 0 view .LVU171
 523 003c 0128     		cmp	r0, #1
 524 003e 05D0     		beq	.L68
 813:Middlewares/ST/STM32_USB_Host_Library/Core/Src/usbh_ctlreq.c ****         {
 525              		.loc 1 813 9 is_stmt 1 view .LVU172
 813:Middlewares/ST/STM32_USB_Host_Library/Core/Src/usbh_ctlreq.c ****         {
 526              		.loc 1 813 12 is_stmt 0 view .LVU173
 527 0040 0428     		cmp	r0, #4
 528 0042 18D0     		beq	.L47
 813:Middlewares/ST/STM32_USB_Host_Library/Core/Src/usbh_ctlreq.c ****         {
 529              		.loc 1 813 44 discriminator 1 view .LVU174
 530 0044 0228     		cmp	r0, #2
 531 0046 16D0     		beq	.L47
 751:Middlewares/ST/STM32_USB_Host_Library/Core/Src/usbh_ctlreq.c ****   USBH_URBStateTypeDef URB_Status = USBH_URB_IDLE;
 532              		.loc 1 751 22 view .LVU175
 533 0048 0125     		movs	r5, #1
 534 004a F0E7     		b	.L30
 535              	.L68:
 770:Middlewares/ST/STM32_USB_Host_Library/Core/Src/usbh_ctlreq.c **** 
 536              		.loc 1 770 9 is_stmt 1 view .LVU176
 770:Middlewares/ST/STM32_USB_Host_Library/Core/Src/usbh_ctlreq.c **** 
 537              		.loc 1 770 44 is_stmt 0 view .LVU177
 538 004c 237C     		ldrb	r3, [r4, #16]	@ zero_extendqisi2
 539              	.LVL32:
 773:Middlewares/ST/STM32_USB_Host_Library/Core/Src/usbh_ctlreq.c ****         {
 540              		.loc 1 773 9 is_stmt 1 view .LVU178
 773:Middlewares/ST/STM32_USB_Host_Library/Core/Src/usbh_ctlreq.c ****         {
 541              		.loc 1 773 43 is_stmt 0 view .LVU179
 542 004e E28A     		ldrh	r2, [r4, #22]
 773:Middlewares/ST/STM32_USB_Host_Library/Core/Src/usbh_ctlreq.c ****         {
 543              		.loc 1 773 12 view .LVU180
 544 0050 42B1     		cbz	r2, .L44
 775:Middlewares/ST/STM32_USB_Host_Library/Core/Src/usbh_ctlreq.c ****           {
 545              		.loc 1 775 11 is_stmt 1 view .LVU181
 775:Middlewares/ST/STM32_USB_Host_Library/Core/Src/usbh_ctlreq.c ****           {
 546              		.loc 1 775 14 is_stmt 0 view .LVU182
ARM GAS  /tmp/ccDTG3e6.s 			page 31


 547 0052 13F0800F 		tst	r3, #128
 548 0056 02D1     		bne	.L69
 783:Middlewares/ST/STM32_USB_Host_Library/Core/Src/usbh_ctlreq.c ****           }
 549              		.loc 1 783 13 is_stmt 1 view .LVU183
 783:Middlewares/ST/STM32_USB_Host_Library/Core/Src/usbh_ctlreq.c ****           }
 550              		.loc 1 783 34 is_stmt 0 view .LVU184
 551 0058 0523     		movs	r3, #5
 552              	.LVL33:
 783:Middlewares/ST/STM32_USB_Host_Library/Core/Src/usbh_ctlreq.c ****           }
 553              		.loc 1 783 34 view .LVU185
 554 005a 2376     		strb	r3, [r4, #24]
 555 005c E7E7     		b	.L30
 556              	.LVL34:
 557              	.L69:
 778:Middlewares/ST/STM32_USB_Host_Library/Core/Src/usbh_ctlreq.c ****           }
 558              		.loc 1 778 13 is_stmt 1 view .LVU186
 778:Middlewares/ST/STM32_USB_Host_Library/Core/Src/usbh_ctlreq.c ****           }
 559              		.loc 1 778 34 is_stmt 0 view .LVU187
 560 005e 0323     		movs	r3, #3
 561              	.LVL35:
 778:Middlewares/ST/STM32_USB_Host_Library/Core/Src/usbh_ctlreq.c ****           }
 562              		.loc 1 778 34 view .LVU188
 563 0060 2376     		strb	r3, [r4, #24]
 564 0062 E4E7     		b	.L30
 565              	.LVL36:
 566              	.L44:
 790:Middlewares/ST/STM32_USB_Host_Library/Core/Src/usbh_ctlreq.c ****           {
 567              		.loc 1 790 11 is_stmt 1 view .LVU189
 790:Middlewares/ST/STM32_USB_Host_Library/Core/Src/usbh_ctlreq.c ****           {
 568              		.loc 1 790 14 is_stmt 0 view .LVU190
 569 0064 13F0800F 		tst	r3, #128
 570 0068 02D1     		bne	.L70
 798:Middlewares/ST/STM32_USB_Host_Library/Core/Src/usbh_ctlreq.c ****           }
 571              		.loc 1 798 13 is_stmt 1 view .LVU191
 798:Middlewares/ST/STM32_USB_Host_Library/Core/Src/usbh_ctlreq.c ****           }
 572              		.loc 1 798 34 is_stmt 0 view .LVU192
 573 006a 0723     		movs	r3, #7
 574              	.LVL37:
 798:Middlewares/ST/STM32_USB_Host_Library/Core/Src/usbh_ctlreq.c ****           }
 575              		.loc 1 798 34 view .LVU193
 576 006c 2376     		strb	r3, [r4, #24]
 577 006e DEE7     		b	.L30
 578              	.LVL38:
 579              	.L70:
 793:Middlewares/ST/STM32_USB_Host_Library/Core/Src/usbh_ctlreq.c ****           }
 580              		.loc 1 793 13 is_stmt 1 view .LVU194
 793:Middlewares/ST/STM32_USB_Host_Library/Core/Src/usbh_ctlreq.c ****           }
 581              		.loc 1 793 34 is_stmt 0 view .LVU195
 582 0070 0923     		movs	r3, #9
 583              	.LVL39:
 793:Middlewares/ST/STM32_USB_Host_Library/Core/Src/usbh_ctlreq.c ****           }
 584              		.loc 1 793 34 view .LVU196
 585 0072 2376     		strb	r3, [r4, #24]
 586 0074 DBE7     		b	.L30
 587              	.LVL40:
 588              	.L47:
 815:Middlewares/ST/STM32_USB_Host_Library/Core/Src/usbh_ctlreq.c **** 
ARM GAS  /tmp/ccDTG3e6.s 			page 32


 589              		.loc 1 815 11 is_stmt 1 view .LVU197
 815:Middlewares/ST/STM32_USB_Host_Library/Core/Src/usbh_ctlreq.c **** 
 590              		.loc 1 815 32 is_stmt 0 view .LVU198
 591 0076 0B23     		movs	r3, #11
 592 0078 2376     		strb	r3, [r4, #24]
 751:Middlewares/ST/STM32_USB_Host_Library/Core/Src/usbh_ctlreq.c ****   USBH_URBStateTypeDef URB_Status = USBH_URB_IDLE;
 593              		.loc 1 751 22 view .LVU199
 594 007a 0125     		movs	r5, #1
 595 007c D7E7     		b	.L30
 596              	.LVL41:
 597              	.L40:
 831:Middlewares/ST/STM32_USB_Host_Library/Core/Src/usbh_ctlreq.c ****       (void)USBH_CtlReceiveData(phost, phost->Control.buff,
 598              		.loc 1 831 7 is_stmt 1 view .LVU200
 831:Middlewares/ST/STM32_USB_Host_Library/Core/Src/usbh_ctlreq.c ****       (void)USBH_CtlReceiveData(phost, phost->Control.buff,
 599              		.loc 1 831 45 is_stmt 0 view .LVU201
 600 007e D0F8C433 		ldr	r3, [r0, #964]
 831:Middlewares/ST/STM32_USB_Host_Library/Core/Src/usbh_ctlreq.c ****       (void)USBH_CtlReceiveData(phost, phost->Control.buff,
 601              		.loc 1 831 28 view .LVU202
 602 0082 C381     		strh	r3, [r0, #14]	@ movhi
 832:Middlewares/ST/STM32_USB_Host_Library/Core/Src/usbh_ctlreq.c ****                                 phost->Control.length, phost->Control.pipe_in);
 603              		.loc 1 832 7 is_stmt 1 view .LVU203
 832:Middlewares/ST/STM32_USB_Host_Library/Core/Src/usbh_ctlreq.c ****                                 phost->Control.length, phost->Control.pipe_in);
 604              		.loc 1 832 13 is_stmt 0 view .LVU204
 605 0084 0379     		ldrb	r3, [r0, #4]	@ zero_extendqisi2
 606 0086 8289     		ldrh	r2, [r0, #12]
 607 0088 8168     		ldr	r1, [r0, #8]
 608 008a FFF7FEFF 		bl	USBH_CtlReceiveData
 609              	.LVL42:
 835:Middlewares/ST/STM32_USB_Host_Library/Core/Src/usbh_ctlreq.c ****       break;
 610              		.loc 1 835 7 is_stmt 1 view .LVU205
 835:Middlewares/ST/STM32_USB_Host_Library/Core/Src/usbh_ctlreq.c ****       break;
 611              		.loc 1 835 28 is_stmt 0 view .LVU206
 612 008e 0423     		movs	r3, #4
 613 0090 2376     		strb	r3, [r4, #24]
 836:Middlewares/ST/STM32_USB_Host_Library/Core/Src/usbh_ctlreq.c **** 
 614              		.loc 1 836 7 is_stmt 1 view .LVU207
 751:Middlewares/ST/STM32_USB_Host_Library/Core/Src/usbh_ctlreq.c ****   USBH_URBStateTypeDef URB_Status = USBH_URB_IDLE;
 615              		.loc 1 751 22 is_stmt 0 view .LVU208
 616 0092 0125     		movs	r5, #1
 836:Middlewares/ST/STM32_USB_Host_Library/Core/Src/usbh_ctlreq.c **** 
 617              		.loc 1 836 7 view .LVU209
 618 0094 CBE7     		b	.L30
 619              	.LVL43:
 620              	.L39:
 840:Middlewares/ST/STM32_USB_Host_Library/Core/Src/usbh_ctlreq.c **** 
 621              		.loc 1 840 7 is_stmt 1 view .LVU210
 840:Middlewares/ST/STM32_USB_Host_Library/Core/Src/usbh_ctlreq.c **** 
 622              		.loc 1 840 20 is_stmt 0 view .LVU211
 623 0096 0179     		ldrb	r1, [r0, #4]	@ zero_extendqisi2
 624 0098 FFF7FEFF 		bl	USBH_LL_GetURBState
 625              	.LVL44:
 843:Middlewares/ST/STM32_USB_Host_Library/Core/Src/usbh_ctlreq.c ****       {
 626              		.loc 1 843 7 is_stmt 1 view .LVU212
 843:Middlewares/ST/STM32_USB_Host_Library/Core/Src/usbh_ctlreq.c ****       {
 627              		.loc 1 843 10 is_stmt 0 view .LVU213
 628 009c 0128     		cmp	r0, #1
 629 009e 06D0     		beq	.L71
ARM GAS  /tmp/ccDTG3e6.s 			page 33


 858:Middlewares/ST/STM32_USB_Host_Library/Core/Src/usbh_ctlreq.c ****       {
 630              		.loc 1 858 7 is_stmt 1 view .LVU214
 858:Middlewares/ST/STM32_USB_Host_Library/Core/Src/usbh_ctlreq.c ****       {
 631              		.loc 1 858 10 is_stmt 0 view .LVU215
 632 00a0 0528     		cmp	r0, #5
 633 00a2 00F09380 		beq	.L62
 634              	.L49:
 874:Middlewares/ST/STM32_USB_Host_Library/Core/Src/usbh_ctlreq.c ****         {
 635              		.loc 1 874 9 is_stmt 1 view .LVU216
 874:Middlewares/ST/STM32_USB_Host_Library/Core/Src/usbh_ctlreq.c ****         {
 636              		.loc 1 874 12 is_stmt 0 view .LVU217
 637 00a6 0428     		cmp	r0, #4
 638 00a8 04D0     		beq	.L72
 751:Middlewares/ST/STM32_USB_Host_Library/Core/Src/usbh_ctlreq.c ****   USBH_URBStateTypeDef URB_Status = USBH_URB_IDLE;
 639              		.loc 1 751 22 view .LVU218
 640 00aa 0125     		movs	r5, #1
 641 00ac BFE7     		b	.L30
 642              	.L71:
 845:Middlewares/ST/STM32_USB_Host_Library/Core/Src/usbh_ctlreq.c **** 
 643              		.loc 1 845 9 is_stmt 1 view .LVU219
 845:Middlewares/ST/STM32_USB_Host_Library/Core/Src/usbh_ctlreq.c **** 
 644              		.loc 1 845 30 is_stmt 0 view .LVU220
 645 00ae 0923     		movs	r3, #9
 646 00b0 2376     		strb	r3, [r4, #24]
 858:Middlewares/ST/STM32_USB_Host_Library/Core/Src/usbh_ctlreq.c ****       {
 647              		.loc 1 858 7 is_stmt 1 view .LVU221
 648 00b2 F8E7     		b	.L49
 649              	.L72:
 877:Middlewares/ST/STM32_USB_Host_Library/Core/Src/usbh_ctlreq.c **** 
 650              		.loc 1 877 11 view .LVU222
 877:Middlewares/ST/STM32_USB_Host_Library/Core/Src/usbh_ctlreq.c **** 
 651              		.loc 1 877 32 is_stmt 0 view .LVU223
 652 00b4 0B23     		movs	r3, #11
 653 00b6 2376     		strb	r3, [r4, #24]
 751:Middlewares/ST/STM32_USB_Host_Library/Core/Src/usbh_ctlreq.c ****   USBH_URBStateTypeDef URB_Status = USBH_URB_IDLE;
 654              		.loc 1 751 22 view .LVU224
 655 00b8 0125     		movs	r5, #1
 656 00ba B8E7     		b	.L30
 657              	.LVL45:
 658              	.L38:
 893:Middlewares/ST/STM32_USB_Host_Library/Core/Src/usbh_ctlreq.c ****                              phost->Control.pipe_out, 1U);
 659              		.loc 1 893 7 is_stmt 1 view .LVU225
 893:Middlewares/ST/STM32_USB_Host_Library/Core/Src/usbh_ctlreq.c ****                              phost->Control.pipe_out, 1U);
 660              		.loc 1 893 13 is_stmt 0 view .LVU226
 661 00bc 0125     		movs	r5, #1
 662 00be 0095     		str	r5, [sp]
 663 00c0 4379     		ldrb	r3, [r0, #5]	@ zero_extendqisi2
 664 00c2 8289     		ldrh	r2, [r0, #12]
 665 00c4 8168     		ldr	r1, [r0, #8]
 666 00c6 FFF7FEFF 		bl	USBH_CtlSendData
 667              	.LVL46:
 896:Middlewares/ST/STM32_USB_Host_Library/Core/Src/usbh_ctlreq.c ****       phost->Control.state = CTRL_DATA_OUT_WAIT;
 668              		.loc 1 896 7 is_stmt 1 view .LVU227
 896:Middlewares/ST/STM32_USB_Host_Library/Core/Src/usbh_ctlreq.c ****       phost->Control.state = CTRL_DATA_OUT_WAIT;
 669              		.loc 1 896 45 is_stmt 0 view .LVU228
 670 00ca D4F8C433 		ldr	r3, [r4, #964]
 896:Middlewares/ST/STM32_USB_Host_Library/Core/Src/usbh_ctlreq.c ****       phost->Control.state = CTRL_DATA_OUT_WAIT;
ARM GAS  /tmp/ccDTG3e6.s 			page 34


 671              		.loc 1 896 28 view .LVU229
 672 00ce E381     		strh	r3, [r4, #14]	@ movhi
 897:Middlewares/ST/STM32_USB_Host_Library/Core/Src/usbh_ctlreq.c ****       break;
 673              		.loc 1 897 7 is_stmt 1 view .LVU230
 897:Middlewares/ST/STM32_USB_Host_Library/Core/Src/usbh_ctlreq.c ****       break;
 674              		.loc 1 897 28 is_stmt 0 view .LVU231
 675 00d0 0623     		movs	r3, #6
 676 00d2 2376     		strb	r3, [r4, #24]
 898:Middlewares/ST/STM32_USB_Host_Library/Core/Src/usbh_ctlreq.c **** 
 677              		.loc 1 898 7 is_stmt 1 view .LVU232
 678 00d4 ABE7     		b	.L30
 679              	.LVL47:
 680              	.L37:
 902:Middlewares/ST/STM32_USB_Host_Library/Core/Src/usbh_ctlreq.c **** 
 681              		.loc 1 902 7 view .LVU233
 902:Middlewares/ST/STM32_USB_Host_Library/Core/Src/usbh_ctlreq.c **** 
 682              		.loc 1 902 20 is_stmt 0 view .LVU234
 683 00d6 4179     		ldrb	r1, [r0, #5]	@ zero_extendqisi2
 684 00d8 FFF7FEFF 		bl	USBH_LL_GetURBState
 685              	.LVL48:
 902:Middlewares/ST/STM32_USB_Host_Library/Core/Src/usbh_ctlreq.c **** 
 686              		.loc 1 902 20 view .LVU235
 687 00dc 0546     		mov	r5, r0
 688              	.LVL49:
 904:Middlewares/ST/STM32_USB_Host_Library/Core/Src/usbh_ctlreq.c ****       {
 689              		.loc 1 904 7 is_stmt 1 view .LVU236
 690 00de 431E     		subs	r3, r0, #1
 691 00e0 042B     		cmp	r3, #4
 692 00e2 75D8     		bhi	.L64
 693 00e4 DFE803F0 		tbb	[pc, r3]
 694              	.L51:
 695 00e8 03       		.byte	(.L54-.L51)/2
 696 00e9 0A       		.byte	(.L53-.L51)/2
 697 00ea 74       		.byte	(.L64-.L51)/2
 698 00eb 0E       		.byte	(.L52-.L51)/2
 699 00ec 06       		.byte	(.L50-.L51)/2
 700 00ed 00       		.p2align 1
 701              	.L54:
 907:Middlewares/ST/STM32_USB_Host_Library/Core/Src/usbh_ctlreq.c **** 
 702              		.loc 1 907 9 view .LVU237
 907:Middlewares/ST/STM32_USB_Host_Library/Core/Src/usbh_ctlreq.c **** 
 703              		.loc 1 907 30 is_stmt 0 view .LVU238
 704 00ee 0723     		movs	r3, #7
 705 00f0 2376     		strb	r3, [r4, #24]
 706 00f2 9CE7     		b	.L30
 707              	.L50:
 923:Middlewares/ST/STM32_USB_Host_Library/Core/Src/usbh_ctlreq.c ****         status = USBH_NOT_SUPPORTED;
 708              		.loc 1 923 9 is_stmt 1 view .LVU239
 923:Middlewares/ST/STM32_USB_Host_Library/Core/Src/usbh_ctlreq.c ****         status = USBH_NOT_SUPPORTED;
 709              		.loc 1 923 30 is_stmt 0 view .LVU240
 710 00f4 0C23     		movs	r3, #12
 711 00f6 2376     		strb	r3, [r4, #24]
 924:Middlewares/ST/STM32_USB_Host_Library/Core/Src/usbh_ctlreq.c **** 
 712              		.loc 1 924 9 is_stmt 1 view .LVU241
 713              	.LVL50:
 924:Middlewares/ST/STM32_USB_Host_Library/Core/Src/usbh_ctlreq.c **** 
 714              		.loc 1 924 16 is_stmt 0 view .LVU242
ARM GAS  /tmp/ccDTG3e6.s 			page 35


 715 00f8 0325     		movs	r5, #3
 716 00fa 98E7     		b	.L30
 717              	.LVL51:
 718              	.L53:
 938:Middlewares/ST/STM32_USB_Host_Library/Core/Src/usbh_ctlreq.c **** 
 719              		.loc 1 938 9 is_stmt 1 view .LVU243
 938:Middlewares/ST/STM32_USB_Host_Library/Core/Src/usbh_ctlreq.c **** 
 720              		.loc 1 938 30 is_stmt 0 view .LVU244
 721 00fc 0523     		movs	r3, #5
 722 00fe 2376     		strb	r3, [r4, #24]
 751:Middlewares/ST/STM32_USB_Host_Library/Core/Src/usbh_ctlreq.c ****   USBH_URBStateTypeDef URB_Status = USBH_URB_IDLE;
 723              		.loc 1 751 22 view .LVU245
 724 0100 0125     		movs	r5, #1
 725 0102 94E7     		b	.L30
 726              	.L52:
 954:Middlewares/ST/STM32_USB_Host_Library/Core/Src/usbh_ctlreq.c ****           status = USBH_FAIL;
 727              		.loc 1 954 11 is_stmt 1 view .LVU246
 954:Middlewares/ST/STM32_USB_Host_Library/Core/Src/usbh_ctlreq.c ****           status = USBH_FAIL;
 728              		.loc 1 954 32 is_stmt 0 view .LVU247
 729 0104 0B23     		movs	r3, #11
 730 0106 2376     		strb	r3, [r4, #24]
 955:Middlewares/ST/STM32_USB_Host_Library/Core/Src/usbh_ctlreq.c **** 
 731              		.loc 1 955 11 is_stmt 1 view .LVU248
 732              	.LVL52:
 955:Middlewares/ST/STM32_USB_Host_Library/Core/Src/usbh_ctlreq.c **** 
 733              		.loc 1 955 18 is_stmt 0 view .LVU249
 734 0108 0225     		movs	r5, #2
 735 010a 90E7     		b	.L30
 736              	.LVL53:
 737              	.L36:
 971:Middlewares/ST/STM32_USB_Host_Library/Core/Src/usbh_ctlreq.c **** 
 738              		.loc 1 971 7 is_stmt 1 view .LVU250
 971:Middlewares/ST/STM32_USB_Host_Library/Core/Src/usbh_ctlreq.c **** 
 739              		.loc 1 971 13 is_stmt 0 view .LVU251
 740 010c 0379     		ldrb	r3, [r0, #4]	@ zero_extendqisi2
 741 010e 0022     		movs	r2, #0
 742 0110 1146     		mov	r1, r2
 743 0112 FFF7FEFF 		bl	USBH_CtlReceiveData
 744              	.LVL54:
 973:Middlewares/ST/STM32_USB_Host_Library/Core/Src/usbh_ctlreq.c ****       phost->Control.state = CTRL_STATUS_IN_WAIT;
 745              		.loc 1 973 7 is_stmt 1 view .LVU252
 973:Middlewares/ST/STM32_USB_Host_Library/Core/Src/usbh_ctlreq.c ****       phost->Control.state = CTRL_STATUS_IN_WAIT;
 746              		.loc 1 973 45 is_stmt 0 view .LVU253
 747 0116 D4F8C433 		ldr	r3, [r4, #964]
 973:Middlewares/ST/STM32_USB_Host_Library/Core/Src/usbh_ctlreq.c ****       phost->Control.state = CTRL_STATUS_IN_WAIT;
 748              		.loc 1 973 28 view .LVU254
 749 011a E381     		strh	r3, [r4, #14]	@ movhi
 974:Middlewares/ST/STM32_USB_Host_Library/Core/Src/usbh_ctlreq.c **** 
 750              		.loc 1 974 7 is_stmt 1 view .LVU255
 974:Middlewares/ST/STM32_USB_Host_Library/Core/Src/usbh_ctlreq.c **** 
 751              		.loc 1 974 28 is_stmt 0 view .LVU256
 752 011c 0823     		movs	r3, #8
 753 011e 2376     		strb	r3, [r4, #24]
 976:Middlewares/ST/STM32_USB_Host_Library/Core/Src/usbh_ctlreq.c **** 
 754              		.loc 1 976 7 is_stmt 1 view .LVU257
 751:Middlewares/ST/STM32_USB_Host_Library/Core/Src/usbh_ctlreq.c ****   USBH_URBStateTypeDef URB_Status = USBH_URB_IDLE;
 755              		.loc 1 751 22 is_stmt 0 view .LVU258
ARM GAS  /tmp/ccDTG3e6.s 			page 36


 756 0120 0125     		movs	r5, #1
 976:Middlewares/ST/STM32_USB_Host_Library/Core/Src/usbh_ctlreq.c **** 
 757              		.loc 1 976 7 view .LVU259
 758 0122 84E7     		b	.L30
 759              	.LVL55:
 760              	.L35:
 980:Middlewares/ST/STM32_USB_Host_Library/Core/Src/usbh_ctlreq.c **** 
 761              		.loc 1 980 7 is_stmt 1 view .LVU260
 980:Middlewares/ST/STM32_USB_Host_Library/Core/Src/usbh_ctlreq.c **** 
 762              		.loc 1 980 20 is_stmt 0 view .LVU261
 763 0124 0179     		ldrb	r1, [r0, #4]	@ zero_extendqisi2
 764 0126 FFF7FEFF 		bl	USBH_LL_GetURBState
 765              	.LVL56:
 982:Middlewares/ST/STM32_USB_Host_Library/Core/Src/usbh_ctlreq.c ****       {
 766              		.loc 1 982 7 is_stmt 1 view .LVU262
 982:Middlewares/ST/STM32_USB_Host_Library/Core/Src/usbh_ctlreq.c ****       {
 767              		.loc 1 982 10 is_stmt 0 view .LVU263
 768 012a 0128     		cmp	r0, #1
 769 012c 05D0     		beq	.L73
 997:Middlewares/ST/STM32_USB_Host_Library/Core/Src/usbh_ctlreq.c ****       {
 770              		.loc 1 997 12 is_stmt 1 view .LVU264
 997:Middlewares/ST/STM32_USB_Host_Library/Core/Src/usbh_ctlreq.c ****       {
 771              		.loc 1 997 15 is_stmt 0 view .LVU265
 772 012e 0428     		cmp	r0, #4
 773 0130 07D0     		beq	.L74
1012:Middlewares/ST/STM32_USB_Host_Library/Core/Src/usbh_ctlreq.c ****         {
 774              		.loc 1 1012 9 is_stmt 1 view .LVU266
1012:Middlewares/ST/STM32_USB_Host_Library/Core/Src/usbh_ctlreq.c ****         {
 775              		.loc 1 1012 12 is_stmt 0 view .LVU267
 776 0132 0528     		cmp	r0, #5
 777 0134 4ED0     		beq	.L65
 751:Middlewares/ST/STM32_USB_Host_Library/Core/Src/usbh_ctlreq.c ****   USBH_URBStateTypeDef URB_Status = USBH_URB_IDLE;
 778              		.loc 1 751 22 view .LVU268
 779 0136 0125     		movs	r5, #1
 780 0138 79E7     		b	.L30
 781              	.L73:
 985:Middlewares/ST/STM32_USB_Host_Library/Core/Src/usbh_ctlreq.c ****         status = USBH_OK;
 782              		.loc 1 985 9 is_stmt 1 view .LVU269
 985:Middlewares/ST/STM32_USB_Host_Library/Core/Src/usbh_ctlreq.c ****         status = USBH_OK;
 783              		.loc 1 985 30 is_stmt 0 view .LVU270
 784 013a 0D23     		movs	r3, #13
 785 013c 2376     		strb	r3, [r4, #24]
 986:Middlewares/ST/STM32_USB_Host_Library/Core/Src/usbh_ctlreq.c **** 
 786              		.loc 1 986 9 is_stmt 1 view .LVU271
 787              	.LVL57:
 986:Middlewares/ST/STM32_USB_Host_Library/Core/Src/usbh_ctlreq.c **** 
 788              		.loc 1 986 16 is_stmt 0 view .LVU272
 789 013e 0025     		movs	r5, #0
 790 0140 75E7     		b	.L30
 791              	.LVL58:
 792              	.L74:
 999:Middlewares/ST/STM32_USB_Host_Library/Core/Src/usbh_ctlreq.c **** 
 793              		.loc 1 999 9 is_stmt 1 view .LVU273
 999:Middlewares/ST/STM32_USB_Host_Library/Core/Src/usbh_ctlreq.c **** 
 794              		.loc 1 999 30 is_stmt 0 view .LVU274
 795 0142 0B23     		movs	r3, #11
 796 0144 2376     		strb	r3, [r4, #24]
ARM GAS  /tmp/ccDTG3e6.s 			page 37


 751:Middlewares/ST/STM32_USB_Host_Library/Core/Src/usbh_ctlreq.c ****   USBH_URBStateTypeDef URB_Status = USBH_URB_IDLE;
 797              		.loc 1 751 22 view .LVU275
 798 0146 0125     		movs	r5, #1
 799 0148 71E7     		b	.L30
 800              	.LVL59:
 801              	.L34:
1030:Middlewares/ST/STM32_USB_Host_Library/Core/Src/usbh_ctlreq.c **** 
 802              		.loc 1 1030 7 is_stmt 1 view .LVU276
1030:Middlewares/ST/STM32_USB_Host_Library/Core/Src/usbh_ctlreq.c **** 
 803              		.loc 1 1030 13 is_stmt 0 view .LVU277
 804 014a 0125     		movs	r5, #1
 805 014c 0095     		str	r5, [sp]
 806 014e 4379     		ldrb	r3, [r0, #5]	@ zero_extendqisi2
 807 0150 0022     		movs	r2, #0
 808 0152 1146     		mov	r1, r2
 809 0154 FFF7FEFF 		bl	USBH_CtlSendData
 810              	.LVL60:
1032:Middlewares/ST/STM32_USB_Host_Library/Core/Src/usbh_ctlreq.c ****       phost->Control.state = CTRL_STATUS_OUT_WAIT;
 811              		.loc 1 1032 7 is_stmt 1 view .LVU278
1032:Middlewares/ST/STM32_USB_Host_Library/Core/Src/usbh_ctlreq.c ****       phost->Control.state = CTRL_STATUS_OUT_WAIT;
 812              		.loc 1 1032 45 is_stmt 0 view .LVU279
 813 0158 D4F8C433 		ldr	r3, [r4, #964]
1032:Middlewares/ST/STM32_USB_Host_Library/Core/Src/usbh_ctlreq.c ****       phost->Control.state = CTRL_STATUS_OUT_WAIT;
 814              		.loc 1 1032 28 view .LVU280
 815 015c E381     		strh	r3, [r4, #14]	@ movhi
1033:Middlewares/ST/STM32_USB_Host_Library/Core/Src/usbh_ctlreq.c ****       break;
 816              		.loc 1 1033 7 is_stmt 1 view .LVU281
1033:Middlewares/ST/STM32_USB_Host_Library/Core/Src/usbh_ctlreq.c ****       break;
 817              		.loc 1 1033 28 is_stmt 0 view .LVU282
 818 015e 0A23     		movs	r3, #10
 819 0160 2376     		strb	r3, [r4, #24]
1034:Middlewares/ST/STM32_USB_Host_Library/Core/Src/usbh_ctlreq.c **** 
 820              		.loc 1 1034 7 is_stmt 1 view .LVU283
 821 0162 64E7     		b	.L30
 822              	.LVL61:
 823              	.L33:
1037:Middlewares/ST/STM32_USB_Host_Library/Core/Src/usbh_ctlreq.c ****       if (URB_Status == USBH_URB_DONE)
 824              		.loc 1 1037 7 view .LVU284
1037:Middlewares/ST/STM32_USB_Host_Library/Core/Src/usbh_ctlreq.c ****       if (URB_Status == USBH_URB_DONE)
 825              		.loc 1 1037 20 is_stmt 0 view .LVU285
 826 0164 4179     		ldrb	r1, [r0, #5]	@ zero_extendqisi2
 827 0166 FFF7FEFF 		bl	USBH_LL_GetURBState
 828              	.LVL62:
1038:Middlewares/ST/STM32_USB_Host_Library/Core/Src/usbh_ctlreq.c ****       {
 829              		.loc 1 1038 7 is_stmt 1 view .LVU286
1038:Middlewares/ST/STM32_USB_Host_Library/Core/Src/usbh_ctlreq.c ****       {
 830              		.loc 1 1038 10 is_stmt 0 view .LVU287
 831 016a 0128     		cmp	r0, #1
 832 016c 05D0     		beq	.L75
1052:Middlewares/ST/STM32_USB_Host_Library/Core/Src/usbh_ctlreq.c ****       {
 833              		.loc 1 1052 12 is_stmt 1 view .LVU288
1052:Middlewares/ST/STM32_USB_Host_Library/Core/Src/usbh_ctlreq.c ****       {
 834              		.loc 1 1052 15 is_stmt 0 view .LVU289
 835 016e 0228     		cmp	r0, #2
 836 0170 07D0     		beq	.L76
1067:Middlewares/ST/STM32_USB_Host_Library/Core/Src/usbh_ctlreq.c ****         {
 837              		.loc 1 1067 9 is_stmt 1 view .LVU290
ARM GAS  /tmp/ccDTG3e6.s 			page 38


1067:Middlewares/ST/STM32_USB_Host_Library/Core/Src/usbh_ctlreq.c ****         {
 838              		.loc 1 1067 12 is_stmt 0 view .LVU291
 839 0172 0428     		cmp	r0, #4
 840 0174 09D0     		beq	.L77
 751:Middlewares/ST/STM32_USB_Host_Library/Core/Src/usbh_ctlreq.c ****   USBH_URBStateTypeDef URB_Status = USBH_URB_IDLE;
 841              		.loc 1 751 22 view .LVU292
 842 0176 0125     		movs	r5, #1
 843 0178 59E7     		b	.L30
 844              	.L75:
1040:Middlewares/ST/STM32_USB_Host_Library/Core/Src/usbh_ctlreq.c ****         phost->Control.state = CTRL_COMPLETE;
 845              		.loc 1 1040 9 is_stmt 1 view .LVU293
 846              	.LVL63:
1041:Middlewares/ST/STM32_USB_Host_Library/Core/Src/usbh_ctlreq.c **** 
 847              		.loc 1 1041 9 view .LVU294
1041:Middlewares/ST/STM32_USB_Host_Library/Core/Src/usbh_ctlreq.c **** 
 848              		.loc 1 1041 30 is_stmt 0 view .LVU295
 849 017a 0D23     		movs	r3, #13
 850 017c 2376     		strb	r3, [r4, #24]
1040:Middlewares/ST/STM32_USB_Host_Library/Core/Src/usbh_ctlreq.c ****         phost->Control.state = CTRL_COMPLETE;
 851              		.loc 1 1040 16 view .LVU296
 852 017e 0025     		movs	r5, #0
 853 0180 55E7     		b	.L30
 854              	.LVL64:
 855              	.L76:
1054:Middlewares/ST/STM32_USB_Host_Library/Core/Src/usbh_ctlreq.c **** 
 856              		.loc 1 1054 9 is_stmt 1 view .LVU297
1054:Middlewares/ST/STM32_USB_Host_Library/Core/Src/usbh_ctlreq.c **** 
 857              		.loc 1 1054 30 is_stmt 0 view .LVU298
 858 0182 0923     		movs	r3, #9
 859 0184 2376     		strb	r3, [r4, #24]
 751:Middlewares/ST/STM32_USB_Host_Library/Core/Src/usbh_ctlreq.c ****   USBH_URBStateTypeDef URB_Status = USBH_URB_IDLE;
 860              		.loc 1 751 22 view .LVU299
 861 0186 0125     		movs	r5, #1
 862 0188 51E7     		b	.L30
 863              	.L77:
1069:Middlewares/ST/STM32_USB_Host_Library/Core/Src/usbh_ctlreq.c **** 
 864              		.loc 1 1069 11 is_stmt 1 view .LVU300
1069:Middlewares/ST/STM32_USB_Host_Library/Core/Src/usbh_ctlreq.c **** 
 865              		.loc 1 1069 32 is_stmt 0 view .LVU301
 866 018a 0B23     		movs	r3, #11
 867 018c 2376     		strb	r3, [r4, #24]
 751:Middlewares/ST/STM32_USB_Host_Library/Core/Src/usbh_ctlreq.c ****   USBH_URBStateTypeDef URB_Status = USBH_URB_IDLE;
 868              		.loc 1 751 22 view .LVU302
 869 018e 0125     		movs	r5, #1
 870 0190 4DE7     		b	.L30
 871              	.LVL65:
 872              	.L31:
1092:Middlewares/ST/STM32_USB_Host_Library/Core/Src/usbh_ctlreq.c ****       {
 873              		.loc 1 1092 7 is_stmt 1 view .LVU303
1092:Middlewares/ST/STM32_USB_Host_Library/Core/Src/usbh_ctlreq.c ****       {
 874              		.loc 1 1092 27 is_stmt 0 view .LVU304
 875 0192 437E     		ldrb	r3, [r0, #25]	@ zero_extendqisi2
1092:Middlewares/ST/STM32_USB_Host_Library/Core/Src/usbh_ctlreq.c ****       {
 876              		.loc 1 1092 11 view .LVU305
 877 0194 0133     		adds	r3, r3, #1
 878 0196 DBB2     		uxtb	r3, r3
1092:Middlewares/ST/STM32_USB_Host_Library/Core/Src/usbh_ctlreq.c ****       {
ARM GAS  /tmp/ccDTG3e6.s 			page 39


 879              		.loc 1 1092 10 view .LVU306
 880 0198 4376     		strb	r3, [r0, #25]
 881 019a 022B     		cmp	r3, #2
 882 019c 03D8     		bhi	.L59
1095:Middlewares/ST/STM32_USB_Host_Library/Core/Src/usbh_ctlreq.c ****         phost->RequestState = CMD_SEND;
 883              		.loc 1 1095 9 is_stmt 1 view .LVU307
1095:Middlewares/ST/STM32_USB_Host_Library/Core/Src/usbh_ctlreq.c ****         phost->RequestState = CMD_SEND;
 884              		.loc 1 1095 30 is_stmt 0 view .LVU308
 885 019e 0125     		movs	r5, #1
 886 01a0 0576     		strb	r5, [r0, #24]
1096:Middlewares/ST/STM32_USB_Host_Library/Core/Src/usbh_ctlreq.c ****       }
 887              		.loc 1 1096 9 is_stmt 1 view .LVU309
1096:Middlewares/ST/STM32_USB_Host_Library/Core/Src/usbh_ctlreq.c ****       }
 888              		.loc 1 1096 29 is_stmt 0 view .LVU310
 889 01a2 8570     		strb	r5, [r0, #2]
 890 01a4 43E7     		b	.L30
 891              	.L59:
1100:Middlewares/ST/STM32_USB_Host_Library/Core/Src/usbh_ctlreq.c ****         phost->Control.errorcount = 0U;
 892              		.loc 1 1100 9 is_stmt 1 view .LVU311
1100:Middlewares/ST/STM32_USB_Host_Library/Core/Src/usbh_ctlreq.c ****         phost->Control.errorcount = 0U;
 893              		.loc 1 1100 14 is_stmt 0 view .LVU312
 894 01a6 D0F8D433 		ldr	r3, [r0, #980]
1100:Middlewares/ST/STM32_USB_Host_Library/Core/Src/usbh_ctlreq.c ****         phost->Control.errorcount = 0U;
 895              		.loc 1 1100 9 view .LVU313
 896 01aa 0621     		movs	r1, #6
 897 01ac 9847     		blx	r3
 898              	.LVL66:
1101:Middlewares/ST/STM32_USB_Host_Library/Core/Src/usbh_ctlreq.c ****         USBH_ErrLog("Control error: Device not responding");
 899              		.loc 1 1101 9 is_stmt 1 view .LVU314
1101:Middlewares/ST/STM32_USB_Host_Library/Core/Src/usbh_ctlreq.c ****         USBH_ErrLog("Control error: Device not responding");
 900              		.loc 1 1101 35 is_stmt 0 view .LVU315
 901 01ae 0025     		movs	r5, #0
 902 01b0 6576     		strb	r5, [r4, #25]
1102:Middlewares/ST/STM32_USB_Host_Library/Core/Src/usbh_ctlreq.c **** 
 903              		.loc 1 1102 9 is_stmt 1 view .LVU316
1102:Middlewares/ST/STM32_USB_Host_Library/Core/Src/usbh_ctlreq.c **** 
 904              		.loc 1 1102 9 view .LVU317
1102:Middlewares/ST/STM32_USB_Host_Library/Core/Src/usbh_ctlreq.c **** 
 905              		.loc 1 1102 9 view .LVU318
1105:Middlewares/ST/STM32_USB_Host_Library/Core/Src/usbh_ctlreq.c ****         (void)USBH_FreePipe(phost, phost->Control.pipe_in);
 906              		.loc 1 1105 9 view .LVU319
1105:Middlewares/ST/STM32_USB_Host_Library/Core/Src/usbh_ctlreq.c ****         (void)USBH_FreePipe(phost, phost->Control.pipe_in);
 907              		.loc 1 1105 15 is_stmt 0 view .LVU320
 908 01b2 6179     		ldrb	r1, [r4, #5]	@ zero_extendqisi2
 909 01b4 2046     		mov	r0, r4
 910 01b6 FFF7FEFF 		bl	USBH_FreePipe
 911              	.LVL67:
1106:Middlewares/ST/STM32_USB_Host_Library/Core/Src/usbh_ctlreq.c **** 
 912              		.loc 1 1106 9 is_stmt 1 view .LVU321
1106:Middlewares/ST/STM32_USB_Host_Library/Core/Src/usbh_ctlreq.c **** 
 913              		.loc 1 1106 15 is_stmt 0 view .LVU322
 914 01ba 2179     		ldrb	r1, [r4, #4]	@ zero_extendqisi2
 915 01bc 2046     		mov	r0, r4
 916 01be FFF7FEFF 		bl	USBH_FreePipe
 917              	.LVL68:
1108:Middlewares/ST/STM32_USB_Host_Library/Core/Src/usbh_ctlreq.c ****         status = USBH_FAIL;
 918              		.loc 1 1108 9 is_stmt 1 view .LVU323
ARM GAS  /tmp/ccDTG3e6.s 			page 40


1108:Middlewares/ST/STM32_USB_Host_Library/Core/Src/usbh_ctlreq.c ****         status = USBH_FAIL;
 919              		.loc 1 1108 23 is_stmt 0 view .LVU324
 920 01c2 2570     		strb	r5, [r4]
1109:Middlewares/ST/STM32_USB_Host_Library/Core/Src/usbh_ctlreq.c ****       }
 921              		.loc 1 1109 9 is_stmt 1 view .LVU325
 922              	.LVL69:
1109:Middlewares/ST/STM32_USB_Host_Library/Core/Src/usbh_ctlreq.c ****       }
 923              		.loc 1 1109 16 is_stmt 0 view .LVU326
 924 01c4 0225     		movs	r5, #2
 925 01c6 32E7     		b	.L30
 926              	.LVL70:
 927              	.L60:
 754:Middlewares/ST/STM32_USB_Host_Library/Core/Src/usbh_ctlreq.c ****   {
 928              		.loc 1 754 3 view .LVU327
 929 01c8 0125     		movs	r5, #1
 930 01ca 30E7     		b	.L30
 931              	.LVL71:
 932              	.L62:
 861:Middlewares/ST/STM32_USB_Host_Library/Core/Src/usbh_ctlreq.c **** 
 933              		.loc 1 861 16 view .LVU328
 934 01cc 0325     		movs	r5, #3
 935 01ce 2EE7     		b	.L30
 936              	.L64:
 902:Middlewares/ST/STM32_USB_Host_Library/Core/Src/usbh_ctlreq.c **** 
 937              		.loc 1 902 20 view .LVU329
 938 01d0 0125     		movs	r5, #1
 939 01d2 2CE7     		b	.L30
 940              	.L65:
1015:Middlewares/ST/STM32_USB_Host_Library/Core/Src/usbh_ctlreq.c **** 
 941              		.loc 1 1015 18 view .LVU330
 942 01d4 0325     		movs	r5, #3
 943 01d6 2AE7     		b	.L30
 944              		.cfi_endproc
 945              	.LFE149:
 947              		.section	.text.USBH_GetNextDesc,"ax",%progbits
 948              		.align	1
 949              		.global	USBH_GetNextDesc
 950              		.syntax unified
 951              		.thumb
 952              		.thumb_func
 954              	USBH_GetNextDesc:
 955              	.LVL72:
 956              	.LFB147:
 661:Middlewares/ST/STM32_USB_Host_Library/Core/Src/usbh_ctlreq.c ****   USBH_DescHeader_t  *pnext;
 957              		.loc 1 661 1 is_stmt 1 view -0
 958              		.cfi_startproc
 959              		@ args = 0, pretend = 0, frame = 0
 960              		@ frame_needed = 0, uses_anonymous_args = 0
 961              		@ link register save eliminated.
 662:Middlewares/ST/STM32_USB_Host_Library/Core/Src/usbh_ctlreq.c **** 
 962              		.loc 1 662 3 view .LVU332
 664:Middlewares/ST/STM32_USB_Host_Library/Core/Src/usbh_ctlreq.c ****   pnext = (USBH_DescHeader_t *)(void *)((uint8_t *)(void *)pbuf + \
 963              		.loc 1 664 3 view .LVU333
 964 0000 0B88     		ldrh	r3, [r1]
 664:Middlewares/ST/STM32_USB_Host_Library/Core/Src/usbh_ctlreq.c ****   pnext = (USBH_DescHeader_t *)(void *)((uint8_t *)(void *)pbuf + \
 965              		.loc 1 664 46 is_stmt 0 view .LVU334
 966 0002 0278     		ldrb	r2, [r0]	@ zero_extendqisi2
ARM GAS  /tmp/ccDTG3e6.s 			page 41


 664:Middlewares/ST/STM32_USB_Host_Library/Core/Src/usbh_ctlreq.c ****   pnext = (USBH_DescHeader_t *)(void *)((uint8_t *)(void *)pbuf + \
 967              		.loc 1 664 8 view .LVU335
 968 0004 1344     		add	r3, r3, r2
 969 0006 0B80     		strh	r3, [r1]	@ movhi
 665:Middlewares/ST/STM32_USB_Host_Library/Core/Src/usbh_ctlreq.c ****                                         ((USBH_DescHeader_t *)(void *)pbuf)->bLength);
 970              		.loc 1 665 3 is_stmt 1 view .LVU336
 666:Middlewares/ST/STM32_USB_Host_Library/Core/Src/usbh_ctlreq.c **** 
 971              		.loc 1 666 76 is_stmt 0 view .LVU337
 972 0008 0378     		ldrb	r3, [r0]	@ zero_extendqisi2
 973              	.LVL73:
 668:Middlewares/ST/STM32_USB_Host_Library/Core/Src/usbh_ctlreq.c **** }
 974              		.loc 1 668 3 is_stmt 1 view .LVU338
 669:Middlewares/ST/STM32_USB_Host_Library/Core/Src/usbh_ctlreq.c **** 
 975              		.loc 1 669 1 is_stmt 0 view .LVU339
 976 000a 1844     		add	r0, r0, r3
 977              	.LVL74:
 669:Middlewares/ST/STM32_USB_Host_Library/Core/Src/usbh_ctlreq.c **** 
 978              		.loc 1 669 1 view .LVU340
 979 000c 7047     		bx	lr
 980              		.cfi_endproc
 981              	.LFE147:
 983              		.section	.text.USBH_ParseCfgDesc,"ax",%progbits
 984              		.align	1
 985              		.syntax unified
 986              		.thumb
 987              		.thumb_func
 989              	USBH_ParseCfgDesc:
 990              	.LVL75:
 991              	.LFB143:
 403:Middlewares/ST/STM32_USB_Host_Library/Core/Src/usbh_ctlreq.c ****   USBH_CfgDescTypeDef *cfg_desc = &phost->device.CfgDesc;
 992              		.loc 1 403 1 is_stmt 1 view -0
 993              		.cfi_startproc
 994              		@ args = 0, pretend = 0, frame = 8
 995              		@ frame_needed = 0, uses_anonymous_args = 0
 403:Middlewares/ST/STM32_USB_Host_Library/Core/Src/usbh_ctlreq.c ****   USBH_CfgDescTypeDef *cfg_desc = &phost->device.CfgDesc;
 996              		.loc 1 403 1 is_stmt 0 view .LVU342
 997 0000 2DE9F043 		push	{r4, r5, r6, r7, r8, r9, lr}
 998              		.cfi_def_cfa_offset 28
 999              		.cfi_offset 4, -28
 1000              		.cfi_offset 5, -24
 1001              		.cfi_offset 6, -20
 1002              		.cfi_offset 7, -16
 1003              		.cfi_offset 8, -12
 1004              		.cfi_offset 9, -8
 1005              		.cfi_offset 14, -4
 1006 0004 83B0     		sub	sp, sp, #12
 1007              		.cfi_def_cfa_offset 40
 1008 0006 0546     		mov	r5, r0
 1009 0008 0C46     		mov	r4, r1
 404:Middlewares/ST/STM32_USB_Host_Library/Core/Src/usbh_ctlreq.c ****   USBH_StatusTypeDef           status = USBH_OK;
 1010              		.loc 1 404 3 is_stmt 1 view .LVU343
 1011              	.LVL76:
 405:Middlewares/ST/STM32_USB_Host_Library/Core/Src/usbh_ctlreq.c ****   USBH_InterfaceDescTypeDef    *pif ;
 1012              		.loc 1 405 3 view .LVU344
 406:Middlewares/ST/STM32_USB_Host_Library/Core/Src/usbh_ctlreq.c ****   USBH_EpDescTypeDef           *pep;
 1013              		.loc 1 406 3 view .LVU345
 407:Middlewares/ST/STM32_USB_Host_Library/Core/Src/usbh_ctlreq.c ****   USBH_DescHeader_t            *pdesc = (USBH_DescHeader_t *)(void *)buf;
ARM GAS  /tmp/ccDTG3e6.s 			page 42


 1014              		.loc 1 407 3 view .LVU346
 408:Middlewares/ST/STM32_USB_Host_Library/Core/Src/usbh_ctlreq.c ****   uint16_t                     ptr;
 1015              		.loc 1 408 3 view .LVU347
 409:Middlewares/ST/STM32_USB_Host_Library/Core/Src/usbh_ctlreq.c ****   uint8_t                      if_ix = 0U;
 1016              		.loc 1 409 3 view .LVU348
 410:Middlewares/ST/STM32_USB_Host_Library/Core/Src/usbh_ctlreq.c ****   uint8_t                      ep_ix = 0U;
 1017              		.loc 1 410 3 view .LVU349
 411:Middlewares/ST/STM32_USB_Host_Library/Core/Src/usbh_ctlreq.c **** 
 1018              		.loc 1 411 3 view .LVU350
 413:Middlewares/ST/STM32_USB_Host_Library/Core/Src/usbh_ctlreq.c **** 
 1019              		.loc 1 413 3 view .LVU351
 416:Middlewares/ST/STM32_USB_Host_Library/Core/Src/usbh_ctlreq.c ****   cfg_desc->bDescriptorType     = *(uint8_t *)(buf + 1);
 1020              		.loc 1 416 3 view .LVU352
 416:Middlewares/ST/STM32_USB_Host_Library/Core/Src/usbh_ctlreq.c ****   cfg_desc->bDescriptorType     = *(uint8_t *)(buf + 1);
 1021              		.loc 1 416 35 is_stmt 0 view .LVU353
 1022 000a 0978     		ldrb	r1, [r1]	@ zero_extendqisi2
 1023              	.LVL77:
 416:Middlewares/ST/STM32_USB_Host_Library/Core/Src/usbh_ctlreq.c ****   cfg_desc->bDescriptorType     = *(uint8_t *)(buf + 1);
 1024              		.loc 1 416 33 view .LVU354
 1025 000c 80F83813 		strb	r1, [r0, #824]
 417:Middlewares/ST/STM32_USB_Host_Library/Core/Src/usbh_ctlreq.c ****   cfg_desc->wTotalLength        = MIN(((uint16_t) LE16(buf + 2)), ((uint16_t)USBH_MAX_SIZE_CONFIGUR
 1026              		.loc 1 417 3 is_stmt 1 view .LVU355
 417:Middlewares/ST/STM32_USB_Host_Library/Core/Src/usbh_ctlreq.c ****   cfg_desc->wTotalLength        = MIN(((uint16_t) LE16(buf + 2)), ((uint16_t)USBH_MAX_SIZE_CONFIGUR
 1027              		.loc 1 417 33 is_stmt 0 view .LVU356
 1028 0010 6378     		ldrb	r3, [r4, #1]	@ zero_extendqisi2
 1029 0012 80F83933 		strb	r3, [r0, #825]
 418:Middlewares/ST/STM32_USB_Host_Library/Core/Src/usbh_ctlreq.c ****   cfg_desc->bNumInterfaces      = *(uint8_t *)(buf + 4);
 1030              		.loc 1 418 3 is_stmt 1 view .LVU357
 418:Middlewares/ST/STM32_USB_Host_Library/Core/Src/usbh_ctlreq.c ****   cfg_desc->bNumInterfaces      = *(uint8_t *)(buf + 4);
 1031              		.loc 1 418 35 is_stmt 0 view .LVU358
 1032 0016 A378     		ldrb	r3, [r4, #2]	@ zero_extendqisi2
 1033 0018 E078     		ldrb	r0, [r4, #3]	@ zero_extendqisi2
 1034              	.LVL78:
 418:Middlewares/ST/STM32_USB_Host_Library/Core/Src/usbh_ctlreq.c ****   cfg_desc->bNumInterfaces      = *(uint8_t *)(buf + 4);
 1035              		.loc 1 418 35 view .LVU359
 1036 001a 43EA0023 		orr	r3, r3, r0, lsl #8
 1037 001e B3F5807F 		cmp	r3, #256
 1038 0022 28BF     		it	cs
 1039 0024 4FF48073 		movcs	r3, #256
 418:Middlewares/ST/STM32_USB_Host_Library/Core/Src/usbh_ctlreq.c ****   cfg_desc->bNumInterfaces      = *(uint8_t *)(buf + 4);
 1040              		.loc 1 418 33 view .LVU360
 1041 0028 A5F83A33 		strh	r3, [r5, #826]	@ movhi
 419:Middlewares/ST/STM32_USB_Host_Library/Core/Src/usbh_ctlreq.c ****   cfg_desc->bConfigurationValue = *(uint8_t *)(buf + 5);
 1042              		.loc 1 419 3 is_stmt 1 view .LVU361
 419:Middlewares/ST/STM32_USB_Host_Library/Core/Src/usbh_ctlreq.c ****   cfg_desc->bConfigurationValue = *(uint8_t *)(buf + 5);
 1043              		.loc 1 419 33 is_stmt 0 view .LVU362
 1044 002c 2379     		ldrb	r3, [r4, #4]	@ zero_extendqisi2
 1045 002e 85F83C33 		strb	r3, [r5, #828]
 420:Middlewares/ST/STM32_USB_Host_Library/Core/Src/usbh_ctlreq.c ****   cfg_desc->iConfiguration      = *(uint8_t *)(buf + 6);
 1046              		.loc 1 420 3 is_stmt 1 view .LVU363
 420:Middlewares/ST/STM32_USB_Host_Library/Core/Src/usbh_ctlreq.c ****   cfg_desc->iConfiguration      = *(uint8_t *)(buf + 6);
 1047              		.loc 1 420 33 is_stmt 0 view .LVU364
 1048 0032 6379     		ldrb	r3, [r4, #5]	@ zero_extendqisi2
 1049 0034 85F83D33 		strb	r3, [r5, #829]
 421:Middlewares/ST/STM32_USB_Host_Library/Core/Src/usbh_ctlreq.c ****   cfg_desc->bmAttributes        = *(uint8_t *)(buf + 7);
 1050              		.loc 1 421 3 is_stmt 1 view .LVU365
 421:Middlewares/ST/STM32_USB_Host_Library/Core/Src/usbh_ctlreq.c ****   cfg_desc->bmAttributes        = *(uint8_t *)(buf + 7);
ARM GAS  /tmp/ccDTG3e6.s 			page 43


 1051              		.loc 1 421 33 is_stmt 0 view .LVU366
 1052 0038 A379     		ldrb	r3, [r4, #6]	@ zero_extendqisi2
 1053 003a 85F83E33 		strb	r3, [r5, #830]
 422:Middlewares/ST/STM32_USB_Host_Library/Core/Src/usbh_ctlreq.c ****   cfg_desc->bMaxPower           = *(uint8_t *)(buf + 8);
 1054              		.loc 1 422 3 is_stmt 1 view .LVU367
 422:Middlewares/ST/STM32_USB_Host_Library/Core/Src/usbh_ctlreq.c ****   cfg_desc->bMaxPower           = *(uint8_t *)(buf + 8);
 1055              		.loc 1 422 33 is_stmt 0 view .LVU368
 1056 003e E379     		ldrb	r3, [r4, #7]	@ zero_extendqisi2
 1057 0040 85F83F33 		strb	r3, [r5, #831]
 423:Middlewares/ST/STM32_USB_Host_Library/Core/Src/usbh_ctlreq.c **** 
 1058              		.loc 1 423 3 is_stmt 1 view .LVU369
 423:Middlewares/ST/STM32_USB_Host_Library/Core/Src/usbh_ctlreq.c **** 
 1059              		.loc 1 423 33 is_stmt 0 view .LVU370
 1060 0044 237A     		ldrb	r3, [r4, #8]	@ zero_extendqisi2
 1061 0046 85F84033 		strb	r3, [r5, #832]
 426:Middlewares/ST/STM32_USB_Host_Library/Core/Src/usbh_ctlreq.c ****   {
 1062              		.loc 1 426 3 is_stmt 1 view .LVU371
 426:Middlewares/ST/STM32_USB_Host_Library/Core/Src/usbh_ctlreq.c ****   {
 1063              		.loc 1 426 6 is_stmt 0 view .LVU372
 1064 004a 0929     		cmp	r1, #9
 1065 004c 02D0     		beq	.L80
 428:Middlewares/ST/STM32_USB_Host_Library/Core/Src/usbh_ctlreq.c ****   }
 1066              		.loc 1 428 5 is_stmt 1 view .LVU373
 428:Middlewares/ST/STM32_USB_Host_Library/Core/Src/usbh_ctlreq.c ****   }
 1067              		.loc 1 428 23 is_stmt 0 view .LVU374
 1068 004e 0923     		movs	r3, #9
 1069 0050 85F83833 		strb	r3, [r5, #824]
 1070              	.L80:
 431:Middlewares/ST/STM32_USB_Host_Library/Core/Src/usbh_ctlreq.c ****   {
 1071              		.loc 1 431 3 is_stmt 1 view .LVU375
 431:Middlewares/ST/STM32_USB_Host_Library/Core/Src/usbh_ctlreq.c ****   {
 1072              		.loc 1 431 6 is_stmt 0 view .LVU376
 1073 0054 092A     		cmp	r2, #9
 1074 0056 7FD9     		bls	.L93
 433:Middlewares/ST/STM32_USB_Host_Library/Core/Src/usbh_ctlreq.c ****     pif = (USBH_InterfaceDescTypeDef *)NULL;
 1075              		.loc 1 433 5 is_stmt 1 view .LVU377
 433:Middlewares/ST/STM32_USB_Host_Library/Core/Src/usbh_ctlreq.c ****     pif = (USBH_InterfaceDescTypeDef *)NULL;
 1076              		.loc 1 433 9 is_stmt 0 view .LVU378
 1077 0058 0923     		movs	r3, #9
 1078 005a ADF80630 		strh	r3, [sp, #6]	@ movhi
 434:Middlewares/ST/STM32_USB_Host_Library/Core/Src/usbh_ctlreq.c **** 
 1079              		.loc 1 434 5 is_stmt 1 view .LVU379
 1080              	.LVL79:
 436:Middlewares/ST/STM32_USB_Host_Library/Core/Src/usbh_ctlreq.c ****     {
 1081              		.loc 1 436 5 view .LVU380
 410:Middlewares/ST/STM32_USB_Host_Library/Core/Src/usbh_ctlreq.c ****   uint8_t                      ep_ix = 0U;
 1082              		.loc 1 410 32 is_stmt 0 view .LVU381
 1083 005e 0026     		movs	r6, #0
 405:Middlewares/ST/STM32_USB_Host_Library/Core/Src/usbh_ctlreq.c ****   USBH_InterfaceDescTypeDef    *pif ;
 1084              		.loc 1 405 32 view .LVU382
 1085 0060 3746     		mov	r7, r6
 1086              	.LVL80:
 1087              	.L83:
 436:Middlewares/ST/STM32_USB_Host_Library/Core/Src/usbh_ctlreq.c ****     {
 1088              		.loc 1 436 46 is_stmt 1 view .LVU383
 1089 0062 012E     		cmp	r6, #1
 1090 0064 6FD8     		bhi	.L91
ARM GAS  /tmp/ccDTG3e6.s 			page 44


 436:Middlewares/ST/STM32_USB_Host_Library/Core/Src/usbh_ctlreq.c ****     {
 1091              		.loc 1 436 64 is_stmt 0 discriminator 1 view .LVU384
 1092 0066 B5F83A23 		ldrh	r2, [r5, #826]
 436:Middlewares/ST/STM32_USB_Host_Library/Core/Src/usbh_ctlreq.c ****     {
 1093              		.loc 1 436 54 discriminator 1 view .LVU385
 1094 006a BDF80630 		ldrh	r3, [sp, #6]
 436:Middlewares/ST/STM32_USB_Host_Library/Core/Src/usbh_ctlreq.c ****     {
 1095              		.loc 1 436 46 discriminator 1 view .LVU386
 1096 006e 9A42     		cmp	r2, r3
 1097 0070 69D9     		bls	.L91
 438:Middlewares/ST/STM32_USB_Host_Library/Core/Src/usbh_ctlreq.c ****       if (pdesc->bDescriptorType == USB_DESC_TYPE_INTERFACE)
 1098              		.loc 1 438 7 is_stmt 1 view .LVU387
 438:Middlewares/ST/STM32_USB_Host_Library/Core/Src/usbh_ctlreq.c ****       if (pdesc->bDescriptorType == USB_DESC_TYPE_INTERFACE)
 1099              		.loc 1 438 15 is_stmt 0 view .LVU388
 1100 0072 0DF10601 		add	r1, sp, #6
 1101 0076 2046     		mov	r0, r4
 1102 0078 FFF7FEFF 		bl	USBH_GetNextDesc
 1103              	.LVL81:
 1104 007c 0446     		mov	r4, r0
 1105              	.LVL82:
 439:Middlewares/ST/STM32_USB_Host_Library/Core/Src/usbh_ctlreq.c ****       {
 1106              		.loc 1 439 7 is_stmt 1 view .LVU389
 439:Middlewares/ST/STM32_USB_Host_Library/Core/Src/usbh_ctlreq.c ****       {
 1107              		.loc 1 439 16 is_stmt 0 view .LVU390
 1108 007e 4378     		ldrb	r3, [r0, #1]	@ zero_extendqisi2
 439:Middlewares/ST/STM32_USB_Host_Library/Core/Src/usbh_ctlreq.c ****       {
 1109              		.loc 1 439 10 view .LVU391
 1110 0080 042B     		cmp	r3, #4
 1111 0082 EED1     		bne	.L83
 442:Middlewares/ST/STM32_USB_Host_Library/Core/Src/usbh_ctlreq.c ****         {
 1112              		.loc 1 442 9 is_stmt 1 view .LVU392
 442:Middlewares/ST/STM32_USB_Host_Library/Core/Src/usbh_ctlreq.c ****         {
 1113              		.loc 1 442 18 is_stmt 0 view .LVU393
 1114 0084 0378     		ldrb	r3, [r0]	@ zero_extendqisi2
 442:Middlewares/ST/STM32_USB_Host_Library/Core/Src/usbh_ctlreq.c ****         {
 1115              		.loc 1 442 12 view .LVU394
 1116 0086 092B     		cmp	r3, #9
 1117 0088 01D0     		beq	.L84
 444:Middlewares/ST/STM32_USB_Host_Library/Core/Src/usbh_ctlreq.c ****         }
 1118              		.loc 1 444 11 is_stmt 1 view .LVU395
 444:Middlewares/ST/STM32_USB_Host_Library/Core/Src/usbh_ctlreq.c ****         }
 1119              		.loc 1 444 26 is_stmt 0 view .LVU396
 1120 008a 0923     		movs	r3, #9
 1121 008c 0370     		strb	r3, [r0]
 1122              	.L84:
 447:Middlewares/ST/STM32_USB_Host_Library/Core/Src/usbh_ctlreq.c ****         USBH_ParseInterfaceDesc(pif, (uint8_t *)(void *)pdesc);
 1123              		.loc 1 447 9 is_stmt 1 view .LVU397
 447:Middlewares/ST/STM32_USB_Host_Library/Core/Src/usbh_ctlreq.c ****         USBH_ParseInterfaceDesc(pif, (uint8_t *)(void *)pdesc);
 1124              		.loc 1 447 34 is_stmt 0 view .LVU398
 1125 008e B146     		mov	r9, r6
 447:Middlewares/ST/STM32_USB_Host_Library/Core/Src/usbh_ctlreq.c ****         USBH_ParseInterfaceDesc(pif, (uint8_t *)(void *)pdesc);
 1126              		.loc 1 447 13 view .LVU399
 1127 0090 05F54E70 		add	r0, r5, #824
 1128              	.LVL83:
 447:Middlewares/ST/STM32_USB_Host_Library/Core/Src/usbh_ctlreq.c ****         USBH_ParseInterfaceDesc(pif, (uint8_t *)(void *)pdesc);
 1129              		.loc 1 447 13 view .LVU400
 1130 0094 1A23     		movs	r3, #26
ARM GAS  /tmp/ccDTG3e6.s 			page 45


 1131 0096 06FB03F3 		mul	r3, r6, r3
 1132 009a 0833     		adds	r3, r3, #8
 1133 009c 1844     		add	r0, r0, r3
 1134              	.LVL84:
 448:Middlewares/ST/STM32_USB_Host_Library/Core/Src/usbh_ctlreq.c **** 
 1135              		.loc 1 448 9 is_stmt 1 view .LVU401
 1136 009e 2146     		mov	r1, r4
 1137 00a0 0230     		adds	r0, r0, #2
 1138              	.LVL85:
 448:Middlewares/ST/STM32_USB_Host_Library/Core/Src/usbh_ctlreq.c **** 
 1139              		.loc 1 448 9 is_stmt 0 view .LVU402
 1140 00a2 FFF7FEFF 		bl	USBH_ParseInterfaceDesc
 1141              	.LVL86:
 450:Middlewares/ST/STM32_USB_Host_Library/Core/Src/usbh_ctlreq.c ****         pep = (USBH_EpDescTypeDef *)NULL;
 1142              		.loc 1 450 9 is_stmt 1 view .LVU403
 451:Middlewares/ST/STM32_USB_Host_Library/Core/Src/usbh_ctlreq.c **** 
 1143              		.loc 1 451 9 view .LVU404
 453:Middlewares/ST/STM32_USB_Host_Library/Core/Src/usbh_ctlreq.c ****         {
 1144              		.loc 1 453 9 view .LVU405
 450:Middlewares/ST/STM32_USB_Host_Library/Core/Src/usbh_ctlreq.c ****         pep = (USBH_EpDescTypeDef *)NULL;
 1145              		.loc 1 450 15 is_stmt 0 view .LVU406
 1146 00a6 4FF00008 		mov	r8, #0
 453:Middlewares/ST/STM32_USB_Host_Library/Core/Src/usbh_ctlreq.c ****         {
 1147              		.loc 1 453 15 view .LVU407
 1148 00aa 24E0     		b	.L85
 1149              	.LVL87:
 1150              	.L97:
 460:Middlewares/ST/STM32_USB_Host_Library/Core/Src/usbh_ctlreq.c ****             {
 1151              		.loc 1 460 56 discriminator 1 view .LVU408
 1152 00ac 1A23     		movs	r3, #26
 1153              	.LVL88:
 460:Middlewares/ST/STM32_USB_Host_Library/Core/Src/usbh_ctlreq.c ****             {
 1154              		.loc 1 460 56 discriminator 1 view .LVU409
 1155 00ae 03FB0953 		mla	r3, r3, r9, r5
 1156              	.LVL89:
 460:Middlewares/ST/STM32_USB_Host_Library/Core/Src/usbh_ctlreq.c ****             {
 1157              		.loc 1 460 56 discriminator 1 view .LVU410
 1158 00b2 93F84833 		ldrb	r3, [r3, #840]	@ zero_extendqisi2
 460:Middlewares/ST/STM32_USB_Host_Library/Core/Src/usbh_ctlreq.c ****             {
 1159              		.loc 1 460 49 discriminator 1 view .LVU411
 1160 00b6 022B     		cmp	r3, #2
 1161 00b8 3AD1     		bne	.L87
 463:Middlewares/ST/STM32_USB_Host_Library/Core/Src/usbh_ctlreq.c ****               {
 1162              		.loc 1 463 15 is_stmt 1 view .LVU412
 463:Middlewares/ST/STM32_USB_Host_Library/Core/Src/usbh_ctlreq.c ****               {
 1163              		.loc 1 463 23 is_stmt 0 view .LVU413
 1164 00ba 1A23     		movs	r3, #26
 1165              	.LVL90:
 463:Middlewares/ST/STM32_USB_Host_Library/Core/Src/usbh_ctlreq.c ****               {
 1166              		.loc 1 463 23 view .LVU414
 1167 00bc 03FB0953 		mla	r3, r3, r9, r5
 1168              	.LVL91:
 463:Middlewares/ST/STM32_USB_Host_Library/Core/Src/usbh_ctlreq.c ****               {
 1169              		.loc 1 463 23 view .LVU415
 1170 00c0 93F84933 		ldrb	r3, [r3, #841]	@ zero_extendqisi2
 463:Middlewares/ST/STM32_USB_Host_Library/Core/Src/usbh_ctlreq.c ****               {
 1171              		.loc 1 463 18 view .LVU416
ARM GAS  /tmp/ccDTG3e6.s 			page 46


 1172 00c4 23B9     		cbnz	r3, .L88
 463:Middlewares/ST/STM32_USB_Host_Library/Core/Src/usbh_ctlreq.c ****               {
 1173              		.loc 1 463 63 discriminator 1 view .LVU417
 1174 00c6 0378     		ldrb	r3, [r0]	@ zero_extendqisi2
 463:Middlewares/ST/STM32_USB_Host_Library/Core/Src/usbh_ctlreq.c ****               {
 1175              		.loc 1 463 54 discriminator 1 view .LVU418
 1176 00c8 092B     		cmp	r3, #9
 1177 00ca 01D0     		beq	.L88
 465:Middlewares/ST/STM32_USB_Host_Library/Core/Src/usbh_ctlreq.c ****               }
 1178              		.loc 1 465 17 is_stmt 1 view .LVU419
 465:Middlewares/ST/STM32_USB_Host_Library/Core/Src/usbh_ctlreq.c ****               }
 1179              		.loc 1 465 32 is_stmt 0 view .LVU420
 1180 00cc 0923     		movs	r3, #9
 1181 00ce 0370     		strb	r3, [r0]
 1182              	.L88:
 477:Middlewares/ST/STM32_USB_Host_Library/Core/Src/usbh_ctlreq.c **** 
 1183              		.loc 1 477 13 is_stmt 1 view .LVU421
 479:Middlewares/ST/STM32_USB_Host_Library/Core/Src/usbh_ctlreq.c **** 
 1184              		.loc 1 479 13 view .LVU422
 479:Middlewares/ST/STM32_USB_Host_Library/Core/Src/usbh_ctlreq.c **** 
 1185              		.loc 1 479 17 is_stmt 0 view .LVU423
 1186 00d0 05F54E71 		add	r1, r5, #824
 1187 00d4 08F10108 		add	r8, r8, #1
 1188              	.LVL92:
 479:Middlewares/ST/STM32_USB_Host_Library/Core/Src/usbh_ctlreq.c **** 
 1189              		.loc 1 479 17 view .LVU424
 1190 00d8 1A23     		movs	r3, #26
 1191              	.LVL93:
 479:Middlewares/ST/STM32_USB_Host_Library/Core/Src/usbh_ctlreq.c **** 
 1192              		.loc 1 479 17 view .LVU425
 1193 00da 03FB09F3 		mul	r3, r3, r9
 1194              	.LVL94:
 479:Middlewares/ST/STM32_USB_Host_Library/Core/Src/usbh_ctlreq.c **** 
 1195              		.loc 1 479 17 view .LVU426
 1196 00de 03EBC803 		add	r3, r3, r8, lsl #3
 1197 00e2 0833     		adds	r3, r3, #8
 1198 00e4 1944     		add	r1, r1, r3
 1199              	.LVL95:
 481:Middlewares/ST/STM32_USB_Host_Library/Core/Src/usbh_ctlreq.c **** 
 1200              		.loc 1 481 13 is_stmt 1 view .LVU427
 481:Middlewares/ST/STM32_USB_Host_Library/Core/Src/usbh_ctlreq.c **** 
 1201              		.loc 1 481 22 is_stmt 0 view .LVU428
 1202 00e6 2246     		mov	r2, r4
 1203 00e8 0431     		adds	r1, r1, #4
 1204              	.LVL96:
 481:Middlewares/ST/STM32_USB_Host_Library/Core/Src/usbh_ctlreq.c **** 
 1205              		.loc 1 481 22 view .LVU429
 1206 00ea 2846     		mov	r0, r5
 1207              	.LVL97:
 481:Middlewares/ST/STM32_USB_Host_Library/Core/Src/usbh_ctlreq.c **** 
 1208              		.loc 1 481 22 view .LVU430
 1209 00ec FFF7FEFF 		bl	USBH_ParseEPDesc
 1210              	.LVL98:
 481:Middlewares/ST/STM32_USB_Host_Library/Core/Src/usbh_ctlreq.c **** 
 1211              		.loc 1 481 22 view .LVU431
 1212 00f0 0746     		mov	r7, r0
 1213              	.LVL99:
ARM GAS  /tmp/ccDTG3e6.s 			page 47


 483:Middlewares/ST/STM32_USB_Host_Library/Core/Src/usbh_ctlreq.c ****           }
 1214              		.loc 1 483 13 is_stmt 1 view .LVU432
 483:Middlewares/ST/STM32_USB_Host_Library/Core/Src/usbh_ctlreq.c ****           }
 1215              		.loc 1 483 18 is_stmt 0 view .LVU433
 1216 00f2 5FFA88F8 		uxtb	r8, r8
 1217              	.LVL100:
 1218              	.L85:
 453:Middlewares/ST/STM32_USB_Host_Library/Core/Src/usbh_ctlreq.c ****         {
 1219              		.loc 1 453 45 is_stmt 1 view .LVU434
 453:Middlewares/ST/STM32_USB_Host_Library/Core/Src/usbh_ctlreq.c ****         {
 1220              		.loc 1 453 28 is_stmt 0 view .LVU435
 1221 00f6 1A23     		movs	r3, #26
 1222              	.LVL101:
 453:Middlewares/ST/STM32_USB_Host_Library/Core/Src/usbh_ctlreq.c ****         {
 1223              		.loc 1 453 28 view .LVU436
 1224 00f8 03FB0953 		mla	r3, r3, r9, r5
 1225              	.LVL102:
 453:Middlewares/ST/STM32_USB_Host_Library/Core/Src/usbh_ctlreq.c ****         {
 1226              		.loc 1 453 28 view .LVU437
 1227 00fc 93F84633 		ldrb	r3, [r3, #838]	@ zero_extendqisi2
 453:Middlewares/ST/STM32_USB_Host_Library/Core/Src/usbh_ctlreq.c ****         {
 1228              		.loc 1 453 45 view .LVU438
 1229 0100 4345     		cmp	r3, r8
 1230 0102 1BD9     		bls	.L89
 453:Middlewares/ST/STM32_USB_Host_Library/Core/Src/usbh_ctlreq.c ****         {
 1231              		.loc 1 453 63 discriminator 1 view .LVU439
 1232 0104 B5F83A13 		ldrh	r1, [r5, #826]
 453:Middlewares/ST/STM32_USB_Host_Library/Core/Src/usbh_ctlreq.c ****         {
 1233              		.loc 1 453 53 discriminator 1 view .LVU440
 1234 0108 BDF80620 		ldrh	r2, [sp, #6]
 453:Middlewares/ST/STM32_USB_Host_Library/Core/Src/usbh_ctlreq.c ****         {
 1235              		.loc 1 453 45 discriminator 1 view .LVU441
 1236 010c 9142     		cmp	r1, r2
 1237 010e 15D9     		bls	.L89
 455:Middlewares/ST/STM32_USB_Host_Library/Core/Src/usbh_ctlreq.c **** 
 1238              		.loc 1 455 11 is_stmt 1 view .LVU442
 455:Middlewares/ST/STM32_USB_Host_Library/Core/Src/usbh_ctlreq.c **** 
 1239              		.loc 1 455 19 is_stmt 0 view .LVU443
 1240 0110 0DF10601 		add	r1, sp, #6
 1241 0114 2046     		mov	r0, r4
 1242 0116 FFF7FEFF 		bl	USBH_GetNextDesc
 1243              	.LVL103:
 1244 011a 0446     		mov	r4, r0
 1245              	.LVL104:
 457:Middlewares/ST/STM32_USB_Host_Library/Core/Src/usbh_ctlreq.c ****           {
 1246              		.loc 1 457 11 is_stmt 1 view .LVU444
 457:Middlewares/ST/STM32_USB_Host_Library/Core/Src/usbh_ctlreq.c ****           {
 1247              		.loc 1 457 20 is_stmt 0 view .LVU445
 1248 011c 4378     		ldrb	r3, [r0, #1]	@ zero_extendqisi2
 457:Middlewares/ST/STM32_USB_Host_Library/Core/Src/usbh_ctlreq.c ****           {
 1249              		.loc 1 457 14 view .LVU446
 1250 011e 052B     		cmp	r3, #5
 1251 0120 E9D1     		bne	.L85
 460:Middlewares/ST/STM32_USB_Host_Library/Core/Src/usbh_ctlreq.c ****             {
 1252              		.loc 1 460 13 is_stmt 1 view .LVU447
 460:Middlewares/ST/STM32_USB_Host_Library/Core/Src/usbh_ctlreq.c ****             {
 1253              		.loc 1 460 21 is_stmt 0 view .LVU448
ARM GAS  /tmp/ccDTG3e6.s 			page 48


 1254 0122 1A23     		movs	r3, #26
 1255              	.LVL105:
 460:Middlewares/ST/STM32_USB_Host_Library/Core/Src/usbh_ctlreq.c ****             {
 1256              		.loc 1 460 21 view .LVU449
 1257 0124 03FB0953 		mla	r3, r3, r9, r5
 1258              	.LVL106:
 460:Middlewares/ST/STM32_USB_Host_Library/Core/Src/usbh_ctlreq.c ****             {
 1259              		.loc 1 460 21 view .LVU450
 1260 0128 93F84733 		ldrb	r3, [r3, #839]	@ zero_extendqisi2
 460:Middlewares/ST/STM32_USB_Host_Library/Core/Src/usbh_ctlreq.c ****             {
 1261              		.loc 1 460 16 view .LVU451
 1262 012c 012B     		cmp	r3, #1
 1263 012e BDD0     		beq	.L97
 1264              	.L87:
 470:Middlewares/ST/STM32_USB_Host_Library/Core/Src/usbh_ctlreq.c ****             {
 1265              		.loc 1 470 18 is_stmt 1 view .LVU452
 470:Middlewares/ST/STM32_USB_Host_Library/Core/Src/usbh_ctlreq.c ****             {
 1266              		.loc 1 470 27 is_stmt 0 view .LVU453
 1267 0130 2378     		ldrb	r3, [r4]	@ zero_extendqisi2
 470:Middlewares/ST/STM32_USB_Host_Library/Core/Src/usbh_ctlreq.c ****             {
 1268              		.loc 1 470 21 view .LVU454
 1269 0132 072B     		cmp	r3, #7
 1270 0134 CCD0     		beq	.L88
 472:Middlewares/ST/STM32_USB_Host_Library/Core/Src/usbh_ctlreq.c ****             }
 1271              		.loc 1 472 15 is_stmt 1 view .LVU455
 472:Middlewares/ST/STM32_USB_Host_Library/Core/Src/usbh_ctlreq.c ****             }
 1272              		.loc 1 472 30 is_stmt 0 view .LVU456
 1273 0136 0723     		movs	r3, #7
 1274 0138 2370     		strb	r3, [r4]
 1275 013a C9E7     		b	.L88
 1276              	.LVL107:
 1277              	.L89:
 488:Middlewares/ST/STM32_USB_Host_Library/Core/Src/usbh_ctlreq.c ****         {
 1278              		.loc 1 488 9 is_stmt 1 view .LVU457
 488:Middlewares/ST/STM32_USB_Host_Library/Core/Src/usbh_ctlreq.c ****         {
 1279              		.loc 1 488 12 is_stmt 0 view .LVU458
 1280 013c 4345     		cmp	r3, r8
 1281 013e 10D8     		bhi	.L94
 493:Middlewares/ST/STM32_USB_Host_Library/Core/Src/usbh_ctlreq.c ****       }
 1282              		.loc 1 493 9 is_stmt 1 view .LVU459
 493:Middlewares/ST/STM32_USB_Host_Library/Core/Src/usbh_ctlreq.c ****       }
 1283              		.loc 1 493 14 is_stmt 0 view .LVU460
 1284 0140 0136     		adds	r6, r6, #1
 1285              	.LVL108:
 493:Middlewares/ST/STM32_USB_Host_Library/Core/Src/usbh_ctlreq.c ****       }
 1286              		.loc 1 493 14 view .LVU461
 1287 0142 F6B2     		uxtb	r6, r6
 1288              	.LVL109:
 493:Middlewares/ST/STM32_USB_Host_Library/Core/Src/usbh_ctlreq.c ****       }
 1289              		.loc 1 493 14 view .LVU462
 1290 0144 8DE7     		b	.L83
 1291              	.LVL110:
 1292              	.L91:
 498:Middlewares/ST/STM32_USB_Host_Library/Core/Src/usbh_ctlreq.c ****     {
 1293              		.loc 1 498 5 is_stmt 1 view .LVU463
 498:Middlewares/ST/STM32_USB_Host_Library/Core/Src/usbh_ctlreq.c ****     {
 1294              		.loc 1 498 17 is_stmt 0 view .LVU464
ARM GAS  /tmp/ccDTG3e6.s 			page 49


 1295 0146 95F83C33 		ldrb	r3, [r5, #828]	@ zero_extendqisi2
 1296 014a 022B     		cmp	r3, #2
 1297 014c 28BF     		it	cs
 1298 014e 0223     		movcs	r3, #2
 498:Middlewares/ST/STM32_USB_Host_Library/Core/Src/usbh_ctlreq.c ****     {
 1299              		.loc 1 498 8 view .LVU465
 1300 0150 B342     		cmp	r3, r6
 1301 0152 02D9     		bls	.L81
 500:Middlewares/ST/STM32_USB_Host_Library/Core/Src/usbh_ctlreq.c ****     }
 1302              		.loc 1 500 14 view .LVU466
 1303 0154 0327     		movs	r7, #3
 1304              	.LVL111:
 500:Middlewares/ST/STM32_USB_Host_Library/Core/Src/usbh_ctlreq.c ****     }
 1305              		.loc 1 500 14 view .LVU467
 1306 0156 00E0     		b	.L81
 1307              	.LVL112:
 1308              	.L93:
 405:Middlewares/ST/STM32_USB_Host_Library/Core/Src/usbh_ctlreq.c ****   USBH_InterfaceDescTypeDef    *pif ;
 1309              		.loc 1 405 32 view .LVU468
 1310 0158 0027     		movs	r7, #0
 1311              	.LVL113:
 1312              	.L81:
 505:Middlewares/ST/STM32_USB_Host_Library/Core/Src/usbh_ctlreq.c **** 
 1313              		.loc 1 505 1 view .LVU469
 1314 015a 3846     		mov	r0, r7
 1315 015c 03B0     		add	sp, sp, #12
 1316              		.cfi_remember_state
 1317              		.cfi_def_cfa_offset 28
 1318              		@ sp needed
 1319 015e BDE8F083 		pop	{r4, r5, r6, r7, r8, r9, pc}
 1320              	.LVL114:
 1321              	.L94:
 1322              		.cfi_restore_state
 490:Middlewares/ST/STM32_USB_Host_Library/Core/Src/usbh_ctlreq.c ****         }
 1323              		.loc 1 490 18 view .LVU470
 1324 0162 0327     		movs	r7, #3
 1325              	.LVL115:
 490:Middlewares/ST/STM32_USB_Host_Library/Core/Src/usbh_ctlreq.c ****         }
 1326              		.loc 1 490 18 view .LVU471
 1327 0164 F9E7     		b	.L81
 1328              		.cfi_endproc
 1329              	.LFE143:
 1331              		.section	.text.USBH_CtlReq,"ax",%progbits
 1332              		.align	1
 1333              		.global	USBH_CtlReq
 1334              		.syntax unified
 1335              		.thumb
 1336              		.thumb_func
 1338              	USBH_CtlReq:
 1339              	.LVL116:
 1340              	.LFB148:
 684:Middlewares/ST/STM32_USB_Host_Library/Core/Src/usbh_ctlreq.c ****   USBH_StatusTypeDef status;
 1341              		.loc 1 684 1 is_stmt 1 view -0
 1342              		.cfi_startproc
 1343              		@ args = 0, pretend = 0, frame = 0
 1344              		@ frame_needed = 0, uses_anonymous_args = 0
 684:Middlewares/ST/STM32_USB_Host_Library/Core/Src/usbh_ctlreq.c ****   USBH_StatusTypeDef status;
ARM GAS  /tmp/ccDTG3e6.s 			page 50


 1345              		.loc 1 684 1 is_stmt 0 view .LVU473
 1346 0000 10B5     		push	{r4, lr}
 1347              		.cfi_def_cfa_offset 8
 1348              		.cfi_offset 4, -8
 1349              		.cfi_offset 14, -4
 1350 0002 0446     		mov	r4, r0
 685:Middlewares/ST/STM32_USB_Host_Library/Core/Src/usbh_ctlreq.c ****   status = USBH_BUSY;
 1351              		.loc 1 685 3 is_stmt 1 view .LVU474
 686:Middlewares/ST/STM32_USB_Host_Library/Core/Src/usbh_ctlreq.c **** 
 1352              		.loc 1 686 3 view .LVU475
 1353              	.LVL117:
 688:Middlewares/ST/STM32_USB_Host_Library/Core/Src/usbh_ctlreq.c ****   {
 1354              		.loc 1 688 3 view .LVU476
 688:Middlewares/ST/STM32_USB_Host_Library/Core/Src/usbh_ctlreq.c ****   {
 1355              		.loc 1 688 16 is_stmt 0 view .LVU477
 1356 0004 8078     		ldrb	r0, [r0, #2]	@ zero_extendqisi2
 1357              	.LVL118:
 688:Middlewares/ST/STM32_USB_Host_Library/Core/Src/usbh_ctlreq.c ****   {
 1358              		.loc 1 688 3 view .LVU478
 1359 0006 0128     		cmp	r0, #1
 1360 0008 03D0     		beq	.L99
 1361 000a 0228     		cmp	r0, #2
 1362 000c 08D0     		beq	.L100
 1363 000e 0120     		movs	r0, #1
 1364 0010 05E0     		b	.L101
 1365              	.L99:
 692:Middlewares/ST/STM32_USB_Host_Library/Core/Src/usbh_ctlreq.c ****       phost->Control.length = length;
 1366              		.loc 1 692 7 is_stmt 1 view .LVU479
 692:Middlewares/ST/STM32_USB_Host_Library/Core/Src/usbh_ctlreq.c ****       phost->Control.length = length;
 1367              		.loc 1 692 27 is_stmt 0 view .LVU480
 1368 0012 A160     		str	r1, [r4, #8]
 693:Middlewares/ST/STM32_USB_Host_Library/Core/Src/usbh_ctlreq.c ****       phost->Control.state = CTRL_SETUP;
 1369              		.loc 1 693 7 is_stmt 1 view .LVU481
 693:Middlewares/ST/STM32_USB_Host_Library/Core/Src/usbh_ctlreq.c ****       phost->Control.state = CTRL_SETUP;
 1370              		.loc 1 693 29 is_stmt 0 view .LVU482
 1371 0014 A281     		strh	r2, [r4, #12]	@ movhi
 694:Middlewares/ST/STM32_USB_Host_Library/Core/Src/usbh_ctlreq.c ****       phost->RequestState = CMD_WAIT;
 1372              		.loc 1 694 7 is_stmt 1 view .LVU483
 694:Middlewares/ST/STM32_USB_Host_Library/Core/Src/usbh_ctlreq.c ****       phost->RequestState = CMD_WAIT;
 1373              		.loc 1 694 28 is_stmt 0 view .LVU484
 1374 0016 0123     		movs	r3, #1
 1375 0018 2376     		strb	r3, [r4, #24]
 695:Middlewares/ST/STM32_USB_Host_Library/Core/Src/usbh_ctlreq.c ****       status = USBH_BUSY;
 1376              		.loc 1 695 7 is_stmt 1 view .LVU485
 695:Middlewares/ST/STM32_USB_Host_Library/Core/Src/usbh_ctlreq.c ****       status = USBH_BUSY;
 1377              		.loc 1 695 27 is_stmt 0 view .LVU486
 1378 001a 0223     		movs	r3, #2
 1379 001c A370     		strb	r3, [r4, #2]
 696:Middlewares/ST/STM32_USB_Host_Library/Core/Src/usbh_ctlreq.c **** 
 1380              		.loc 1 696 7 is_stmt 1 view .LVU487
 706:Middlewares/ST/STM32_USB_Host_Library/Core/Src/usbh_ctlreq.c **** 
 1381              		.loc 1 706 7 view .LVU488
 1382              	.LVL119:
 1383              	.L101:
 738:Middlewares/ST/STM32_USB_Host_Library/Core/Src/usbh_ctlreq.c **** }
 1384              		.loc 1 738 3 view .LVU489
 739:Middlewares/ST/STM32_USB_Host_Library/Core/Src/usbh_ctlreq.c **** 
ARM GAS  /tmp/ccDTG3e6.s 			page 51


 1385              		.loc 1 739 1 is_stmt 0 view .LVU490
 1386 001e 10BD     		pop	{r4, pc}
 1387              	.LVL120:
 1388              	.L100:
 709:Middlewares/ST/STM32_USB_Host_Library/Core/Src/usbh_ctlreq.c ****       if ((status == USBH_OK) || (status == USBH_NOT_SUPPORTED))
 1389              		.loc 1 709 7 is_stmt 1 view .LVU491
 709:Middlewares/ST/STM32_USB_Host_Library/Core/Src/usbh_ctlreq.c ****       if ((status == USBH_OK) || (status == USBH_NOT_SUPPORTED))
 1390              		.loc 1 709 16 is_stmt 0 view .LVU492
 1391 0020 2046     		mov	r0, r4
 1392 0022 FFF7FEFF 		bl	USBH_HandleControl
 1393              	.LVL121:
 710:Middlewares/ST/STM32_USB_Host_Library/Core/Src/usbh_ctlreq.c ****       {
 1394              		.loc 1 710 7 is_stmt 1 view .LVU493
 710:Middlewares/ST/STM32_USB_Host_Library/Core/Src/usbh_ctlreq.c ****       {
 1395              		.loc 1 710 10 is_stmt 0 view .LVU494
 1396 0026 30B1     		cbz	r0, .L102
 710:Middlewares/ST/STM32_USB_Host_Library/Core/Src/usbh_ctlreq.c ****       {
 1397              		.loc 1 710 31 discriminator 1 view .LVU495
 1398 0028 0328     		cmp	r0, #3
 1399 002a 04D0     		beq	.L102
 716:Middlewares/ST/STM32_USB_Host_Library/Core/Src/usbh_ctlreq.c ****       {
 1400              		.loc 1 716 12 is_stmt 1 view .LVU496
 716:Middlewares/ST/STM32_USB_Host_Library/Core/Src/usbh_ctlreq.c ****       {
 1401              		.loc 1 716 15 is_stmt 0 view .LVU497
 1402 002c 0228     		cmp	r0, #2
 1403 002e F6D1     		bne	.L101
 719:Middlewares/ST/STM32_USB_Host_Library/Core/Src/usbh_ctlreq.c ****       }
 1404              		.loc 1 719 9 is_stmt 1 view .LVU498
 719:Middlewares/ST/STM32_USB_Host_Library/Core/Src/usbh_ctlreq.c ****       }
 1405              		.loc 1 719 29 is_stmt 0 view .LVU499
 1406 0030 0123     		movs	r3, #1
 1407 0032 A370     		strb	r3, [r4, #2]
 1408 0034 F3E7     		b	.L101
 1409              	.L102:
 713:Middlewares/ST/STM32_USB_Host_Library/Core/Src/usbh_ctlreq.c ****         phost->Control.state = CTRL_IDLE;
 1410              		.loc 1 713 9 is_stmt 1 view .LVU500
 713:Middlewares/ST/STM32_USB_Host_Library/Core/Src/usbh_ctlreq.c ****         phost->Control.state = CTRL_IDLE;
 1411              		.loc 1 713 29 is_stmt 0 view .LVU501
 1412 0036 0123     		movs	r3, #1
 1413 0038 A370     		strb	r3, [r4, #2]
 714:Middlewares/ST/STM32_USB_Host_Library/Core/Src/usbh_ctlreq.c ****       }
 1414              		.loc 1 714 9 is_stmt 1 view .LVU502
 714:Middlewares/ST/STM32_USB_Host_Library/Core/Src/usbh_ctlreq.c ****       }
 1415              		.loc 1 714 30 is_stmt 0 view .LVU503
 1416 003a 0023     		movs	r3, #0
 1417 003c 2376     		strb	r3, [r4, #24]
 1418 003e EEE7     		b	.L101
 1419              		.cfi_endproc
 1420              	.LFE148:
 1422              		.section	.text.USBH_GetDescriptor,"ax",%progbits
 1423              		.align	1
 1424              		.global	USBH_GetDescriptor
 1425              		.syntax unified
 1426              		.thumb
 1427              		.thumb_func
 1429              	USBH_GetDescriptor:
 1430              	.LVL122:
ARM GAS  /tmp/ccDTG3e6.s 			page 52


 1431              	.LFB136:
 199:Middlewares/ST/STM32_USB_Host_Library/Core/Src/usbh_ctlreq.c ****   if (phost->RequestState == CMD_SEND)
 1432              		.loc 1 199 1 is_stmt 1 view -0
 1433              		.cfi_startproc
 1434              		@ args = 4, pretend = 0, frame = 0
 1435              		@ frame_needed = 0, uses_anonymous_args = 0
 199:Middlewares/ST/STM32_USB_Host_Library/Core/Src/usbh_ctlreq.c ****   if (phost->RequestState == CMD_SEND)
 1436              		.loc 1 199 1 is_stmt 0 view .LVU505
 1437 0000 08B5     		push	{r3, lr}
 1438              		.cfi_def_cfa_offset 8
 1439              		.cfi_offset 3, -8
 1440              		.cfi_offset 14, -4
 1441 0002 8E46     		mov	lr, r1
 1442 0004 9446     		mov	ip, r2
 1443 0006 1946     		mov	r1, r3
 1444              	.LVL123:
 199:Middlewares/ST/STM32_USB_Host_Library/Core/Src/usbh_ctlreq.c ****   if (phost->RequestState == CMD_SEND)
 1445              		.loc 1 199 1 view .LVU506
 1446 0008 BDF80820 		ldrh	r2, [sp, #8]
 1447              	.LVL124:
 200:Middlewares/ST/STM32_USB_Host_Library/Core/Src/usbh_ctlreq.c ****   {
 1448              		.loc 1 200 3 is_stmt 1 view .LVU507
 200:Middlewares/ST/STM32_USB_Host_Library/Core/Src/usbh_ctlreq.c ****   {
 1449              		.loc 1 200 12 is_stmt 0 view .LVU508
 1450 000c 8378     		ldrb	r3, [r0, #2]	@ zero_extendqisi2
 1451              	.LVL125:
 200:Middlewares/ST/STM32_USB_Host_Library/Core/Src/usbh_ctlreq.c ****   {
 1452              		.loc 1 200 6 view .LVU509
 1453 000e 012B     		cmp	r3, #1
 1454 0010 02D0     		beq	.L110
 1455              	.LVL126:
 1456              	.L106:
 217:Middlewares/ST/STM32_USB_Host_Library/Core/Src/usbh_ctlreq.c **** }
 1457              		.loc 1 217 3 is_stmt 1 view .LVU510
 217:Middlewares/ST/STM32_USB_Host_Library/Core/Src/usbh_ctlreq.c **** }
 1458              		.loc 1 217 10 is_stmt 0 view .LVU511
 1459 0012 FFF7FEFF 		bl	USBH_CtlReq
 1460              	.LVL127:
 218:Middlewares/ST/STM32_USB_Host_Library/Core/Src/usbh_ctlreq.c **** 
 1461              		.loc 1 218 1 view .LVU512
 1462 0016 08BD     		pop	{r3, pc}
 1463              	.LVL128:
 1464              	.L110:
 202:Middlewares/ST/STM32_USB_Host_Library/Core/Src/usbh_ctlreq.c ****     phost->Control.setup.b.bRequest = USB_REQ_GET_DESCRIPTOR;
 1465              		.loc 1 202 5 is_stmt 1 view .LVU513
 202:Middlewares/ST/STM32_USB_Host_Library/Core/Src/usbh_ctlreq.c ****     phost->Control.setup.b.bRequest = USB_REQ_GET_DESCRIPTOR;
 1466              		.loc 1 202 42 is_stmt 0 view .LVU514
 1467 0018 6EF07F0E 		orn	lr, lr, #127
 1468 001c 80F810E0 		strb	lr, [r0, #16]
 203:Middlewares/ST/STM32_USB_Host_Library/Core/Src/usbh_ctlreq.c ****     phost->Control.setup.b.wValue.w = value_idx;
 1469              		.loc 1 203 5 is_stmt 1 view .LVU515
 203:Middlewares/ST/STM32_USB_Host_Library/Core/Src/usbh_ctlreq.c ****     phost->Control.setup.b.wValue.w = value_idx;
 1470              		.loc 1 203 37 is_stmt 0 view .LVU516
 1471 0020 0623     		movs	r3, #6
 1472 0022 4374     		strb	r3, [r0, #17]
 204:Middlewares/ST/STM32_USB_Host_Library/Core/Src/usbh_ctlreq.c **** 
 1473              		.loc 1 204 5 is_stmt 1 view .LVU517
ARM GAS  /tmp/ccDTG3e6.s 			page 53


 204:Middlewares/ST/STM32_USB_Host_Library/Core/Src/usbh_ctlreq.c **** 
 1474              		.loc 1 204 37 is_stmt 0 view .LVU518
 1475 0024 A0F812C0 		strh	ip, [r0, #18]	@ movhi
 206:Middlewares/ST/STM32_USB_Host_Library/Core/Src/usbh_ctlreq.c ****     {
 1476              		.loc 1 206 5 is_stmt 1 view .LVU519
 206:Middlewares/ST/STM32_USB_Host_Library/Core/Src/usbh_ctlreq.c ****     {
 1477              		.loc 1 206 8 is_stmt 0 view .LVU520
 1478 0028 0CF47F4C 		and	ip, ip, #65280
 1479 002c BCF5407F 		cmp	ip, #768
 1480 0030 03D0     		beq	.L111
 212:Middlewares/ST/STM32_USB_Host_Library/Core/Src/usbh_ctlreq.c ****     }
 1481              		.loc 1 212 7 is_stmt 1 view .LVU521
 212:Middlewares/ST/STM32_USB_Host_Library/Core/Src/usbh_ctlreq.c ****     }
 1482              		.loc 1 212 39 is_stmt 0 view .LVU522
 1483 0032 0023     		movs	r3, #0
 1484 0034 8382     		strh	r3, [r0, #20]	@ movhi
 1485              	.L108:
 214:Middlewares/ST/STM32_USB_Host_Library/Core/Src/usbh_ctlreq.c ****   }
 1486              		.loc 1 214 5 is_stmt 1 view .LVU523
 214:Middlewares/ST/STM32_USB_Host_Library/Core/Src/usbh_ctlreq.c ****   }
 1487              		.loc 1 214 38 is_stmt 0 view .LVU524
 1488 0036 C282     		strh	r2, [r0, #22]	@ movhi
 1489 0038 EBE7     		b	.L106
 1490              	.L111:
 208:Middlewares/ST/STM32_USB_Host_Library/Core/Src/usbh_ctlreq.c ****     }
 1491              		.loc 1 208 7 is_stmt 1 view .LVU525
 208:Middlewares/ST/STM32_USB_Host_Library/Core/Src/usbh_ctlreq.c ****     }
 1492              		.loc 1 208 39 is_stmt 0 view .LVU526
 1493 003a 40F20943 		movw	r3, #1033
 1494 003e 8382     		strh	r3, [r0, #20]	@ movhi
 1495 0040 F9E7     		b	.L108
 1496              		.cfi_endproc
 1497              	.LFE136:
 1499              		.section	.text.USBH_Get_DevDesc,"ax",%progbits
 1500              		.align	1
 1501              		.global	USBH_Get_DevDesc
 1502              		.syntax unified
 1503              		.thumb
 1504              		.thumb_func
 1506              	USBH_Get_DevDesc:
 1507              	.LVL129:
 1508              	.LFB133:
 104:Middlewares/ST/STM32_USB_Host_Library/Core/Src/usbh_ctlreq.c ****   USBH_StatusTypeDef status;
 1509              		.loc 1 104 1 is_stmt 1 view -0
 1510              		.cfi_startproc
 1511              		@ args = 0, pretend = 0, frame = 0
 1512              		@ frame_needed = 0, uses_anonymous_args = 0
 104:Middlewares/ST/STM32_USB_Host_Library/Core/Src/usbh_ctlreq.c ****   USBH_StatusTypeDef status;
 1513              		.loc 1 104 1 is_stmt 0 view .LVU528
 1514 0000 F0B5     		push	{r4, r5, r6, r7, lr}
 1515              		.cfi_def_cfa_offset 20
 1516              		.cfi_offset 4, -20
 1517              		.cfi_offset 5, -16
 1518              		.cfi_offset 6, -12
 1519              		.cfi_offset 7, -8
 1520              		.cfi_offset 14, -4
 1521 0002 83B0     		sub	sp, sp, #12
ARM GAS  /tmp/ccDTG3e6.s 			page 54


 1522              		.cfi_def_cfa_offset 32
 1523 0004 0446     		mov	r4, r0
 1524 0006 0D46     		mov	r5, r1
 105:Middlewares/ST/STM32_USB_Host_Library/Core/Src/usbh_ctlreq.c **** 
 1525              		.loc 1 105 3 is_stmt 1 view .LVU529
 107:Middlewares/ST/STM32_USB_Host_Library/Core/Src/usbh_ctlreq.c ****                               USB_REQ_RECIPIENT_DEVICE | USB_REQ_TYPE_STANDARD,
 1526              		.loc 1 107 3 view .LVU530
 109:Middlewares/ST/STM32_USB_Host_Library/Core/Src/usbh_ctlreq.c ****                               (uint16_t)length);
 1527              		.loc 1 109 61 is_stmt 0 view .LVU531
 1528 0008 00F58E76 		add	r6, r0, #284
 107:Middlewares/ST/STM32_USB_Host_Library/Core/Src/usbh_ctlreq.c ****                               USB_REQ_RECIPIENT_DEVICE | USB_REQ_TYPE_STANDARD,
 1529              		.loc 1 107 12 view .LVU532
 1530 000c 0091     		str	r1, [sp]
 1531 000e 3346     		mov	r3, r6
 1532 0010 4FF48072 		mov	r2, #256
 1533 0014 0021     		movs	r1, #0
 1534              	.LVL130:
 107:Middlewares/ST/STM32_USB_Host_Library/Core/Src/usbh_ctlreq.c ****                               USB_REQ_RECIPIENT_DEVICE | USB_REQ_TYPE_STANDARD,
 1535              		.loc 1 107 12 view .LVU533
 1536 0016 FFF7FEFF 		bl	USBH_GetDescriptor
 1537              	.LVL131:
 112:Middlewares/ST/STM32_USB_Host_Library/Core/Src/usbh_ctlreq.c ****   {
 1538              		.loc 1 112 3 is_stmt 1 view .LVU534
 112:Middlewares/ST/STM32_USB_Host_Library/Core/Src/usbh_ctlreq.c ****   {
 1539              		.loc 1 112 6 is_stmt 0 view .LVU535
 1540 001a 0746     		mov	r7, r0
 1541 001c 10B1     		cbz	r0, .L115
 1542              	.LVL132:
 1543              	.L113:
 119:Middlewares/ST/STM32_USB_Host_Library/Core/Src/usbh_ctlreq.c **** }
 1544              		.loc 1 119 3 is_stmt 1 view .LVU536
 120:Middlewares/ST/STM32_USB_Host_Library/Core/Src/usbh_ctlreq.c **** 
 1545              		.loc 1 120 1 is_stmt 0 view .LVU537
 1546 001e 3846     		mov	r0, r7
 1547 0020 03B0     		add	sp, sp, #12
 1548              		.cfi_remember_state
 1549              		.cfi_def_cfa_offset 20
 1550              		@ sp needed
 1551 0022 F0BD     		pop	{r4, r5, r6, r7, pc}
 1552              	.LVL133:
 1553              	.L115:
 1554              		.cfi_restore_state
 115:Middlewares/ST/STM32_USB_Host_Library/Core/Src/usbh_ctlreq.c ****                       (uint16_t)length);
 1555              		.loc 1 115 5 is_stmt 1 view .LVU538
 1556 0024 2A46     		mov	r2, r5
 1557 0026 3146     		mov	r1, r6
 1558 0028 04F22630 		addw	r0, r4, #806
 1559              	.LVL134:
 115:Middlewares/ST/STM32_USB_Host_Library/Core/Src/usbh_ctlreq.c ****                       (uint16_t)length);
 1560              		.loc 1 115 5 is_stmt 0 view .LVU539
 1561 002c FFF7FEFF 		bl	USBH_ParseDevDesc
 1562              	.LVL135:
 1563 0030 F5E7     		b	.L113
 1564              		.cfi_endproc
 1565              	.LFE133:
 1567              		.section	.text.USBH_Get_CfgDesc,"ax",%progbits
 1568              		.align	1
ARM GAS  /tmp/ccDTG3e6.s 			page 55


 1569              		.global	USBH_Get_CfgDesc
 1570              		.syntax unified
 1571              		.thumb
 1572              		.thumb_func
 1574              	USBH_Get_CfgDesc:
 1575              	.LVL136:
 1576              	.LFB134:
 135:Middlewares/ST/STM32_USB_Host_Library/Core/Src/usbh_ctlreq.c ****   USBH_StatusTypeDef status;
 1577              		.loc 1 135 1 is_stmt 1 view -0
 1578              		.cfi_startproc
 1579              		@ args = 0, pretend = 0, frame = 0
 1580              		@ frame_needed = 0, uses_anonymous_args = 0
 135:Middlewares/ST/STM32_USB_Host_Library/Core/Src/usbh_ctlreq.c ****   USBH_StatusTypeDef status;
 1581              		.loc 1 135 1 is_stmt 0 view .LVU541
 1582 0000 70B5     		push	{r4, r5, r6, lr}
 1583              		.cfi_def_cfa_offset 16
 1584              		.cfi_offset 4, -16
 1585              		.cfi_offset 5, -12
 1586              		.cfi_offset 6, -8
 1587              		.cfi_offset 14, -4
 1588 0002 82B0     		sub	sp, sp, #8
 1589              		.cfi_def_cfa_offset 24
 1590 0004 0446     		mov	r4, r0
 1591 0006 0D46     		mov	r5, r1
 136:Middlewares/ST/STM32_USB_Host_Library/Core/Src/usbh_ctlreq.c ****   uint8_t *pData = phost->device.CfgDesc_Raw;
 1592              		.loc 1 136 3 is_stmt 1 view .LVU542
 137:Middlewares/ST/STM32_USB_Host_Library/Core/Src/usbh_ctlreq.c **** 
 1593              		.loc 1 137 3 view .LVU543
 137:Middlewares/ST/STM32_USB_Host_Library/Core/Src/usbh_ctlreq.c **** 
 1594              		.loc 1 137 12 is_stmt 0 view .LVU544
 1595 0008 00F11C06 		add	r6, r0, #28
 1596              	.LVL137:
 139:Middlewares/ST/STM32_USB_Host_Library/Core/Src/usbh_ctlreq.c ****                               USB_DESC_CONFIGURATION, pData, length);
 1597              		.loc 1 139 3 is_stmt 1 view .LVU545
 139:Middlewares/ST/STM32_USB_Host_Library/Core/Src/usbh_ctlreq.c ****                               USB_DESC_CONFIGURATION, pData, length);
 1598              		.loc 1 139 12 is_stmt 0 view .LVU546
 1599 000c 0091     		str	r1, [sp]
 1600 000e 3346     		mov	r3, r6
 1601 0010 4FF40072 		mov	r2, #512
 1602 0014 0021     		movs	r1, #0
 1603              	.LVL138:
 139:Middlewares/ST/STM32_USB_Host_Library/Core/Src/usbh_ctlreq.c ****                               USB_DESC_CONFIGURATION, pData, length);
 1604              		.loc 1 139 12 view .LVU547
 1605 0016 FFF7FEFF 		bl	USBH_GetDescriptor
 1606              	.LVL139:
 142:Middlewares/ST/STM32_USB_Host_Library/Core/Src/usbh_ctlreq.c ****   {
 1607              		.loc 1 142 3 is_stmt 1 view .LVU548
 142:Middlewares/ST/STM32_USB_Host_Library/Core/Src/usbh_ctlreq.c ****   {
 1608              		.loc 1 142 6 is_stmt 0 view .LVU549
 1609 001a 08B1     		cbz	r0, .L119
 1610              	.LVL140:
 1611              	.L117:
 148:Middlewares/ST/STM32_USB_Host_Library/Core/Src/usbh_ctlreq.c **** }
 1612              		.loc 1 148 3 is_stmt 1 view .LVU550
 149:Middlewares/ST/STM32_USB_Host_Library/Core/Src/usbh_ctlreq.c **** 
 1613              		.loc 1 149 1 is_stmt 0 view .LVU551
 1614 001c 02B0     		add	sp, sp, #8
ARM GAS  /tmp/ccDTG3e6.s 			page 56


 1615              		.cfi_remember_state
 1616              		.cfi_def_cfa_offset 16
 1617              		@ sp needed
 1618 001e 70BD     		pop	{r4, r5, r6, pc}
 1619              	.LVL141:
 1620              	.L119:
 1621              		.cfi_restore_state
 145:Middlewares/ST/STM32_USB_Host_Library/Core/Src/usbh_ctlreq.c ****   }
 1622              		.loc 1 145 5 is_stmt 1 view .LVU552
 145:Middlewares/ST/STM32_USB_Host_Library/Core/Src/usbh_ctlreq.c ****   }
 1623              		.loc 1 145 14 is_stmt 0 view .LVU553
 1624 0020 2A46     		mov	r2, r5
 1625 0022 3146     		mov	r1, r6
 1626 0024 2046     		mov	r0, r4
 1627 0026 FFF7FEFF 		bl	USBH_ParseCfgDesc
 1628              	.LVL142:
 145:Middlewares/ST/STM32_USB_Host_Library/Core/Src/usbh_ctlreq.c ****   }
 1629              		.loc 1 145 14 view .LVU554
 1630 002a F7E7     		b	.L117
 1631              		.cfi_endproc
 1632              	.LFE134:
 1634              		.section	.text.USBH_Get_StringDesc,"ax",%progbits
 1635              		.align	1
 1636              		.global	USBH_Get_StringDesc
 1637              		.syntax unified
 1638              		.thumb
 1639              		.thumb_func
 1641              	USBH_Get_StringDesc:
 1642              	.LVL143:
 1643              	.LFB135:
 165:Middlewares/ST/STM32_USB_Host_Library/Core/Src/usbh_ctlreq.c ****   USBH_StatusTypeDef status;
 1644              		.loc 1 165 1 is_stmt 1 view -0
 1645              		.cfi_startproc
 1646              		@ args = 0, pretend = 0, frame = 0
 1647              		@ frame_needed = 0, uses_anonymous_args = 0
 165:Middlewares/ST/STM32_USB_Host_Library/Core/Src/usbh_ctlreq.c ****   USBH_StatusTypeDef status;
 1648              		.loc 1 165 1 is_stmt 0 view .LVU556
 1649 0000 F0B5     		push	{r4, r5, r6, r7, lr}
 1650              		.cfi_def_cfa_offset 20
 1651              		.cfi_offset 4, -20
 1652              		.cfi_offset 5, -16
 1653              		.cfi_offset 6, -12
 1654              		.cfi_offset 7, -8
 1655              		.cfi_offset 14, -4
 1656 0002 83B0     		sub	sp, sp, #12
 1657              		.cfi_def_cfa_offset 32
 1658 0004 1646     		mov	r6, r2
 1659 0006 1D46     		mov	r5, r3
 166:Middlewares/ST/STM32_USB_Host_Library/Core/Src/usbh_ctlreq.c **** 
 1660              		.loc 1 166 3 is_stmt 1 view .LVU557
 168:Middlewares/ST/STM32_USB_Host_Library/Core/Src/usbh_ctlreq.c ****                               USB_REQ_RECIPIENT_DEVICE | USB_REQ_TYPE_STANDARD,
 1661              		.loc 1 168 3 view .LVU558
 171:Middlewares/ST/STM32_USB_Host_Library/Core/Src/usbh_ctlreq.c **** 
 1662              		.loc 1 171 44 is_stmt 0 view .LVU559
 1663 0008 00F58E74 		add	r4, r0, #284
 168:Middlewares/ST/STM32_USB_Host_Library/Core/Src/usbh_ctlreq.c ****                               USB_REQ_RECIPIENT_DEVICE | USB_REQ_TYPE_STANDARD,
 1664              		.loc 1 168 12 view .LVU560
ARM GAS  /tmp/ccDTG3e6.s 			page 57


 1665 000c 0093     		str	r3, [sp]
 1666 000e 2346     		mov	r3, r4
 1667              	.LVL144:
 168:Middlewares/ST/STM32_USB_Host_Library/Core/Src/usbh_ctlreq.c ****                               USB_REQ_RECIPIENT_DEVICE | USB_REQ_TYPE_STANDARD,
 1668              		.loc 1 168 12 view .LVU561
 1669 0010 41F44072 		orr	r2, r1, #768
 1670              	.LVL145:
 168:Middlewares/ST/STM32_USB_Host_Library/Core/Src/usbh_ctlreq.c ****                               USB_REQ_RECIPIENT_DEVICE | USB_REQ_TYPE_STANDARD,
 1671              		.loc 1 168 12 view .LVU562
 1672 0014 0021     		movs	r1, #0
 1673              	.LVL146:
 168:Middlewares/ST/STM32_USB_Host_Library/Core/Src/usbh_ctlreq.c ****                               USB_REQ_RECIPIENT_DEVICE | USB_REQ_TYPE_STANDARD,
 1674              		.loc 1 168 12 view .LVU563
 1675 0016 FFF7FEFF 		bl	USBH_GetDescriptor
 1676              	.LVL147:
 173:Middlewares/ST/STM32_USB_Host_Library/Core/Src/usbh_ctlreq.c ****   {
 1677              		.loc 1 173 3 is_stmt 1 view .LVU564
 173:Middlewares/ST/STM32_USB_Host_Library/Core/Src/usbh_ctlreq.c ****   {
 1678              		.loc 1 173 6 is_stmt 0 view .LVU565
 1679 001a 0746     		mov	r7, r0
 1680 001c 10B1     		cbz	r0, .L123
 1681              	.LVL148:
 1682              	.L121:
 179:Middlewares/ST/STM32_USB_Host_Library/Core/Src/usbh_ctlreq.c **** }
 1683              		.loc 1 179 3 is_stmt 1 view .LVU566
 180:Middlewares/ST/STM32_USB_Host_Library/Core/Src/usbh_ctlreq.c **** 
 1684              		.loc 1 180 1 is_stmt 0 view .LVU567
 1685 001e 3846     		mov	r0, r7
 1686 0020 03B0     		add	sp, sp, #12
 1687              		.cfi_remember_state
 1688              		.cfi_def_cfa_offset 20
 1689              		@ sp needed
 1690 0022 F0BD     		pop	{r4, r5, r6, r7, pc}
 1691              	.LVL149:
 1692              	.L123:
 1693              		.cfi_restore_state
 176:Middlewares/ST/STM32_USB_Host_Library/Core/Src/usbh_ctlreq.c ****   }
 1694              		.loc 1 176 5 is_stmt 1 view .LVU568
 1695 0024 2A46     		mov	r2, r5
 1696 0026 3146     		mov	r1, r6
 1697 0028 2046     		mov	r0, r4
 1698              	.LVL150:
 176:Middlewares/ST/STM32_USB_Host_Library/Core/Src/usbh_ctlreq.c ****   }
 1699              		.loc 1 176 5 is_stmt 0 view .LVU569
 1700 002a FFF7FEFF 		bl	USBH_ParseStringDesc
 1701              	.LVL151:
 1702 002e F6E7     		b	.L121
 1703              		.cfi_endproc
 1704              	.LFE135:
 1706              		.section	.text.USBH_SetAddress,"ax",%progbits
 1707              		.align	1
 1708              		.global	USBH_SetAddress
 1709              		.syntax unified
 1710              		.thumb
 1711              		.thumb_func
 1713              	USBH_SetAddress:
 1714              	.LVL152:
ARM GAS  /tmp/ccDTG3e6.s 			page 58


 1715              	.LFB137:
 230:Middlewares/ST/STM32_USB_Host_Library/Core/Src/usbh_ctlreq.c ****   if (phost->RequestState == CMD_SEND)
 1716              		.loc 1 230 1 is_stmt 1 view -0
 1717              		.cfi_startproc
 1718              		@ args = 0, pretend = 0, frame = 0
 1719              		@ frame_needed = 0, uses_anonymous_args = 0
 230:Middlewares/ST/STM32_USB_Host_Library/Core/Src/usbh_ctlreq.c ****   if (phost->RequestState == CMD_SEND)
 1720              		.loc 1 230 1 is_stmt 0 view .LVU571
 1721 0000 08B5     		push	{r3, lr}
 1722              		.cfi_def_cfa_offset 8
 1723              		.cfi_offset 3, -8
 1724              		.cfi_offset 14, -4
 231:Middlewares/ST/STM32_USB_Host_Library/Core/Src/usbh_ctlreq.c ****   {
 1725              		.loc 1 231 3 is_stmt 1 view .LVU572
 231:Middlewares/ST/STM32_USB_Host_Library/Core/Src/usbh_ctlreq.c ****   {
 1726              		.loc 1 231 12 is_stmt 0 view .LVU573
 1727 0002 8378     		ldrb	r3, [r0, #2]	@ zero_extendqisi2
 231:Middlewares/ST/STM32_USB_Host_Library/Core/Src/usbh_ctlreq.c ****   {
 1728              		.loc 1 231 6 view .LVU574
 1729 0004 012B     		cmp	r3, #1
 1730 0006 04D0     		beq	.L127
 1731              	.L125:
 243:Middlewares/ST/STM32_USB_Host_Library/Core/Src/usbh_ctlreq.c **** }
 1732              		.loc 1 243 3 is_stmt 1 view .LVU575
 243:Middlewares/ST/STM32_USB_Host_Library/Core/Src/usbh_ctlreq.c **** }
 1733              		.loc 1 243 10 is_stmt 0 view .LVU576
 1734 0008 0022     		movs	r2, #0
 1735 000a 1146     		mov	r1, r2
 1736              	.LVL153:
 243:Middlewares/ST/STM32_USB_Host_Library/Core/Src/usbh_ctlreq.c **** }
 1737              		.loc 1 243 10 view .LVU577
 1738 000c FFF7FEFF 		bl	USBH_CtlReq
 1739              	.LVL154:
 244:Middlewares/ST/STM32_USB_Host_Library/Core/Src/usbh_ctlreq.c **** 
 1740              		.loc 1 244 1 view .LVU578
 1741 0010 08BD     		pop	{r3, pc}
 1742              	.LVL155:
 1743              	.L127:
 233:Middlewares/ST/STM32_USB_Host_Library/Core/Src/usbh_ctlreq.c ****                                            USB_REQ_TYPE_STANDARD;
 1744              		.loc 1 233 5 is_stmt 1 view .LVU579
 233:Middlewares/ST/STM32_USB_Host_Library/Core/Src/usbh_ctlreq.c ****                                            USB_REQ_TYPE_STANDARD;
 1745              		.loc 1 233 42 is_stmt 0 view .LVU580
 1746 0012 0023     		movs	r3, #0
 1747 0014 0374     		strb	r3, [r0, #16]
 236:Middlewares/ST/STM32_USB_Host_Library/Core/Src/usbh_ctlreq.c **** 
 1748              		.loc 1 236 5 is_stmt 1 view .LVU581
 236:Middlewares/ST/STM32_USB_Host_Library/Core/Src/usbh_ctlreq.c **** 
 1749              		.loc 1 236 37 is_stmt 0 view .LVU582
 1750 0016 0522     		movs	r2, #5
 1751 0018 4274     		strb	r2, [r0, #17]
 238:Middlewares/ST/STM32_USB_Host_Library/Core/Src/usbh_ctlreq.c ****     phost->Control.setup.b.wIndex.w = 0U;
 1752              		.loc 1 238 5 is_stmt 1 view .LVU583
 238:Middlewares/ST/STM32_USB_Host_Library/Core/Src/usbh_ctlreq.c ****     phost->Control.setup.b.wIndex.w = 0U;
 1753              		.loc 1 238 37 is_stmt 0 view .LVU584
 1754 001a 4182     		strh	r1, [r0, #18]	@ movhi
 239:Middlewares/ST/STM32_USB_Host_Library/Core/Src/usbh_ctlreq.c ****     phost->Control.setup.b.wLength.w = 0U;
 1755              		.loc 1 239 5 is_stmt 1 view .LVU585
ARM GAS  /tmp/ccDTG3e6.s 			page 59


 239:Middlewares/ST/STM32_USB_Host_Library/Core/Src/usbh_ctlreq.c ****     phost->Control.setup.b.wLength.w = 0U;
 1756              		.loc 1 239 37 is_stmt 0 view .LVU586
 1757 001c 8382     		strh	r3, [r0, #20]	@ movhi
 240:Middlewares/ST/STM32_USB_Host_Library/Core/Src/usbh_ctlreq.c ****   }
 1758              		.loc 1 240 5 is_stmt 1 view .LVU587
 240:Middlewares/ST/STM32_USB_Host_Library/Core/Src/usbh_ctlreq.c ****   }
 1759              		.loc 1 240 38 is_stmt 0 view .LVU588
 1760 001e C382     		strh	r3, [r0, #22]	@ movhi
 1761 0020 F2E7     		b	.L125
 1762              		.cfi_endproc
 1763              	.LFE137:
 1765              		.section	.text.USBH_SetCfg,"ax",%progbits
 1766              		.align	1
 1767              		.global	USBH_SetCfg
 1768              		.syntax unified
 1769              		.thumb
 1770              		.thumb_func
 1772              	USBH_SetCfg:
 1773              	.LVL156:
 1774              	.LFB138:
 255:Middlewares/ST/STM32_USB_Host_Library/Core/Src/usbh_ctlreq.c ****   if (phost->RequestState == CMD_SEND)
 1775              		.loc 1 255 1 is_stmt 1 view -0
 1776              		.cfi_startproc
 1777              		@ args = 0, pretend = 0, frame = 0
 1778              		@ frame_needed = 0, uses_anonymous_args = 0
 255:Middlewares/ST/STM32_USB_Host_Library/Core/Src/usbh_ctlreq.c ****   if (phost->RequestState == CMD_SEND)
 1779              		.loc 1 255 1 is_stmt 0 view .LVU590
 1780 0000 08B5     		push	{r3, lr}
 1781              		.cfi_def_cfa_offset 8
 1782              		.cfi_offset 3, -8
 1783              		.cfi_offset 14, -4
 256:Middlewares/ST/STM32_USB_Host_Library/Core/Src/usbh_ctlreq.c ****   {
 1784              		.loc 1 256 3 is_stmt 1 view .LVU591
 256:Middlewares/ST/STM32_USB_Host_Library/Core/Src/usbh_ctlreq.c ****   {
 1785              		.loc 1 256 12 is_stmt 0 view .LVU592
 1786 0002 8378     		ldrb	r3, [r0, #2]	@ zero_extendqisi2
 256:Middlewares/ST/STM32_USB_Host_Library/Core/Src/usbh_ctlreq.c ****   {
 1787              		.loc 1 256 6 view .LVU593
 1788 0004 012B     		cmp	r3, #1
 1789 0006 04D0     		beq	.L131
 1790              	.L129:
 267:Middlewares/ST/STM32_USB_Host_Library/Core/Src/usbh_ctlreq.c **** }
 1791              		.loc 1 267 3 is_stmt 1 view .LVU594
 267:Middlewares/ST/STM32_USB_Host_Library/Core/Src/usbh_ctlreq.c **** }
 1792              		.loc 1 267 10 is_stmt 0 view .LVU595
 1793 0008 0022     		movs	r2, #0
 1794 000a 1146     		mov	r1, r2
 1795              	.LVL157:
 267:Middlewares/ST/STM32_USB_Host_Library/Core/Src/usbh_ctlreq.c **** }
 1796              		.loc 1 267 10 view .LVU596
 1797 000c FFF7FEFF 		bl	USBH_CtlReq
 1798              	.LVL158:
 268:Middlewares/ST/STM32_USB_Host_Library/Core/Src/usbh_ctlreq.c **** 
 1799              		.loc 1 268 1 view .LVU597
 1800 0010 08BD     		pop	{r3, pc}
 1801              	.LVL159:
 1802              	.L131:
ARM GAS  /tmp/ccDTG3e6.s 			page 60


 258:Middlewares/ST/STM32_USB_Host_Library/Core/Src/usbh_ctlreq.c ****                                            | USB_REQ_TYPE_STANDARD;
 1803              		.loc 1 258 5 is_stmt 1 view .LVU598
 258:Middlewares/ST/STM32_USB_Host_Library/Core/Src/usbh_ctlreq.c ****                                            | USB_REQ_TYPE_STANDARD;
 1804              		.loc 1 258 42 is_stmt 0 view .LVU599
 1805 0012 0023     		movs	r3, #0
 1806 0014 0374     		strb	r3, [r0, #16]
 261:Middlewares/ST/STM32_USB_Host_Library/Core/Src/usbh_ctlreq.c ****     phost->Control.setup.b.wValue.w = cfg_idx;
 1807              		.loc 1 261 5 is_stmt 1 view .LVU600
 261:Middlewares/ST/STM32_USB_Host_Library/Core/Src/usbh_ctlreq.c ****     phost->Control.setup.b.wValue.w = cfg_idx;
 1808              		.loc 1 261 37 is_stmt 0 view .LVU601
 1809 0016 0922     		movs	r2, #9
 1810 0018 4274     		strb	r2, [r0, #17]
 262:Middlewares/ST/STM32_USB_Host_Library/Core/Src/usbh_ctlreq.c ****     phost->Control.setup.b.wIndex.w = 0U;
 1811              		.loc 1 262 5 is_stmt 1 view .LVU602
 262:Middlewares/ST/STM32_USB_Host_Library/Core/Src/usbh_ctlreq.c ****     phost->Control.setup.b.wIndex.w = 0U;
 1812              		.loc 1 262 37 is_stmt 0 view .LVU603
 1813 001a 4182     		strh	r1, [r0, #18]	@ movhi
 263:Middlewares/ST/STM32_USB_Host_Library/Core/Src/usbh_ctlreq.c ****     phost->Control.setup.b.wLength.w = 0U;
 1814              		.loc 1 263 5 is_stmt 1 view .LVU604
 263:Middlewares/ST/STM32_USB_Host_Library/Core/Src/usbh_ctlreq.c ****     phost->Control.setup.b.wLength.w = 0U;
 1815              		.loc 1 263 37 is_stmt 0 view .LVU605
 1816 001c 8382     		strh	r3, [r0, #20]	@ movhi
 264:Middlewares/ST/STM32_USB_Host_Library/Core/Src/usbh_ctlreq.c ****   }
 1817              		.loc 1 264 5 is_stmt 1 view .LVU606
 264:Middlewares/ST/STM32_USB_Host_Library/Core/Src/usbh_ctlreq.c ****   }
 1818              		.loc 1 264 38 is_stmt 0 view .LVU607
 1819 001e C382     		strh	r3, [r0, #22]	@ movhi
 1820 0020 F2E7     		b	.L129
 1821              		.cfi_endproc
 1822              	.LFE138:
 1824              		.section	.text.USBH_SetInterface,"ax",%progbits
 1825              		.align	1
 1826              		.global	USBH_SetInterface
 1827              		.syntax unified
 1828              		.thumb
 1829              		.thumb_func
 1831              	USBH_SetInterface:
 1832              	.LVL160:
 1833              	.LFB139:
 280:Middlewares/ST/STM32_USB_Host_Library/Core/Src/usbh_ctlreq.c ****   if (phost->RequestState == CMD_SEND)
 1834              		.loc 1 280 1 is_stmt 1 view -0
 1835              		.cfi_startproc
 1836              		@ args = 0, pretend = 0, frame = 0
 1837              		@ frame_needed = 0, uses_anonymous_args = 0
 280:Middlewares/ST/STM32_USB_Host_Library/Core/Src/usbh_ctlreq.c ****   if (phost->RequestState == CMD_SEND)
 1838              		.loc 1 280 1 is_stmt 0 view .LVU609
 1839 0000 08B5     		push	{r3, lr}
 1840              		.cfi_def_cfa_offset 8
 1841              		.cfi_offset 3, -8
 1842              		.cfi_offset 14, -4
 281:Middlewares/ST/STM32_USB_Host_Library/Core/Src/usbh_ctlreq.c ****   {
 1843              		.loc 1 281 3 is_stmt 1 view .LVU610
 281:Middlewares/ST/STM32_USB_Host_Library/Core/Src/usbh_ctlreq.c ****   {
 1844              		.loc 1 281 12 is_stmt 0 view .LVU611
 1845 0002 8378     		ldrb	r3, [r0, #2]	@ zero_extendqisi2
 281:Middlewares/ST/STM32_USB_Host_Library/Core/Src/usbh_ctlreq.c ****   {
 1846              		.loc 1 281 6 view .LVU612
ARM GAS  /tmp/ccDTG3e6.s 			page 61


 1847 0004 012B     		cmp	r3, #1
 1848 0006 04D0     		beq	.L135
 1849              	.L133:
 292:Middlewares/ST/STM32_USB_Host_Library/Core/Src/usbh_ctlreq.c **** }
 1850              		.loc 1 292 3 is_stmt 1 view .LVU613
 292:Middlewares/ST/STM32_USB_Host_Library/Core/Src/usbh_ctlreq.c **** }
 1851              		.loc 1 292 10 is_stmt 0 view .LVU614
 1852 0008 0022     		movs	r2, #0
 1853              	.LVL161:
 292:Middlewares/ST/STM32_USB_Host_Library/Core/Src/usbh_ctlreq.c **** }
 1854              		.loc 1 292 10 view .LVU615
 1855 000a 1146     		mov	r1, r2
 1856              	.LVL162:
 292:Middlewares/ST/STM32_USB_Host_Library/Core/Src/usbh_ctlreq.c **** }
 1857              		.loc 1 292 10 view .LVU616
 1858 000c FFF7FEFF 		bl	USBH_CtlReq
 1859              	.LVL163:
 293:Middlewares/ST/STM32_USB_Host_Library/Core/Src/usbh_ctlreq.c **** 
 1860              		.loc 1 293 1 view .LVU617
 1861 0010 08BD     		pop	{r3, pc}
 1862              	.LVL164:
 1863              	.L135:
 283:Middlewares/ST/STM32_USB_Host_Library/Core/Src/usbh_ctlreq.c ****                                            | USB_REQ_TYPE_STANDARD;
 1864              		.loc 1 283 5 is_stmt 1 view .LVU618
 283:Middlewares/ST/STM32_USB_Host_Library/Core/Src/usbh_ctlreq.c ****                                            | USB_REQ_TYPE_STANDARD;
 1865              		.loc 1 283 42 is_stmt 0 view .LVU619
 1866 0012 0374     		strb	r3, [r0, #16]
 286:Middlewares/ST/STM32_USB_Host_Library/Core/Src/usbh_ctlreq.c ****     phost->Control.setup.b.wValue.w = altSetting;
 1867              		.loc 1 286 5 is_stmt 1 view .LVU620
 286:Middlewares/ST/STM32_USB_Host_Library/Core/Src/usbh_ctlreq.c ****     phost->Control.setup.b.wValue.w = altSetting;
 1868              		.loc 1 286 37 is_stmt 0 view .LVU621
 1869 0014 0B23     		movs	r3, #11
 1870 0016 4374     		strb	r3, [r0, #17]
 287:Middlewares/ST/STM32_USB_Host_Library/Core/Src/usbh_ctlreq.c ****     phost->Control.setup.b.wIndex.w = ep_num;
 1871              		.loc 1 287 5 is_stmt 1 view .LVU622
 287:Middlewares/ST/STM32_USB_Host_Library/Core/Src/usbh_ctlreq.c ****     phost->Control.setup.b.wIndex.w = ep_num;
 1872              		.loc 1 287 37 is_stmt 0 view .LVU623
 1873 0018 4282     		strh	r2, [r0, #18]	@ movhi
 288:Middlewares/ST/STM32_USB_Host_Library/Core/Src/usbh_ctlreq.c ****     phost->Control.setup.b.wLength.w = 0U;
 1874              		.loc 1 288 5 is_stmt 1 view .LVU624
 288:Middlewares/ST/STM32_USB_Host_Library/Core/Src/usbh_ctlreq.c ****     phost->Control.setup.b.wLength.w = 0U;
 1875              		.loc 1 288 37 is_stmt 0 view .LVU625
 1876 001a 8182     		strh	r1, [r0, #20]	@ movhi
 289:Middlewares/ST/STM32_USB_Host_Library/Core/Src/usbh_ctlreq.c ****   }
 1877              		.loc 1 289 5 is_stmt 1 view .LVU626
 289:Middlewares/ST/STM32_USB_Host_Library/Core/Src/usbh_ctlreq.c ****   }
 1878              		.loc 1 289 38 is_stmt 0 view .LVU627
 1879 001c 0023     		movs	r3, #0
 1880 001e C382     		strh	r3, [r0, #22]	@ movhi
 1881 0020 F2E7     		b	.L133
 1882              		.cfi_endproc
 1883              	.LFE139:
 1885              		.section	.text.USBH_SetFeature,"ax",%progbits
 1886              		.align	1
 1887              		.global	USBH_SetFeature
 1888              		.syntax unified
 1889              		.thumb
ARM GAS  /tmp/ccDTG3e6.s 			page 62


 1890              		.thumb_func
 1892              	USBH_SetFeature:
 1893              	.LVL165:
 1894              	.LFB140:
 304:Middlewares/ST/STM32_USB_Host_Library/Core/Src/usbh_ctlreq.c ****   if (phost->RequestState == CMD_SEND)
 1895              		.loc 1 304 1 is_stmt 1 view -0
 1896              		.cfi_startproc
 1897              		@ args = 0, pretend = 0, frame = 0
 1898              		@ frame_needed = 0, uses_anonymous_args = 0
 304:Middlewares/ST/STM32_USB_Host_Library/Core/Src/usbh_ctlreq.c ****   if (phost->RequestState == CMD_SEND)
 1899              		.loc 1 304 1 is_stmt 0 view .LVU629
 1900 0000 08B5     		push	{r3, lr}
 1901              		.cfi_def_cfa_offset 8
 1902              		.cfi_offset 3, -8
 1903              		.cfi_offset 14, -4
 305:Middlewares/ST/STM32_USB_Host_Library/Core/Src/usbh_ctlreq.c ****   {
 1904              		.loc 1 305 3 is_stmt 1 view .LVU630
 305:Middlewares/ST/STM32_USB_Host_Library/Core/Src/usbh_ctlreq.c ****   {
 1905              		.loc 1 305 12 is_stmt 0 view .LVU631
 1906 0002 8378     		ldrb	r3, [r0, #2]	@ zero_extendqisi2
 305:Middlewares/ST/STM32_USB_Host_Library/Core/Src/usbh_ctlreq.c ****   {
 1907              		.loc 1 305 6 view .LVU632
 1908 0004 012B     		cmp	r3, #1
 1909 0006 04D0     		beq	.L139
 1910              	.L137:
 316:Middlewares/ST/STM32_USB_Host_Library/Core/Src/usbh_ctlreq.c **** }
 1911              		.loc 1 316 3 is_stmt 1 view .LVU633
 316:Middlewares/ST/STM32_USB_Host_Library/Core/Src/usbh_ctlreq.c **** }
 1912              		.loc 1 316 10 is_stmt 0 view .LVU634
 1913 0008 0022     		movs	r2, #0
 1914 000a 1146     		mov	r1, r2
 1915              	.LVL166:
 316:Middlewares/ST/STM32_USB_Host_Library/Core/Src/usbh_ctlreq.c **** }
 1916              		.loc 1 316 10 view .LVU635
 1917 000c FFF7FEFF 		bl	USBH_CtlReq
 1918              	.LVL167:
 317:Middlewares/ST/STM32_USB_Host_Library/Core/Src/usbh_ctlreq.c **** 
 1919              		.loc 1 317 1 view .LVU636
 1920 0010 08BD     		pop	{r3, pc}
 1921              	.LVL168:
 1922              	.L139:
 307:Middlewares/ST/STM32_USB_Host_Library/Core/Src/usbh_ctlreq.c ****                                            | USB_REQ_TYPE_STANDARD;
 1923              		.loc 1 307 5 is_stmt 1 view .LVU637
 307:Middlewares/ST/STM32_USB_Host_Library/Core/Src/usbh_ctlreq.c ****                                            | USB_REQ_TYPE_STANDARD;
 1924              		.loc 1 307 42 is_stmt 0 view .LVU638
 1925 0012 0023     		movs	r3, #0
 1926 0014 0374     		strb	r3, [r0, #16]
 310:Middlewares/ST/STM32_USB_Host_Library/Core/Src/usbh_ctlreq.c ****     phost->Control.setup.b.wValue.w = wValue;
 1927              		.loc 1 310 5 is_stmt 1 view .LVU639
 310:Middlewares/ST/STM32_USB_Host_Library/Core/Src/usbh_ctlreq.c ****     phost->Control.setup.b.wValue.w = wValue;
 1928              		.loc 1 310 37 is_stmt 0 view .LVU640
 1929 0016 0322     		movs	r2, #3
 1930 0018 4274     		strb	r2, [r0, #17]
 311:Middlewares/ST/STM32_USB_Host_Library/Core/Src/usbh_ctlreq.c ****     phost->Control.setup.b.wIndex.w = 0U;
 1931              		.loc 1 311 5 is_stmt 1 view .LVU641
 311:Middlewares/ST/STM32_USB_Host_Library/Core/Src/usbh_ctlreq.c ****     phost->Control.setup.b.wIndex.w = 0U;
 1932              		.loc 1 311 37 is_stmt 0 view .LVU642
ARM GAS  /tmp/ccDTG3e6.s 			page 63


 1933 001a 4182     		strh	r1, [r0, #18]	@ movhi
 312:Middlewares/ST/STM32_USB_Host_Library/Core/Src/usbh_ctlreq.c ****     phost->Control.setup.b.wLength.w = 0U;
 1934              		.loc 1 312 5 is_stmt 1 view .LVU643
 312:Middlewares/ST/STM32_USB_Host_Library/Core/Src/usbh_ctlreq.c ****     phost->Control.setup.b.wLength.w = 0U;
 1935              		.loc 1 312 37 is_stmt 0 view .LVU644
 1936 001c 8382     		strh	r3, [r0, #20]	@ movhi
 313:Middlewares/ST/STM32_USB_Host_Library/Core/Src/usbh_ctlreq.c ****   }
 1937              		.loc 1 313 5 is_stmt 1 view .LVU645
 313:Middlewares/ST/STM32_USB_Host_Library/Core/Src/usbh_ctlreq.c ****   }
 1938              		.loc 1 313 38 is_stmt 0 view .LVU646
 1939 001e C382     		strh	r3, [r0, #22]	@ movhi
 1940 0020 F2E7     		b	.L137
 1941              		.cfi_endproc
 1942              	.LFE140:
 1944              		.section	.text.USBH_ClrFeature,"ax",%progbits
 1945              		.align	1
 1946              		.global	USBH_ClrFeature
 1947              		.syntax unified
 1948              		.thumb
 1949              		.thumb_func
 1951              	USBH_ClrFeature:
 1952              	.LVL169:
 1953              	.LFB141:
 329:Middlewares/ST/STM32_USB_Host_Library/Core/Src/usbh_ctlreq.c ****   if (phost->RequestState == CMD_SEND)
 1954              		.loc 1 329 1 is_stmt 1 view -0
 1955              		.cfi_startproc
 1956              		@ args = 0, pretend = 0, frame = 0
 1957              		@ frame_needed = 0, uses_anonymous_args = 0
 329:Middlewares/ST/STM32_USB_Host_Library/Core/Src/usbh_ctlreq.c ****   if (phost->RequestState == CMD_SEND)
 1958              		.loc 1 329 1 is_stmt 0 view .LVU648
 1959 0000 08B5     		push	{r3, lr}
 1960              		.cfi_def_cfa_offset 8
 1961              		.cfi_offset 3, -8
 1962              		.cfi_offset 14, -4
 330:Middlewares/ST/STM32_USB_Host_Library/Core/Src/usbh_ctlreq.c ****   {
 1963              		.loc 1 330 3 is_stmt 1 view .LVU649
 330:Middlewares/ST/STM32_USB_Host_Library/Core/Src/usbh_ctlreq.c ****   {
 1964              		.loc 1 330 12 is_stmt 0 view .LVU650
 1965 0002 8378     		ldrb	r3, [r0, #2]	@ zero_extendqisi2
 330:Middlewares/ST/STM32_USB_Host_Library/Core/Src/usbh_ctlreq.c ****   {
 1966              		.loc 1 330 6 view .LVU651
 1967 0004 012B     		cmp	r3, #1
 1968 0006 04D0     		beq	.L143
 1969              	.L141:
 340:Middlewares/ST/STM32_USB_Host_Library/Core/Src/usbh_ctlreq.c **** }
 1970              		.loc 1 340 3 is_stmt 1 view .LVU652
 340:Middlewares/ST/STM32_USB_Host_Library/Core/Src/usbh_ctlreq.c **** }
 1971              		.loc 1 340 10 is_stmt 0 view .LVU653
 1972 0008 0022     		movs	r2, #0
 1973 000a 1146     		mov	r1, r2
 1974              	.LVL170:
 340:Middlewares/ST/STM32_USB_Host_Library/Core/Src/usbh_ctlreq.c **** }
 1975              		.loc 1 340 10 view .LVU654
 1976 000c FFF7FEFF 		bl	USBH_CtlReq
 1977              	.LVL171:
 341:Middlewares/ST/STM32_USB_Host_Library/Core/Src/usbh_ctlreq.c **** 
 1978              		.loc 1 341 1 view .LVU655
ARM GAS  /tmp/ccDTG3e6.s 			page 64


 1979 0010 08BD     		pop	{r3, pc}
 1980              	.LVL172:
 1981              	.L143:
 332:Middlewares/ST/STM32_USB_Host_Library/Core/Src/usbh_ctlreq.c ****                                            | USB_REQ_TYPE_STANDARD;
 1982              		.loc 1 332 5 is_stmt 1 view .LVU656
 332:Middlewares/ST/STM32_USB_Host_Library/Core/Src/usbh_ctlreq.c ****                                            | USB_REQ_TYPE_STANDARD;
 1983              		.loc 1 332 42 is_stmt 0 view .LVU657
 1984 0012 0223     		movs	r3, #2
 1985 0014 0374     		strb	r3, [r0, #16]
 335:Middlewares/ST/STM32_USB_Host_Library/Core/Src/usbh_ctlreq.c ****     phost->Control.setup.b.wValue.w = FEATURE_SELECTOR_ENDPOINT;
 1986              		.loc 1 335 5 is_stmt 1 view .LVU658
 335:Middlewares/ST/STM32_USB_Host_Library/Core/Src/usbh_ctlreq.c ****     phost->Control.setup.b.wValue.w = FEATURE_SELECTOR_ENDPOINT;
 1987              		.loc 1 335 37 is_stmt 0 view .LVU659
 1988 0016 0123     		movs	r3, #1
 1989 0018 4374     		strb	r3, [r0, #17]
 336:Middlewares/ST/STM32_USB_Host_Library/Core/Src/usbh_ctlreq.c ****     phost->Control.setup.b.wIndex.w = ep_num;
 1990              		.loc 1 336 5 is_stmt 1 view .LVU660
 336:Middlewares/ST/STM32_USB_Host_Library/Core/Src/usbh_ctlreq.c ****     phost->Control.setup.b.wIndex.w = ep_num;
 1991              		.loc 1 336 37 is_stmt 0 view .LVU661
 1992 001a 0023     		movs	r3, #0
 1993 001c 4382     		strh	r3, [r0, #18]	@ movhi
 337:Middlewares/ST/STM32_USB_Host_Library/Core/Src/usbh_ctlreq.c ****     phost->Control.setup.b.wLength.w = 0U;
 1994              		.loc 1 337 5 is_stmt 1 view .LVU662
 337:Middlewares/ST/STM32_USB_Host_Library/Core/Src/usbh_ctlreq.c ****     phost->Control.setup.b.wLength.w = 0U;
 1995              		.loc 1 337 37 is_stmt 0 view .LVU663
 1996 001e 8182     		strh	r1, [r0, #20]	@ movhi
 338:Middlewares/ST/STM32_USB_Host_Library/Core/Src/usbh_ctlreq.c ****   }
 1997              		.loc 1 338 5 is_stmt 1 view .LVU664
 338:Middlewares/ST/STM32_USB_Host_Library/Core/Src/usbh_ctlreq.c ****   }
 1998              		.loc 1 338 38 is_stmt 0 view .LVU665
 1999 0020 C382     		strh	r3, [r0, #22]	@ movhi
 2000 0022 F1E7     		b	.L141
 2001              		.cfi_endproc
 2002              	.LFE141:
 2004              		.text
 2005              	.Letext0:
 2006              		.file 2 "/usr/arm-none-eabi/include/machine/_default_types.h"
 2007              		.file 3 "/usr/arm-none-eabi/include/sys/_stdint.h"
 2008              		.file 4 "Middlewares/ST/STM32_USB_Host_Library/Core/Inc/usbh_def.h"
 2009              		.file 5 "Middlewares/ST/STM32_USB_Host_Library/Core/Inc/usbh_pipes.h"
 2010              		.file 6 "Middlewares/ST/STM32_USB_Host_Library/Core/Inc/usbh_ioreq.h"
 2011              		.file 7 "Middlewares/ST/STM32_USB_Host_Library/Core/Inc/usbh_core.h"
ARM GAS  /tmp/ccDTG3e6.s 			page 65

