ARM GAS  /tmp/ccBJZy1z.s 			page 1


   1              		.cpu cortex-m4
   2              		.eabi_attribute 27, 1
   3              		.eabi_attribute 28, 1
   4              		.eabi_attribute 20, 1
   5              		.eabi_attribute 21, 1
   6              		.eabi_attribute 23, 3
   7              		.eabi_attribute 24, 1
   8              		.eabi_attribute 25, 1
   9              		.eabi_attribute 26, 1
  10              		.eabi_attribute 30, 1
  11              		.eabi_attribute 34, 1
  12              		.eabi_attribute 18, 4
  13              		.file	"usbh_core.c"
  14              		.text
  15              	.Ltext0:
  16              		.cfi_sections	.debug_frame
  17              		.section	.text.DeInitStateMachine,"ax",%progbits
  18              		.align	1
  19              		.arch armv7e-m
  20              		.syntax unified
  21              		.thumb
  22              		.thumb_func
  23              		.fpu fpv4-sp-d16
  25              	DeInitStateMachine:
  26              	.LVL0:
  27              	.LFB135:
  28              		.file 1 "Middlewares/ST/STM32_USB_Host_Library/Core/Src/usbh_core.c"
   1:Middlewares/ST/STM32_USB_Host_Library/Core/Src/usbh_core.c **** /**
   2:Middlewares/ST/STM32_USB_Host_Library/Core/Src/usbh_core.c ****   ******************************************************************************
   3:Middlewares/ST/STM32_USB_Host_Library/Core/Src/usbh_core.c ****   * @file    usbh_core.c
   4:Middlewares/ST/STM32_USB_Host_Library/Core/Src/usbh_core.c ****   * @author  MCD Application Team
   5:Middlewares/ST/STM32_USB_Host_Library/Core/Src/usbh_core.c ****   * @brief   This file implements the functions for the core state machine process
   6:Middlewares/ST/STM32_USB_Host_Library/Core/Src/usbh_core.c ****   *          the enumeration and the control transfer process
   7:Middlewares/ST/STM32_USB_Host_Library/Core/Src/usbh_core.c ****   ******************************************************************************
   8:Middlewares/ST/STM32_USB_Host_Library/Core/Src/usbh_core.c ****   * @attention
   9:Middlewares/ST/STM32_USB_Host_Library/Core/Src/usbh_core.c ****   *
  10:Middlewares/ST/STM32_USB_Host_Library/Core/Src/usbh_core.c ****   * <h2><center>&copy; Copyright (c) 2015 STMicroelectronics.
  11:Middlewares/ST/STM32_USB_Host_Library/Core/Src/usbh_core.c ****   * All rights reserved.</center></h2>
  12:Middlewares/ST/STM32_USB_Host_Library/Core/Src/usbh_core.c ****   *
  13:Middlewares/ST/STM32_USB_Host_Library/Core/Src/usbh_core.c ****   * This software component is licensed by ST under Ultimate Liberty license
  14:Middlewares/ST/STM32_USB_Host_Library/Core/Src/usbh_core.c ****   * SLA0044, the "License"; You may not use this file except in compliance with
  15:Middlewares/ST/STM32_USB_Host_Library/Core/Src/usbh_core.c ****   * the License. You may obtain a copy of the License at:
  16:Middlewares/ST/STM32_USB_Host_Library/Core/Src/usbh_core.c ****   *                      www.st.com/SLA0044
  17:Middlewares/ST/STM32_USB_Host_Library/Core/Src/usbh_core.c ****   *
  18:Middlewares/ST/STM32_USB_Host_Library/Core/Src/usbh_core.c ****   ******************************************************************************
  19:Middlewares/ST/STM32_USB_Host_Library/Core/Src/usbh_core.c ****   */
  20:Middlewares/ST/STM32_USB_Host_Library/Core/Src/usbh_core.c **** 
  21:Middlewares/ST/STM32_USB_Host_Library/Core/Src/usbh_core.c **** /* Includes ------------------------------------------------------------------*/
  22:Middlewares/ST/STM32_USB_Host_Library/Core/Src/usbh_core.c **** #include "usbh_core.h"
  23:Middlewares/ST/STM32_USB_Host_Library/Core/Src/usbh_core.c **** 
  24:Middlewares/ST/STM32_USB_Host_Library/Core/Src/usbh_core.c **** 
  25:Middlewares/ST/STM32_USB_Host_Library/Core/Src/usbh_core.c **** /** @addtogroup USBH_LIB
  26:Middlewares/ST/STM32_USB_Host_Library/Core/Src/usbh_core.c ****   * @{
  27:Middlewares/ST/STM32_USB_Host_Library/Core/Src/usbh_core.c ****   */
  28:Middlewares/ST/STM32_USB_Host_Library/Core/Src/usbh_core.c **** 
  29:Middlewares/ST/STM32_USB_Host_Library/Core/Src/usbh_core.c **** /** @addtogroup USBH_LIB_CORE
  30:Middlewares/ST/STM32_USB_Host_Library/Core/Src/usbh_core.c ****   * @{
ARM GAS  /tmp/ccBJZy1z.s 			page 2


  31:Middlewares/ST/STM32_USB_Host_Library/Core/Src/usbh_core.c ****   */
  32:Middlewares/ST/STM32_USB_Host_Library/Core/Src/usbh_core.c **** 
  33:Middlewares/ST/STM32_USB_Host_Library/Core/Src/usbh_core.c **** /** @defgroup USBH_CORE
  34:Middlewares/ST/STM32_USB_Host_Library/Core/Src/usbh_core.c ****   * @brief This file handles the basic enumeration when a device is connected
  35:Middlewares/ST/STM32_USB_Host_Library/Core/Src/usbh_core.c ****   *          to the host.
  36:Middlewares/ST/STM32_USB_Host_Library/Core/Src/usbh_core.c ****   * @{
  37:Middlewares/ST/STM32_USB_Host_Library/Core/Src/usbh_core.c ****   */
  38:Middlewares/ST/STM32_USB_Host_Library/Core/Src/usbh_core.c **** 
  39:Middlewares/ST/STM32_USB_Host_Library/Core/Src/usbh_core.c **** 
  40:Middlewares/ST/STM32_USB_Host_Library/Core/Src/usbh_core.c **** /** @defgroup USBH_CORE_Private_Defines
  41:Middlewares/ST/STM32_USB_Host_Library/Core/Src/usbh_core.c ****   * @{
  42:Middlewares/ST/STM32_USB_Host_Library/Core/Src/usbh_core.c ****   */
  43:Middlewares/ST/STM32_USB_Host_Library/Core/Src/usbh_core.c **** #define USBH_ADDRESS_DEFAULT                     0x00U
  44:Middlewares/ST/STM32_USB_Host_Library/Core/Src/usbh_core.c **** #define USBH_ADDRESS_ASSIGNED                    0x01U
  45:Middlewares/ST/STM32_USB_Host_Library/Core/Src/usbh_core.c **** #define USBH_MPS_DEFAULT                         0x40U
  46:Middlewares/ST/STM32_USB_Host_Library/Core/Src/usbh_core.c **** /**
  47:Middlewares/ST/STM32_USB_Host_Library/Core/Src/usbh_core.c ****   * @}
  48:Middlewares/ST/STM32_USB_Host_Library/Core/Src/usbh_core.c ****   */
  49:Middlewares/ST/STM32_USB_Host_Library/Core/Src/usbh_core.c **** 
  50:Middlewares/ST/STM32_USB_Host_Library/Core/Src/usbh_core.c **** /** @defgroup USBH_CORE_Private_Macros
  51:Middlewares/ST/STM32_USB_Host_Library/Core/Src/usbh_core.c ****   * @{
  52:Middlewares/ST/STM32_USB_Host_Library/Core/Src/usbh_core.c ****   */
  53:Middlewares/ST/STM32_USB_Host_Library/Core/Src/usbh_core.c **** /**
  54:Middlewares/ST/STM32_USB_Host_Library/Core/Src/usbh_core.c ****   * @}
  55:Middlewares/ST/STM32_USB_Host_Library/Core/Src/usbh_core.c ****   */
  56:Middlewares/ST/STM32_USB_Host_Library/Core/Src/usbh_core.c **** 
  57:Middlewares/ST/STM32_USB_Host_Library/Core/Src/usbh_core.c **** 
  58:Middlewares/ST/STM32_USB_Host_Library/Core/Src/usbh_core.c **** /** @defgroup USBH_CORE_Private_Variables
  59:Middlewares/ST/STM32_USB_Host_Library/Core/Src/usbh_core.c ****   * @{
  60:Middlewares/ST/STM32_USB_Host_Library/Core/Src/usbh_core.c ****   */
  61:Middlewares/ST/STM32_USB_Host_Library/Core/Src/usbh_core.c **** #if (USBH_USE_OS == 1U)
  62:Middlewares/ST/STM32_USB_Host_Library/Core/Src/usbh_core.c **** #if (osCMSIS >= 0x20000U)
  63:Middlewares/ST/STM32_USB_Host_Library/Core/Src/usbh_core.c **** osThreadAttr_t USBH_Thread_Atrr;
  64:Middlewares/ST/STM32_USB_Host_Library/Core/Src/usbh_core.c **** #endif
  65:Middlewares/ST/STM32_USB_Host_Library/Core/Src/usbh_core.c **** #endif
  66:Middlewares/ST/STM32_USB_Host_Library/Core/Src/usbh_core.c **** 
  67:Middlewares/ST/STM32_USB_Host_Library/Core/Src/usbh_core.c **** 
  68:Middlewares/ST/STM32_USB_Host_Library/Core/Src/usbh_core.c **** /**
  69:Middlewares/ST/STM32_USB_Host_Library/Core/Src/usbh_core.c ****   * @}
  70:Middlewares/ST/STM32_USB_Host_Library/Core/Src/usbh_core.c ****   */
  71:Middlewares/ST/STM32_USB_Host_Library/Core/Src/usbh_core.c **** 
  72:Middlewares/ST/STM32_USB_Host_Library/Core/Src/usbh_core.c **** 
  73:Middlewares/ST/STM32_USB_Host_Library/Core/Src/usbh_core.c **** /** @defgroup USBH_CORE_Private_Functions
  74:Middlewares/ST/STM32_USB_Host_Library/Core/Src/usbh_core.c ****   * @{
  75:Middlewares/ST/STM32_USB_Host_Library/Core/Src/usbh_core.c ****   */
  76:Middlewares/ST/STM32_USB_Host_Library/Core/Src/usbh_core.c **** static USBH_StatusTypeDef USBH_HandleEnum(USBH_HandleTypeDef *phost);
  77:Middlewares/ST/STM32_USB_Host_Library/Core/Src/usbh_core.c **** static void USBH_HandleSof(USBH_HandleTypeDef *phost);
  78:Middlewares/ST/STM32_USB_Host_Library/Core/Src/usbh_core.c **** static USBH_StatusTypeDef DeInitStateMachine(USBH_HandleTypeDef *phost);
  79:Middlewares/ST/STM32_USB_Host_Library/Core/Src/usbh_core.c **** 
  80:Middlewares/ST/STM32_USB_Host_Library/Core/Src/usbh_core.c **** #if (USBH_USE_OS == 1U)
  81:Middlewares/ST/STM32_USB_Host_Library/Core/Src/usbh_core.c **** #if (osCMSIS < 0x20000U)
  82:Middlewares/ST/STM32_USB_Host_Library/Core/Src/usbh_core.c **** static void USBH_Process_OS(void const *argument);
  83:Middlewares/ST/STM32_USB_Host_Library/Core/Src/usbh_core.c **** #else
  84:Middlewares/ST/STM32_USB_Host_Library/Core/Src/usbh_core.c **** static void USBH_Process_OS(void *argument);
  85:Middlewares/ST/STM32_USB_Host_Library/Core/Src/usbh_core.c **** #endif
  86:Middlewares/ST/STM32_USB_Host_Library/Core/Src/usbh_core.c **** #endif
  87:Middlewares/ST/STM32_USB_Host_Library/Core/Src/usbh_core.c **** 
ARM GAS  /tmp/ccBJZy1z.s 			page 3


  88:Middlewares/ST/STM32_USB_Host_Library/Core/Src/usbh_core.c **** 
  89:Middlewares/ST/STM32_USB_Host_Library/Core/Src/usbh_core.c **** /**
  90:Middlewares/ST/STM32_USB_Host_Library/Core/Src/usbh_core.c ****   * @brief  HCD_Init
  91:Middlewares/ST/STM32_USB_Host_Library/Core/Src/usbh_core.c ****   *         Initialize the HOST Core.
  92:Middlewares/ST/STM32_USB_Host_Library/Core/Src/usbh_core.c ****   * @param  phost: Host Handle
  93:Middlewares/ST/STM32_USB_Host_Library/Core/Src/usbh_core.c ****   * @param  pUsrFunc: User Callback
  94:Middlewares/ST/STM32_USB_Host_Library/Core/Src/usbh_core.c ****   * @retval USBH Status
  95:Middlewares/ST/STM32_USB_Host_Library/Core/Src/usbh_core.c ****   */
  96:Middlewares/ST/STM32_USB_Host_Library/Core/Src/usbh_core.c **** USBH_StatusTypeDef  USBH_Init(USBH_HandleTypeDef *phost,
  97:Middlewares/ST/STM32_USB_Host_Library/Core/Src/usbh_core.c ****                               void (*pUsrFunc)(USBH_HandleTypeDef *phost,
  98:Middlewares/ST/STM32_USB_Host_Library/Core/Src/usbh_core.c ****                                                uint8_t id), uint8_t id)
  99:Middlewares/ST/STM32_USB_Host_Library/Core/Src/usbh_core.c **** {
 100:Middlewares/ST/STM32_USB_Host_Library/Core/Src/usbh_core.c ****   /* Check whether the USB Host handle is valid */
 101:Middlewares/ST/STM32_USB_Host_Library/Core/Src/usbh_core.c ****   if (phost == NULL)
 102:Middlewares/ST/STM32_USB_Host_Library/Core/Src/usbh_core.c ****   {
 103:Middlewares/ST/STM32_USB_Host_Library/Core/Src/usbh_core.c ****     USBH_ErrLog("Invalid Host handle");
 104:Middlewares/ST/STM32_USB_Host_Library/Core/Src/usbh_core.c ****     return USBH_FAIL;
 105:Middlewares/ST/STM32_USB_Host_Library/Core/Src/usbh_core.c ****   }
 106:Middlewares/ST/STM32_USB_Host_Library/Core/Src/usbh_core.c **** 
 107:Middlewares/ST/STM32_USB_Host_Library/Core/Src/usbh_core.c ****   /* Set DRiver ID */
 108:Middlewares/ST/STM32_USB_Host_Library/Core/Src/usbh_core.c ****   phost->id = id;
 109:Middlewares/ST/STM32_USB_Host_Library/Core/Src/usbh_core.c **** 
 110:Middlewares/ST/STM32_USB_Host_Library/Core/Src/usbh_core.c ****   /* Unlink class*/
 111:Middlewares/ST/STM32_USB_Host_Library/Core/Src/usbh_core.c ****   phost->pActiveClass = NULL;
 112:Middlewares/ST/STM32_USB_Host_Library/Core/Src/usbh_core.c ****   phost->ClassNumber = 0U;
 113:Middlewares/ST/STM32_USB_Host_Library/Core/Src/usbh_core.c **** 
 114:Middlewares/ST/STM32_USB_Host_Library/Core/Src/usbh_core.c ****   /* Restore default states and prepare EP0 */
 115:Middlewares/ST/STM32_USB_Host_Library/Core/Src/usbh_core.c ****   (void)DeInitStateMachine(phost);
 116:Middlewares/ST/STM32_USB_Host_Library/Core/Src/usbh_core.c **** 
 117:Middlewares/ST/STM32_USB_Host_Library/Core/Src/usbh_core.c ****   /* Restore default Device connection states */
 118:Middlewares/ST/STM32_USB_Host_Library/Core/Src/usbh_core.c ****   phost->device.PortEnabled = 0U;
 119:Middlewares/ST/STM32_USB_Host_Library/Core/Src/usbh_core.c ****   phost->device.is_connected = 0U;
 120:Middlewares/ST/STM32_USB_Host_Library/Core/Src/usbh_core.c ****   phost->device.is_disconnected = 0U;
 121:Middlewares/ST/STM32_USB_Host_Library/Core/Src/usbh_core.c ****   phost->device.is_ReEnumerated = 0U;
 122:Middlewares/ST/STM32_USB_Host_Library/Core/Src/usbh_core.c **** 
 123:Middlewares/ST/STM32_USB_Host_Library/Core/Src/usbh_core.c ****   /* Assign User process */
 124:Middlewares/ST/STM32_USB_Host_Library/Core/Src/usbh_core.c ****   if (pUsrFunc != NULL)
 125:Middlewares/ST/STM32_USB_Host_Library/Core/Src/usbh_core.c ****   {
 126:Middlewares/ST/STM32_USB_Host_Library/Core/Src/usbh_core.c ****     phost->pUser = pUsrFunc;
 127:Middlewares/ST/STM32_USB_Host_Library/Core/Src/usbh_core.c ****   }
 128:Middlewares/ST/STM32_USB_Host_Library/Core/Src/usbh_core.c **** 
 129:Middlewares/ST/STM32_USB_Host_Library/Core/Src/usbh_core.c **** #if (USBH_USE_OS == 1U)
 130:Middlewares/ST/STM32_USB_Host_Library/Core/Src/usbh_core.c **** #if (osCMSIS < 0x20000U)
 131:Middlewares/ST/STM32_USB_Host_Library/Core/Src/usbh_core.c **** 
 132:Middlewares/ST/STM32_USB_Host_Library/Core/Src/usbh_core.c ****   /* Create USB Host Queue */
 133:Middlewares/ST/STM32_USB_Host_Library/Core/Src/usbh_core.c ****   osMessageQDef(USBH_Queue, MSGQUEUE_OBJECTS, uint16_t);
 134:Middlewares/ST/STM32_USB_Host_Library/Core/Src/usbh_core.c ****   phost->os_event = osMessageCreate(osMessageQ(USBH_Queue), NULL);
 135:Middlewares/ST/STM32_USB_Host_Library/Core/Src/usbh_core.c **** 
 136:Middlewares/ST/STM32_USB_Host_Library/Core/Src/usbh_core.c ****   /* Create USB Host Task */
 137:Middlewares/ST/STM32_USB_Host_Library/Core/Src/usbh_core.c **** #if defined (USBH_PROCESS_STACK_SIZE)
 138:Middlewares/ST/STM32_USB_Host_Library/Core/Src/usbh_core.c ****   osThreadDef(USBH_Thread, USBH_Process_OS, USBH_PROCESS_PRIO, 0U, USBH_PROCESS_STACK_SIZE);
 139:Middlewares/ST/STM32_USB_Host_Library/Core/Src/usbh_core.c **** #else
 140:Middlewares/ST/STM32_USB_Host_Library/Core/Src/usbh_core.c ****   osThreadDef(USBH_Thread, USBH_Process_OS, USBH_PROCESS_PRIO, 0U, 8U * configMINIMAL_STACK_SIZE);
 141:Middlewares/ST/STM32_USB_Host_Library/Core/Src/usbh_core.c **** #endif /* defined (USBH_PROCESS_STACK_SIZE) */
 142:Middlewares/ST/STM32_USB_Host_Library/Core/Src/usbh_core.c **** 
 143:Middlewares/ST/STM32_USB_Host_Library/Core/Src/usbh_core.c ****   phost->thread = osThreadCreate(osThread(USBH_Thread), phost);
 144:Middlewares/ST/STM32_USB_Host_Library/Core/Src/usbh_core.c **** 
ARM GAS  /tmp/ccBJZy1z.s 			page 4


 145:Middlewares/ST/STM32_USB_Host_Library/Core/Src/usbh_core.c **** #else
 146:Middlewares/ST/STM32_USB_Host_Library/Core/Src/usbh_core.c **** 
 147:Middlewares/ST/STM32_USB_Host_Library/Core/Src/usbh_core.c ****   /* Create USB Host Queue */
 148:Middlewares/ST/STM32_USB_Host_Library/Core/Src/usbh_core.c ****   phost->os_event = osMessageQueueNew(MSGQUEUE_OBJECTS, sizeof(uint32_t), NULL);
 149:Middlewares/ST/STM32_USB_Host_Library/Core/Src/usbh_core.c **** 
 150:Middlewares/ST/STM32_USB_Host_Library/Core/Src/usbh_core.c ****   /* Create USB Host Task */
 151:Middlewares/ST/STM32_USB_Host_Library/Core/Src/usbh_core.c ****   USBH_Thread_Atrr.name = "USBH_Queue";
 152:Middlewares/ST/STM32_USB_Host_Library/Core/Src/usbh_core.c **** 
 153:Middlewares/ST/STM32_USB_Host_Library/Core/Src/usbh_core.c **** #if defined (USBH_PROCESS_STACK_SIZE)
 154:Middlewares/ST/STM32_USB_Host_Library/Core/Src/usbh_core.c ****   USBH_Thread_Atrr.stack_size = USBH_PROCESS_STACK_SIZE;
 155:Middlewares/ST/STM32_USB_Host_Library/Core/Src/usbh_core.c **** #else
 156:Middlewares/ST/STM32_USB_Host_Library/Core/Src/usbh_core.c ****   USBH_Thread_Atrr.stack_size = (8U * configMINIMAL_STACK_SIZE);
 157:Middlewares/ST/STM32_USB_Host_Library/Core/Src/usbh_core.c **** #endif /* defined (USBH_PROCESS_STACK_SIZE) */
 158:Middlewares/ST/STM32_USB_Host_Library/Core/Src/usbh_core.c **** 
 159:Middlewares/ST/STM32_USB_Host_Library/Core/Src/usbh_core.c ****   USBH_Thread_Atrr.priority = USBH_PROCESS_PRIO;
 160:Middlewares/ST/STM32_USB_Host_Library/Core/Src/usbh_core.c ****   phost->thread = osThreadNew(USBH_Process_OS, phost, &USBH_Thread_Atrr);
 161:Middlewares/ST/STM32_USB_Host_Library/Core/Src/usbh_core.c **** 
 162:Middlewares/ST/STM32_USB_Host_Library/Core/Src/usbh_core.c **** #endif /* (osCMSIS < 0x20000U) */
 163:Middlewares/ST/STM32_USB_Host_Library/Core/Src/usbh_core.c **** #endif /* (USBH_USE_OS == 1U) */
 164:Middlewares/ST/STM32_USB_Host_Library/Core/Src/usbh_core.c **** 
 165:Middlewares/ST/STM32_USB_Host_Library/Core/Src/usbh_core.c ****   /* Initialize low level driver */
 166:Middlewares/ST/STM32_USB_Host_Library/Core/Src/usbh_core.c ****   (void)USBH_LL_Init(phost);
 167:Middlewares/ST/STM32_USB_Host_Library/Core/Src/usbh_core.c **** 
 168:Middlewares/ST/STM32_USB_Host_Library/Core/Src/usbh_core.c ****   return USBH_OK;
 169:Middlewares/ST/STM32_USB_Host_Library/Core/Src/usbh_core.c **** }
 170:Middlewares/ST/STM32_USB_Host_Library/Core/Src/usbh_core.c **** 
 171:Middlewares/ST/STM32_USB_Host_Library/Core/Src/usbh_core.c **** 
 172:Middlewares/ST/STM32_USB_Host_Library/Core/Src/usbh_core.c **** /**
 173:Middlewares/ST/STM32_USB_Host_Library/Core/Src/usbh_core.c ****   * @brief  HCD_Init
 174:Middlewares/ST/STM32_USB_Host_Library/Core/Src/usbh_core.c ****   *         De-Initialize the Host portion of the driver.
 175:Middlewares/ST/STM32_USB_Host_Library/Core/Src/usbh_core.c ****   * @param  phost: Host Handle
 176:Middlewares/ST/STM32_USB_Host_Library/Core/Src/usbh_core.c ****   * @retval USBH Status
 177:Middlewares/ST/STM32_USB_Host_Library/Core/Src/usbh_core.c ****   */
 178:Middlewares/ST/STM32_USB_Host_Library/Core/Src/usbh_core.c **** USBH_StatusTypeDef USBH_DeInit(USBH_HandleTypeDef *phost)
 179:Middlewares/ST/STM32_USB_Host_Library/Core/Src/usbh_core.c **** {
 180:Middlewares/ST/STM32_USB_Host_Library/Core/Src/usbh_core.c ****   (void)DeInitStateMachine(phost);
 181:Middlewares/ST/STM32_USB_Host_Library/Core/Src/usbh_core.c **** 
 182:Middlewares/ST/STM32_USB_Host_Library/Core/Src/usbh_core.c ****   /* Restore default Device connection states */
 183:Middlewares/ST/STM32_USB_Host_Library/Core/Src/usbh_core.c ****   phost->device.PortEnabled = 0U;
 184:Middlewares/ST/STM32_USB_Host_Library/Core/Src/usbh_core.c ****   phost->device.is_connected = 0U;
 185:Middlewares/ST/STM32_USB_Host_Library/Core/Src/usbh_core.c ****   phost->device.is_disconnected = 0U;
 186:Middlewares/ST/STM32_USB_Host_Library/Core/Src/usbh_core.c ****   phost->device.is_ReEnumerated = 0U;
 187:Middlewares/ST/STM32_USB_Host_Library/Core/Src/usbh_core.c ****   phost->device.RstCnt = 0U;
 188:Middlewares/ST/STM32_USB_Host_Library/Core/Src/usbh_core.c ****   phost->device.EnumCnt = 0U;
 189:Middlewares/ST/STM32_USB_Host_Library/Core/Src/usbh_core.c **** 
 190:Middlewares/ST/STM32_USB_Host_Library/Core/Src/usbh_core.c ****   if (phost->pData != NULL)
 191:Middlewares/ST/STM32_USB_Host_Library/Core/Src/usbh_core.c ****   {
 192:Middlewares/ST/STM32_USB_Host_Library/Core/Src/usbh_core.c ****     (void)USBH_LL_Stop(phost);
 193:Middlewares/ST/STM32_USB_Host_Library/Core/Src/usbh_core.c ****   }
 194:Middlewares/ST/STM32_USB_Host_Library/Core/Src/usbh_core.c **** 
 195:Middlewares/ST/STM32_USB_Host_Library/Core/Src/usbh_core.c **** #if (USBH_USE_OS == 1U)
 196:Middlewares/ST/STM32_USB_Host_Library/Core/Src/usbh_core.c **** #if (osCMSIS < 0x20000U)
 197:Middlewares/ST/STM32_USB_Host_Library/Core/Src/usbh_core.c **** 
 198:Middlewares/ST/STM32_USB_Host_Library/Core/Src/usbh_core.c ****   /* Free allocated resource for USBH process */
 199:Middlewares/ST/STM32_USB_Host_Library/Core/Src/usbh_core.c ****   (void)osThreadTerminate(phost->thread);
 200:Middlewares/ST/STM32_USB_Host_Library/Core/Src/usbh_core.c ****   (void)osMessageDelete(phost->os_event);
 201:Middlewares/ST/STM32_USB_Host_Library/Core/Src/usbh_core.c **** 
ARM GAS  /tmp/ccBJZy1z.s 			page 5


 202:Middlewares/ST/STM32_USB_Host_Library/Core/Src/usbh_core.c **** #else
 203:Middlewares/ST/STM32_USB_Host_Library/Core/Src/usbh_core.c **** 
 204:Middlewares/ST/STM32_USB_Host_Library/Core/Src/usbh_core.c ****   /* Free allocated resource for USBH process */
 205:Middlewares/ST/STM32_USB_Host_Library/Core/Src/usbh_core.c ****   (void)osThreadTerminate(phost->thread);
 206:Middlewares/ST/STM32_USB_Host_Library/Core/Src/usbh_core.c ****   (void)osMessageQueueDelete(phost->os_event);
 207:Middlewares/ST/STM32_USB_Host_Library/Core/Src/usbh_core.c **** 
 208:Middlewares/ST/STM32_USB_Host_Library/Core/Src/usbh_core.c **** #endif /* (osCMSIS < 0x20000U) */
 209:Middlewares/ST/STM32_USB_Host_Library/Core/Src/usbh_core.c **** #endif /* (USBH_USE_OS == 1U) */
 210:Middlewares/ST/STM32_USB_Host_Library/Core/Src/usbh_core.c **** 
 211:Middlewares/ST/STM32_USB_Host_Library/Core/Src/usbh_core.c ****   return USBH_OK;
 212:Middlewares/ST/STM32_USB_Host_Library/Core/Src/usbh_core.c **** }
 213:Middlewares/ST/STM32_USB_Host_Library/Core/Src/usbh_core.c **** 
 214:Middlewares/ST/STM32_USB_Host_Library/Core/Src/usbh_core.c **** 
 215:Middlewares/ST/STM32_USB_Host_Library/Core/Src/usbh_core.c **** /**
 216:Middlewares/ST/STM32_USB_Host_Library/Core/Src/usbh_core.c ****   * @brief  DeInitStateMachine
 217:Middlewares/ST/STM32_USB_Host_Library/Core/Src/usbh_core.c ****   *         De-Initialize the Host state machine.
 218:Middlewares/ST/STM32_USB_Host_Library/Core/Src/usbh_core.c ****   * @param  phost: Host Handle
 219:Middlewares/ST/STM32_USB_Host_Library/Core/Src/usbh_core.c ****   * @retval USBH Status
 220:Middlewares/ST/STM32_USB_Host_Library/Core/Src/usbh_core.c ****   */
 221:Middlewares/ST/STM32_USB_Host_Library/Core/Src/usbh_core.c **** static USBH_StatusTypeDef DeInitStateMachine(USBH_HandleTypeDef *phost)
 222:Middlewares/ST/STM32_USB_Host_Library/Core/Src/usbh_core.c **** {
  29              		.loc 1 222 1 view -0
  30              		.cfi_startproc
  31              		@ args = 0, pretend = 0, frame = 0
  32              		@ frame_needed = 0, uses_anonymous_args = 0
  33              		@ link register save eliminated.
  34              		.loc 1 222 1 is_stmt 0 view .LVU1
  35 0000 10B4     		push	{r4}
  36              		.cfi_def_cfa_offset 4
  37              		.cfi_offset 4, -4
  38 0002 0446     		mov	r4, r0
 223:Middlewares/ST/STM32_USB_Host_Library/Core/Src/usbh_core.c ****   uint32_t i = 0U;
  39              		.loc 1 223 3 is_stmt 1 view .LVU2
  40              	.LVL1:
 224:Middlewares/ST/STM32_USB_Host_Library/Core/Src/usbh_core.c **** 
 225:Middlewares/ST/STM32_USB_Host_Library/Core/Src/usbh_core.c ****   /* Clear Pipes flags*/
 226:Middlewares/ST/STM32_USB_Host_Library/Core/Src/usbh_core.c ****   for (i = 0U; i < USBH_MAX_PIPES_NBR; i++)
  41              		.loc 1 226 3 view .LVU3
  42              		.loc 1 226 10 is_stmt 0 view .LVU4
  43 0004 0023     		movs	r3, #0
  44              	.LVL2:
  45              	.L2:
  46              		.loc 1 226 16 is_stmt 1 discriminator 1 view .LVU5
  47              		.loc 1 226 3 is_stmt 0 discriminator 1 view .LVU6
  48 0006 0F2B     		cmp	r3, #15
  49 0008 07D8     		bhi	.L7
 227:Middlewares/ST/STM32_USB_Host_Library/Core/Src/usbh_core.c ****   {
 228:Middlewares/ST/STM32_USB_Host_Library/Core/Src/usbh_core.c ****     phost->Pipes[i] = 0U;
  50              		.loc 1 228 5 is_stmt 1 discriminator 3 view .LVU7
  51              		.loc 1 228 21 is_stmt 0 discriminator 3 view .LVU8
  52 000a 03F1E002 		add	r2, r3, #224
  53 000e 04EB8202 		add	r2, r4, r2, lsl #2
  54 0012 0021     		movs	r1, #0
  55 0014 5160     		str	r1, [r2, #4]
 226:Middlewares/ST/STM32_USB_Host_Library/Core/Src/usbh_core.c ****   {
  56              		.loc 1 226 40 is_stmt 1 discriminator 3 view .LVU9
 226:Middlewares/ST/STM32_USB_Host_Library/Core/Src/usbh_core.c ****   {
ARM GAS  /tmp/ccBJZy1z.s 			page 6


  57              		.loc 1 226 41 is_stmt 0 discriminator 3 view .LVU10
  58 0016 0133     		adds	r3, r3, #1
  59              	.LVL3:
 226:Middlewares/ST/STM32_USB_Host_Library/Core/Src/usbh_core.c ****   {
  60              		.loc 1 226 41 discriminator 3 view .LVU11
  61 0018 F5E7     		b	.L2
  62              	.L7:
 229:Middlewares/ST/STM32_USB_Host_Library/Core/Src/usbh_core.c ****   }
 230:Middlewares/ST/STM32_USB_Host_Library/Core/Src/usbh_core.c **** 
 231:Middlewares/ST/STM32_USB_Host_Library/Core/Src/usbh_core.c ****   for (i = 0U; i < USBH_MAX_DATA_BUFFER; i++)
  63              		.loc 1 231 10 view .LVU12
  64 001a 0023     		movs	r3, #0
  65              	.LVL4:
  66              	.L4:
  67              		.loc 1 231 16 is_stmt 1 discriminator 1 view .LVU13
  68              		.loc 1 231 3 is_stmt 0 discriminator 1 view .LVU14
  69 001c B3F5007F 		cmp	r3, #512
  70 0020 05D2     		bcs	.L8
 232:Middlewares/ST/STM32_USB_Host_Library/Core/Src/usbh_core.c ****   {
 233:Middlewares/ST/STM32_USB_Host_Library/Core/Src/usbh_core.c ****     phost->device.Data[i] = 0U;
  71              		.loc 1 233 5 is_stmt 1 discriminator 3 view .LVU15
  72              		.loc 1 233 27 is_stmt 0 discriminator 3 view .LVU16
  73 0022 E218     		adds	r2, r4, r3
  74 0024 0021     		movs	r1, #0
  75 0026 82F81C11 		strb	r1, [r2, #284]
 231:Middlewares/ST/STM32_USB_Host_Library/Core/Src/usbh_core.c ****   {
  76              		.loc 1 231 42 is_stmt 1 discriminator 3 view .LVU17
 231:Middlewares/ST/STM32_USB_Host_Library/Core/Src/usbh_core.c ****   {
  77              		.loc 1 231 43 is_stmt 0 discriminator 3 view .LVU18
  78 002a 0133     		adds	r3, r3, #1
  79              	.LVL5:
 231:Middlewares/ST/STM32_USB_Host_Library/Core/Src/usbh_core.c ****   {
  80              		.loc 1 231 43 discriminator 3 view .LVU19
  81 002c F6E7     		b	.L4
  82              	.L8:
 234:Middlewares/ST/STM32_USB_Host_Library/Core/Src/usbh_core.c ****   }
 235:Middlewares/ST/STM32_USB_Host_Library/Core/Src/usbh_core.c **** 
 236:Middlewares/ST/STM32_USB_Host_Library/Core/Src/usbh_core.c ****   phost->gState = HOST_IDLE;
  83              		.loc 1 236 3 is_stmt 1 view .LVU20
  84              		.loc 1 236 17 is_stmt 0 view .LVU21
  85 002e 0020     		movs	r0, #0
  86              	.LVL6:
  87              		.loc 1 236 17 view .LVU22
  88 0030 2070     		strb	r0, [r4]
 237:Middlewares/ST/STM32_USB_Host_Library/Core/Src/usbh_core.c ****   phost->EnumState = ENUM_IDLE;
  89              		.loc 1 237 3 is_stmt 1 view .LVU23
  90              		.loc 1 237 20 is_stmt 0 view .LVU24
  91 0032 6070     		strb	r0, [r4, #1]
 238:Middlewares/ST/STM32_USB_Host_Library/Core/Src/usbh_core.c ****   phost->RequestState = CMD_SEND;
  92              		.loc 1 238 3 is_stmt 1 view .LVU25
  93              		.loc 1 238 23 is_stmt 0 view .LVU26
  94 0034 0123     		movs	r3, #1
  95              	.LVL7:
  96              		.loc 1 238 23 view .LVU27
  97 0036 A370     		strb	r3, [r4, #2]
 239:Middlewares/ST/STM32_USB_Host_Library/Core/Src/usbh_core.c ****   phost->Timer = 0U;
  98              		.loc 1 239 3 is_stmt 1 view .LVU28
ARM GAS  /tmp/ccBJZy1z.s 			page 7


  99              		.loc 1 239 16 is_stmt 0 view .LVU29
 100 0038 C4F8C403 		str	r0, [r4, #964]
 240:Middlewares/ST/STM32_USB_Host_Library/Core/Src/usbh_core.c **** 
 241:Middlewares/ST/STM32_USB_Host_Library/Core/Src/usbh_core.c ****   phost->Control.state = CTRL_SETUP;
 101              		.loc 1 241 3 is_stmt 1 view .LVU30
 102              		.loc 1 241 24 is_stmt 0 view .LVU31
 103 003c 2376     		strb	r3, [r4, #24]
 242:Middlewares/ST/STM32_USB_Host_Library/Core/Src/usbh_core.c ****   phost->Control.pipe_size = USBH_MPS_DEFAULT;
 104              		.loc 1 242 3 is_stmt 1 view .LVU32
 105              		.loc 1 242 28 is_stmt 0 view .LVU33
 106 003e 4022     		movs	r2, #64
 107 0040 A271     		strb	r2, [r4, #6]
 243:Middlewares/ST/STM32_USB_Host_Library/Core/Src/usbh_core.c ****   phost->Control.errorcount = 0U;
 108              		.loc 1 243 3 is_stmt 1 view .LVU34
 109              		.loc 1 243 29 is_stmt 0 view .LVU35
 110 0042 6076     		strb	r0, [r4, #25]
 244:Middlewares/ST/STM32_USB_Host_Library/Core/Src/usbh_core.c **** 
 245:Middlewares/ST/STM32_USB_Host_Library/Core/Src/usbh_core.c ****   phost->device.address = USBH_ADDRESS_DEFAULT;
 111              		.loc 1 245 3 is_stmt 1 view .LVU36
 112              		.loc 1 245 25 is_stmt 0 view .LVU37
 113 0044 84F81C03 		strb	r0, [r4, #796]
 246:Middlewares/ST/STM32_USB_Host_Library/Core/Src/usbh_core.c ****   phost->device.speed = (uint8_t)USBH_SPEED_FULL;
 114              		.loc 1 246 3 is_stmt 1 view .LVU38
 115              		.loc 1 246 23 is_stmt 0 view .LVU39
 116 0048 84F81D33 		strb	r3, [r4, #797]
 247:Middlewares/ST/STM32_USB_Host_Library/Core/Src/usbh_core.c ****   phost->device.RstCnt = 0U;
 117              		.loc 1 247 3 is_stmt 1 view .LVU40
 118              		.loc 1 247 24 is_stmt 0 view .LVU41
 119 004c 84F81F03 		strb	r0, [r4, #799]
 248:Middlewares/ST/STM32_USB_Host_Library/Core/Src/usbh_core.c ****   phost->device.EnumCnt = 0U;
 120              		.loc 1 248 3 is_stmt 1 view .LVU42
 121              		.loc 1 248 25 is_stmt 0 view .LVU43
 122 0050 84F81E03 		strb	r0, [r4, #798]
 249:Middlewares/ST/STM32_USB_Host_Library/Core/Src/usbh_core.c **** 
 250:Middlewares/ST/STM32_USB_Host_Library/Core/Src/usbh_core.c ****   return USBH_OK;
 123              		.loc 1 250 3 is_stmt 1 view .LVU44
 251:Middlewares/ST/STM32_USB_Host_Library/Core/Src/usbh_core.c **** }
 124              		.loc 1 251 1 is_stmt 0 view .LVU45
 125 0054 5DF8044B 		ldr	r4, [sp], #4
 126              		.cfi_restore 4
 127              		.cfi_def_cfa_offset 0
 128              	.LVL8:
 129              		.loc 1 251 1 view .LVU46
 130 0058 7047     		bx	lr
 131              		.cfi_endproc
 132              	.LFE135:
 134              		.section	.text.USBH_HandleSof,"ax",%progbits
 135              		.align	1
 136              		.syntax unified
 137              		.thumb
 138              		.thumb_func
 139              		.fpu fpv4-sp-d16
 141              	USBH_HandleSof:
 142              	.LVL9:
 143              	.LFB148:
 252:Middlewares/ST/STM32_USB_Host_Library/Core/Src/usbh_core.c **** 
 253:Middlewares/ST/STM32_USB_Host_Library/Core/Src/usbh_core.c **** 
ARM GAS  /tmp/ccBJZy1z.s 			page 8


 254:Middlewares/ST/STM32_USB_Host_Library/Core/Src/usbh_core.c **** /**
 255:Middlewares/ST/STM32_USB_Host_Library/Core/Src/usbh_core.c ****   * @brief  USBH_RegisterClass
 256:Middlewares/ST/STM32_USB_Host_Library/Core/Src/usbh_core.c ****   *         Link class driver to Host Core.
 257:Middlewares/ST/STM32_USB_Host_Library/Core/Src/usbh_core.c ****   * @param  phost : Host Handle
 258:Middlewares/ST/STM32_USB_Host_Library/Core/Src/usbh_core.c ****   * @param  pclass: Class handle
 259:Middlewares/ST/STM32_USB_Host_Library/Core/Src/usbh_core.c ****   * @retval USBH Status
 260:Middlewares/ST/STM32_USB_Host_Library/Core/Src/usbh_core.c ****   */
 261:Middlewares/ST/STM32_USB_Host_Library/Core/Src/usbh_core.c **** USBH_StatusTypeDef USBH_RegisterClass(USBH_HandleTypeDef *phost, USBH_ClassTypeDef *pclass)
 262:Middlewares/ST/STM32_USB_Host_Library/Core/Src/usbh_core.c **** {
 263:Middlewares/ST/STM32_USB_Host_Library/Core/Src/usbh_core.c ****   USBH_StatusTypeDef status = USBH_OK;
 264:Middlewares/ST/STM32_USB_Host_Library/Core/Src/usbh_core.c **** 
 265:Middlewares/ST/STM32_USB_Host_Library/Core/Src/usbh_core.c ****   if (pclass != NULL)
 266:Middlewares/ST/STM32_USB_Host_Library/Core/Src/usbh_core.c ****   {
 267:Middlewares/ST/STM32_USB_Host_Library/Core/Src/usbh_core.c ****     if (phost->ClassNumber < USBH_MAX_NUM_SUPPORTED_CLASS)
 268:Middlewares/ST/STM32_USB_Host_Library/Core/Src/usbh_core.c ****     {
 269:Middlewares/ST/STM32_USB_Host_Library/Core/Src/usbh_core.c ****       /* link the class to the USB Host handle */
 270:Middlewares/ST/STM32_USB_Host_Library/Core/Src/usbh_core.c ****       phost->pClass[phost->ClassNumber++] = pclass;
 271:Middlewares/ST/STM32_USB_Host_Library/Core/Src/usbh_core.c ****       status = USBH_OK;
 272:Middlewares/ST/STM32_USB_Host_Library/Core/Src/usbh_core.c ****     }
 273:Middlewares/ST/STM32_USB_Host_Library/Core/Src/usbh_core.c ****     else
 274:Middlewares/ST/STM32_USB_Host_Library/Core/Src/usbh_core.c ****     {
 275:Middlewares/ST/STM32_USB_Host_Library/Core/Src/usbh_core.c ****       USBH_ErrLog("Max Class Number reached");
 276:Middlewares/ST/STM32_USB_Host_Library/Core/Src/usbh_core.c ****       status = USBH_FAIL;
 277:Middlewares/ST/STM32_USB_Host_Library/Core/Src/usbh_core.c ****     }
 278:Middlewares/ST/STM32_USB_Host_Library/Core/Src/usbh_core.c ****   }
 279:Middlewares/ST/STM32_USB_Host_Library/Core/Src/usbh_core.c ****   else
 280:Middlewares/ST/STM32_USB_Host_Library/Core/Src/usbh_core.c ****   {
 281:Middlewares/ST/STM32_USB_Host_Library/Core/Src/usbh_core.c ****     USBH_ErrLog("Invalid Class handle");
 282:Middlewares/ST/STM32_USB_Host_Library/Core/Src/usbh_core.c ****     status = USBH_FAIL;
 283:Middlewares/ST/STM32_USB_Host_Library/Core/Src/usbh_core.c ****   }
 284:Middlewares/ST/STM32_USB_Host_Library/Core/Src/usbh_core.c **** 
 285:Middlewares/ST/STM32_USB_Host_Library/Core/Src/usbh_core.c ****   return status;
 286:Middlewares/ST/STM32_USB_Host_Library/Core/Src/usbh_core.c **** }
 287:Middlewares/ST/STM32_USB_Host_Library/Core/Src/usbh_core.c **** 
 288:Middlewares/ST/STM32_USB_Host_Library/Core/Src/usbh_core.c **** 
 289:Middlewares/ST/STM32_USB_Host_Library/Core/Src/usbh_core.c **** /**
 290:Middlewares/ST/STM32_USB_Host_Library/Core/Src/usbh_core.c ****   * @brief  USBH_SelectInterface
 291:Middlewares/ST/STM32_USB_Host_Library/Core/Src/usbh_core.c ****   *         Select current interface.
 292:Middlewares/ST/STM32_USB_Host_Library/Core/Src/usbh_core.c ****   * @param  phost: Host Handle
 293:Middlewares/ST/STM32_USB_Host_Library/Core/Src/usbh_core.c ****   * @param  interface: Interface number
 294:Middlewares/ST/STM32_USB_Host_Library/Core/Src/usbh_core.c ****   * @retval USBH Status
 295:Middlewares/ST/STM32_USB_Host_Library/Core/Src/usbh_core.c ****   */
 296:Middlewares/ST/STM32_USB_Host_Library/Core/Src/usbh_core.c **** USBH_StatusTypeDef USBH_SelectInterface(USBH_HandleTypeDef *phost, uint8_t interface)
 297:Middlewares/ST/STM32_USB_Host_Library/Core/Src/usbh_core.c **** {
 298:Middlewares/ST/STM32_USB_Host_Library/Core/Src/usbh_core.c ****   USBH_StatusTypeDef status = USBH_OK;
 299:Middlewares/ST/STM32_USB_Host_Library/Core/Src/usbh_core.c **** 
 300:Middlewares/ST/STM32_USB_Host_Library/Core/Src/usbh_core.c ****   if (interface < phost->device.CfgDesc.bNumInterfaces)
 301:Middlewares/ST/STM32_USB_Host_Library/Core/Src/usbh_core.c ****   {
 302:Middlewares/ST/STM32_USB_Host_Library/Core/Src/usbh_core.c ****     phost->device.current_interface = interface;
 303:Middlewares/ST/STM32_USB_Host_Library/Core/Src/usbh_core.c ****     USBH_UsrLog("Switching to Interface (#%d)", interface);
 304:Middlewares/ST/STM32_USB_Host_Library/Core/Src/usbh_core.c ****     USBH_UsrLog("Class    : %xh", phost->device.CfgDesc.Itf_Desc[interface].bInterfaceClass);
 305:Middlewares/ST/STM32_USB_Host_Library/Core/Src/usbh_core.c ****     USBH_UsrLog("SubClass : %xh", phost->device.CfgDesc.Itf_Desc[interface].bInterfaceSubClass);
 306:Middlewares/ST/STM32_USB_Host_Library/Core/Src/usbh_core.c ****     USBH_UsrLog("Protocol : %xh", phost->device.CfgDesc.Itf_Desc[interface].bInterfaceProtocol);
 307:Middlewares/ST/STM32_USB_Host_Library/Core/Src/usbh_core.c ****   }
 308:Middlewares/ST/STM32_USB_Host_Library/Core/Src/usbh_core.c ****   else
 309:Middlewares/ST/STM32_USB_Host_Library/Core/Src/usbh_core.c ****   {
 310:Middlewares/ST/STM32_USB_Host_Library/Core/Src/usbh_core.c ****     USBH_ErrLog("Cannot Select This Interface.");
ARM GAS  /tmp/ccBJZy1z.s 			page 9


 311:Middlewares/ST/STM32_USB_Host_Library/Core/Src/usbh_core.c ****     status = USBH_FAIL;
 312:Middlewares/ST/STM32_USB_Host_Library/Core/Src/usbh_core.c ****   }
 313:Middlewares/ST/STM32_USB_Host_Library/Core/Src/usbh_core.c **** 
 314:Middlewares/ST/STM32_USB_Host_Library/Core/Src/usbh_core.c ****   return status;
 315:Middlewares/ST/STM32_USB_Host_Library/Core/Src/usbh_core.c **** }
 316:Middlewares/ST/STM32_USB_Host_Library/Core/Src/usbh_core.c **** 
 317:Middlewares/ST/STM32_USB_Host_Library/Core/Src/usbh_core.c **** 
 318:Middlewares/ST/STM32_USB_Host_Library/Core/Src/usbh_core.c **** /**
 319:Middlewares/ST/STM32_USB_Host_Library/Core/Src/usbh_core.c ****   * @brief  USBH_GetActiveClass
 320:Middlewares/ST/STM32_USB_Host_Library/Core/Src/usbh_core.c ****   *         Return Device Class.
 321:Middlewares/ST/STM32_USB_Host_Library/Core/Src/usbh_core.c ****   * @param  phost: Host Handle
 322:Middlewares/ST/STM32_USB_Host_Library/Core/Src/usbh_core.c ****   * @param  interface: Interface index
 323:Middlewares/ST/STM32_USB_Host_Library/Core/Src/usbh_core.c ****   * @retval Class Code
 324:Middlewares/ST/STM32_USB_Host_Library/Core/Src/usbh_core.c ****   */
 325:Middlewares/ST/STM32_USB_Host_Library/Core/Src/usbh_core.c **** uint8_t USBH_GetActiveClass(USBH_HandleTypeDef *phost)
 326:Middlewares/ST/STM32_USB_Host_Library/Core/Src/usbh_core.c **** {
 327:Middlewares/ST/STM32_USB_Host_Library/Core/Src/usbh_core.c ****   return (phost->device.CfgDesc.Itf_Desc[0].bInterfaceClass);
 328:Middlewares/ST/STM32_USB_Host_Library/Core/Src/usbh_core.c **** }
 329:Middlewares/ST/STM32_USB_Host_Library/Core/Src/usbh_core.c **** 
 330:Middlewares/ST/STM32_USB_Host_Library/Core/Src/usbh_core.c **** 
 331:Middlewares/ST/STM32_USB_Host_Library/Core/Src/usbh_core.c **** /**
 332:Middlewares/ST/STM32_USB_Host_Library/Core/Src/usbh_core.c ****   * @brief  USBH_FindInterface
 333:Middlewares/ST/STM32_USB_Host_Library/Core/Src/usbh_core.c ****   *         Find the interface index for a specific class.
 334:Middlewares/ST/STM32_USB_Host_Library/Core/Src/usbh_core.c ****   * @param  phost: Host Handle
 335:Middlewares/ST/STM32_USB_Host_Library/Core/Src/usbh_core.c ****   * @param  Class: Class code
 336:Middlewares/ST/STM32_USB_Host_Library/Core/Src/usbh_core.c ****   * @param  SubClass: SubClass code
 337:Middlewares/ST/STM32_USB_Host_Library/Core/Src/usbh_core.c ****   * @param  Protocol: Protocol code
 338:Middlewares/ST/STM32_USB_Host_Library/Core/Src/usbh_core.c ****   * @retval interface index in the configuration structure
 339:Middlewares/ST/STM32_USB_Host_Library/Core/Src/usbh_core.c ****   * @note : (1)interface index 0xFF means interface index not found
 340:Middlewares/ST/STM32_USB_Host_Library/Core/Src/usbh_core.c ****   */
 341:Middlewares/ST/STM32_USB_Host_Library/Core/Src/usbh_core.c **** uint8_t  USBH_FindInterface(USBH_HandleTypeDef *phost, uint8_t Class, uint8_t SubClass, uint8_t Pro
 342:Middlewares/ST/STM32_USB_Host_Library/Core/Src/usbh_core.c **** {
 343:Middlewares/ST/STM32_USB_Host_Library/Core/Src/usbh_core.c ****   USBH_InterfaceDescTypeDef *pif;
 344:Middlewares/ST/STM32_USB_Host_Library/Core/Src/usbh_core.c ****   USBH_CfgDescTypeDef *pcfg;
 345:Middlewares/ST/STM32_USB_Host_Library/Core/Src/usbh_core.c ****   uint8_t if_ix = 0U;
 346:Middlewares/ST/STM32_USB_Host_Library/Core/Src/usbh_core.c **** 
 347:Middlewares/ST/STM32_USB_Host_Library/Core/Src/usbh_core.c ****   pif = (USBH_InterfaceDescTypeDef *)NULL;
 348:Middlewares/ST/STM32_USB_Host_Library/Core/Src/usbh_core.c ****   pcfg = &phost->device.CfgDesc;
 349:Middlewares/ST/STM32_USB_Host_Library/Core/Src/usbh_core.c **** 
 350:Middlewares/ST/STM32_USB_Host_Library/Core/Src/usbh_core.c ****   while (if_ix < USBH_MAX_NUM_INTERFACES)
 351:Middlewares/ST/STM32_USB_Host_Library/Core/Src/usbh_core.c ****   {
 352:Middlewares/ST/STM32_USB_Host_Library/Core/Src/usbh_core.c ****     pif = &pcfg->Itf_Desc[if_ix];
 353:Middlewares/ST/STM32_USB_Host_Library/Core/Src/usbh_core.c ****     if (((pif->bInterfaceClass == Class) || (Class == 0xFFU)) &&
 354:Middlewares/ST/STM32_USB_Host_Library/Core/Src/usbh_core.c ****         ((pif->bInterfaceSubClass == SubClass) || (SubClass == 0xFFU)) &&
 355:Middlewares/ST/STM32_USB_Host_Library/Core/Src/usbh_core.c ****         ((pif->bInterfaceProtocol == Protocol) || (Protocol == 0xFFU)))
 356:Middlewares/ST/STM32_USB_Host_Library/Core/Src/usbh_core.c ****     {
 357:Middlewares/ST/STM32_USB_Host_Library/Core/Src/usbh_core.c ****       return  if_ix;
 358:Middlewares/ST/STM32_USB_Host_Library/Core/Src/usbh_core.c ****     }
 359:Middlewares/ST/STM32_USB_Host_Library/Core/Src/usbh_core.c ****     if_ix++;
 360:Middlewares/ST/STM32_USB_Host_Library/Core/Src/usbh_core.c ****   }
 361:Middlewares/ST/STM32_USB_Host_Library/Core/Src/usbh_core.c ****   return 0xFFU;
 362:Middlewares/ST/STM32_USB_Host_Library/Core/Src/usbh_core.c **** }
 363:Middlewares/ST/STM32_USB_Host_Library/Core/Src/usbh_core.c **** 
 364:Middlewares/ST/STM32_USB_Host_Library/Core/Src/usbh_core.c **** 
 365:Middlewares/ST/STM32_USB_Host_Library/Core/Src/usbh_core.c **** /**
 366:Middlewares/ST/STM32_USB_Host_Library/Core/Src/usbh_core.c ****   * @brief  USBH_FindInterfaceIndex
 367:Middlewares/ST/STM32_USB_Host_Library/Core/Src/usbh_core.c ****   *         Find the interface index for a specific class interface and alternate setting number.
ARM GAS  /tmp/ccBJZy1z.s 			page 10


 368:Middlewares/ST/STM32_USB_Host_Library/Core/Src/usbh_core.c ****   * @param  phost: Host Handle
 369:Middlewares/ST/STM32_USB_Host_Library/Core/Src/usbh_core.c ****   * @param  interface_number: interface number
 370:Middlewares/ST/STM32_USB_Host_Library/Core/Src/usbh_core.c ****   * @param  alt_settings    : alternate setting number
 371:Middlewares/ST/STM32_USB_Host_Library/Core/Src/usbh_core.c ****   * @retval interface index in the configuration structure
 372:Middlewares/ST/STM32_USB_Host_Library/Core/Src/usbh_core.c ****   * @note : (1)interface index 0xFF means interface index not found
 373:Middlewares/ST/STM32_USB_Host_Library/Core/Src/usbh_core.c ****   */
 374:Middlewares/ST/STM32_USB_Host_Library/Core/Src/usbh_core.c **** uint8_t  USBH_FindInterfaceIndex(USBH_HandleTypeDef *phost, uint8_t interface_number, uint8_t alt_s
 375:Middlewares/ST/STM32_USB_Host_Library/Core/Src/usbh_core.c **** {
 376:Middlewares/ST/STM32_USB_Host_Library/Core/Src/usbh_core.c ****   USBH_InterfaceDescTypeDef *pif;
 377:Middlewares/ST/STM32_USB_Host_Library/Core/Src/usbh_core.c ****   USBH_CfgDescTypeDef *pcfg;
 378:Middlewares/ST/STM32_USB_Host_Library/Core/Src/usbh_core.c ****   uint8_t if_ix = 0U;
 379:Middlewares/ST/STM32_USB_Host_Library/Core/Src/usbh_core.c **** 
 380:Middlewares/ST/STM32_USB_Host_Library/Core/Src/usbh_core.c ****   pif = (USBH_InterfaceDescTypeDef *)NULL;
 381:Middlewares/ST/STM32_USB_Host_Library/Core/Src/usbh_core.c ****   pcfg = &phost->device.CfgDesc;
 382:Middlewares/ST/STM32_USB_Host_Library/Core/Src/usbh_core.c **** 
 383:Middlewares/ST/STM32_USB_Host_Library/Core/Src/usbh_core.c ****   while (if_ix < USBH_MAX_NUM_INTERFACES)
 384:Middlewares/ST/STM32_USB_Host_Library/Core/Src/usbh_core.c ****   {
 385:Middlewares/ST/STM32_USB_Host_Library/Core/Src/usbh_core.c ****     pif = &pcfg->Itf_Desc[if_ix];
 386:Middlewares/ST/STM32_USB_Host_Library/Core/Src/usbh_core.c ****     if ((pif->bInterfaceNumber == interface_number) && (pif->bAlternateSetting == alt_settings))
 387:Middlewares/ST/STM32_USB_Host_Library/Core/Src/usbh_core.c ****     {
 388:Middlewares/ST/STM32_USB_Host_Library/Core/Src/usbh_core.c ****       return  if_ix;
 389:Middlewares/ST/STM32_USB_Host_Library/Core/Src/usbh_core.c ****     }
 390:Middlewares/ST/STM32_USB_Host_Library/Core/Src/usbh_core.c ****     if_ix++;
 391:Middlewares/ST/STM32_USB_Host_Library/Core/Src/usbh_core.c ****   }
 392:Middlewares/ST/STM32_USB_Host_Library/Core/Src/usbh_core.c ****   return 0xFFU;
 393:Middlewares/ST/STM32_USB_Host_Library/Core/Src/usbh_core.c **** }
 394:Middlewares/ST/STM32_USB_Host_Library/Core/Src/usbh_core.c **** 
 395:Middlewares/ST/STM32_USB_Host_Library/Core/Src/usbh_core.c **** 
 396:Middlewares/ST/STM32_USB_Host_Library/Core/Src/usbh_core.c **** /**
 397:Middlewares/ST/STM32_USB_Host_Library/Core/Src/usbh_core.c ****   * @brief  USBH_Start
 398:Middlewares/ST/STM32_USB_Host_Library/Core/Src/usbh_core.c ****   *         Start the USB Host Core.
 399:Middlewares/ST/STM32_USB_Host_Library/Core/Src/usbh_core.c ****   * @param  phost: Host Handle
 400:Middlewares/ST/STM32_USB_Host_Library/Core/Src/usbh_core.c ****   * @retval USBH Status
 401:Middlewares/ST/STM32_USB_Host_Library/Core/Src/usbh_core.c ****   */
 402:Middlewares/ST/STM32_USB_Host_Library/Core/Src/usbh_core.c **** USBH_StatusTypeDef  USBH_Start(USBH_HandleTypeDef *phost)
 403:Middlewares/ST/STM32_USB_Host_Library/Core/Src/usbh_core.c **** {
 404:Middlewares/ST/STM32_USB_Host_Library/Core/Src/usbh_core.c ****   /* Start the low level driver  */
 405:Middlewares/ST/STM32_USB_Host_Library/Core/Src/usbh_core.c ****   (void)USBH_LL_Start(phost);
 406:Middlewares/ST/STM32_USB_Host_Library/Core/Src/usbh_core.c **** 
 407:Middlewares/ST/STM32_USB_Host_Library/Core/Src/usbh_core.c ****   /* Activate VBUS on the port */
 408:Middlewares/ST/STM32_USB_Host_Library/Core/Src/usbh_core.c ****   (void)USBH_LL_DriverVBUS(phost, TRUE);
 409:Middlewares/ST/STM32_USB_Host_Library/Core/Src/usbh_core.c **** 
 410:Middlewares/ST/STM32_USB_Host_Library/Core/Src/usbh_core.c ****   return USBH_OK;
 411:Middlewares/ST/STM32_USB_Host_Library/Core/Src/usbh_core.c **** }
 412:Middlewares/ST/STM32_USB_Host_Library/Core/Src/usbh_core.c **** 
 413:Middlewares/ST/STM32_USB_Host_Library/Core/Src/usbh_core.c **** 
 414:Middlewares/ST/STM32_USB_Host_Library/Core/Src/usbh_core.c **** /**
 415:Middlewares/ST/STM32_USB_Host_Library/Core/Src/usbh_core.c ****   * @brief  USBH_Stop
 416:Middlewares/ST/STM32_USB_Host_Library/Core/Src/usbh_core.c ****   *         Stop the USB Host Core.
 417:Middlewares/ST/STM32_USB_Host_Library/Core/Src/usbh_core.c ****   * @param  phost: Host Handle
 418:Middlewares/ST/STM32_USB_Host_Library/Core/Src/usbh_core.c ****   * @retval USBH Status
 419:Middlewares/ST/STM32_USB_Host_Library/Core/Src/usbh_core.c ****   */
 420:Middlewares/ST/STM32_USB_Host_Library/Core/Src/usbh_core.c **** USBH_StatusTypeDef  USBH_Stop(USBH_HandleTypeDef *phost)
 421:Middlewares/ST/STM32_USB_Host_Library/Core/Src/usbh_core.c **** {
 422:Middlewares/ST/STM32_USB_Host_Library/Core/Src/usbh_core.c ****   /* DeActivate VBUS on the port */
 423:Middlewares/ST/STM32_USB_Host_Library/Core/Src/usbh_core.c ****   (void)USBH_LL_DriverVBUS(phost, FALSE);
 424:Middlewares/ST/STM32_USB_Host_Library/Core/Src/usbh_core.c **** 
ARM GAS  /tmp/ccBJZy1z.s 			page 11


 425:Middlewares/ST/STM32_USB_Host_Library/Core/Src/usbh_core.c ****   /* Stop and cleanup the low level driver  */
 426:Middlewares/ST/STM32_USB_Host_Library/Core/Src/usbh_core.c ****   (void)USBH_LL_Stop(phost);
 427:Middlewares/ST/STM32_USB_Host_Library/Core/Src/usbh_core.c **** 
 428:Middlewares/ST/STM32_USB_Host_Library/Core/Src/usbh_core.c ****   /* Free Control Pipes */
 429:Middlewares/ST/STM32_USB_Host_Library/Core/Src/usbh_core.c ****   (void)USBH_FreePipe(phost, phost->Control.pipe_in);
 430:Middlewares/ST/STM32_USB_Host_Library/Core/Src/usbh_core.c ****   (void)USBH_FreePipe(phost, phost->Control.pipe_out);
 431:Middlewares/ST/STM32_USB_Host_Library/Core/Src/usbh_core.c **** 
 432:Middlewares/ST/STM32_USB_Host_Library/Core/Src/usbh_core.c ****   return USBH_OK;
 433:Middlewares/ST/STM32_USB_Host_Library/Core/Src/usbh_core.c **** }
 434:Middlewares/ST/STM32_USB_Host_Library/Core/Src/usbh_core.c **** 
 435:Middlewares/ST/STM32_USB_Host_Library/Core/Src/usbh_core.c **** 
 436:Middlewares/ST/STM32_USB_Host_Library/Core/Src/usbh_core.c **** /**
 437:Middlewares/ST/STM32_USB_Host_Library/Core/Src/usbh_core.c ****   * @brief  HCD_ReEnumerate
 438:Middlewares/ST/STM32_USB_Host_Library/Core/Src/usbh_core.c ****   *         Perform a new Enumeration phase.
 439:Middlewares/ST/STM32_USB_Host_Library/Core/Src/usbh_core.c ****   * @param  phost: Host Handle
 440:Middlewares/ST/STM32_USB_Host_Library/Core/Src/usbh_core.c ****   * @retval USBH Status
 441:Middlewares/ST/STM32_USB_Host_Library/Core/Src/usbh_core.c ****   */
 442:Middlewares/ST/STM32_USB_Host_Library/Core/Src/usbh_core.c **** USBH_StatusTypeDef USBH_ReEnumerate(USBH_HandleTypeDef *phost)
 443:Middlewares/ST/STM32_USB_Host_Library/Core/Src/usbh_core.c **** {
 444:Middlewares/ST/STM32_USB_Host_Library/Core/Src/usbh_core.c ****   if (USBH_IsPortEnabled(phost) != 0U)
 445:Middlewares/ST/STM32_USB_Host_Library/Core/Src/usbh_core.c ****   {
 446:Middlewares/ST/STM32_USB_Host_Library/Core/Src/usbh_core.c ****     phost->device.is_ReEnumerated = 1U;
 447:Middlewares/ST/STM32_USB_Host_Library/Core/Src/usbh_core.c **** 
 448:Middlewares/ST/STM32_USB_Host_Library/Core/Src/usbh_core.c ****     /* Stop Host */
 449:Middlewares/ST/STM32_USB_Host_Library/Core/Src/usbh_core.c ****     (void)USBH_Stop(phost);
 450:Middlewares/ST/STM32_USB_Host_Library/Core/Src/usbh_core.c **** 
 451:Middlewares/ST/STM32_USB_Host_Library/Core/Src/usbh_core.c ****     phost->device.is_disconnected = 1U;
 452:Middlewares/ST/STM32_USB_Host_Library/Core/Src/usbh_core.c ****   }
 453:Middlewares/ST/STM32_USB_Host_Library/Core/Src/usbh_core.c **** 
 454:Middlewares/ST/STM32_USB_Host_Library/Core/Src/usbh_core.c **** #if (USBH_USE_OS == 1U)
 455:Middlewares/ST/STM32_USB_Host_Library/Core/Src/usbh_core.c ****   phost->os_msg = (uint32_t)USBH_PORT_EVENT;
 456:Middlewares/ST/STM32_USB_Host_Library/Core/Src/usbh_core.c **** #if (osCMSIS < 0x20000U)
 457:Middlewares/ST/STM32_USB_Host_Library/Core/Src/usbh_core.c ****   (void)osMessagePut(phost->os_event, phost->os_msg, 0U);
 458:Middlewares/ST/STM32_USB_Host_Library/Core/Src/usbh_core.c **** #else
 459:Middlewares/ST/STM32_USB_Host_Library/Core/Src/usbh_core.c ****   (void)osMessageQueuePut(phost->os_event, &phost->os_msg, 0U, 0U);
 460:Middlewares/ST/STM32_USB_Host_Library/Core/Src/usbh_core.c **** #endif
 461:Middlewares/ST/STM32_USB_Host_Library/Core/Src/usbh_core.c **** #endif
 462:Middlewares/ST/STM32_USB_Host_Library/Core/Src/usbh_core.c **** 
 463:Middlewares/ST/STM32_USB_Host_Library/Core/Src/usbh_core.c ****   return USBH_OK;
 464:Middlewares/ST/STM32_USB_Host_Library/Core/Src/usbh_core.c **** }
 465:Middlewares/ST/STM32_USB_Host_Library/Core/Src/usbh_core.c **** 
 466:Middlewares/ST/STM32_USB_Host_Library/Core/Src/usbh_core.c **** 
 467:Middlewares/ST/STM32_USB_Host_Library/Core/Src/usbh_core.c **** /**
 468:Middlewares/ST/STM32_USB_Host_Library/Core/Src/usbh_core.c ****   * @brief  USBH_Process
 469:Middlewares/ST/STM32_USB_Host_Library/Core/Src/usbh_core.c ****   *         Background process of the USB Core.
 470:Middlewares/ST/STM32_USB_Host_Library/Core/Src/usbh_core.c ****   * @param  phost: Host Handle
 471:Middlewares/ST/STM32_USB_Host_Library/Core/Src/usbh_core.c ****   * @retval USBH Status
 472:Middlewares/ST/STM32_USB_Host_Library/Core/Src/usbh_core.c ****   */
 473:Middlewares/ST/STM32_USB_Host_Library/Core/Src/usbh_core.c **** USBH_StatusTypeDef  USBH_Process(USBH_HandleTypeDef *phost)
 474:Middlewares/ST/STM32_USB_Host_Library/Core/Src/usbh_core.c **** {
 475:Middlewares/ST/STM32_USB_Host_Library/Core/Src/usbh_core.c ****   __IO USBH_StatusTypeDef status = USBH_FAIL;
 476:Middlewares/ST/STM32_USB_Host_Library/Core/Src/usbh_core.c ****   uint8_t idx = 0U;
 477:Middlewares/ST/STM32_USB_Host_Library/Core/Src/usbh_core.c **** 
 478:Middlewares/ST/STM32_USB_Host_Library/Core/Src/usbh_core.c ****   /* check for Host pending port disconnect event */
 479:Middlewares/ST/STM32_USB_Host_Library/Core/Src/usbh_core.c ****   if (phost->device.is_disconnected == 1U)
 480:Middlewares/ST/STM32_USB_Host_Library/Core/Src/usbh_core.c ****   {
 481:Middlewares/ST/STM32_USB_Host_Library/Core/Src/usbh_core.c ****     phost->gState = HOST_DEV_DISCONNECTED;
ARM GAS  /tmp/ccBJZy1z.s 			page 12


 482:Middlewares/ST/STM32_USB_Host_Library/Core/Src/usbh_core.c ****   }
 483:Middlewares/ST/STM32_USB_Host_Library/Core/Src/usbh_core.c **** 
 484:Middlewares/ST/STM32_USB_Host_Library/Core/Src/usbh_core.c ****   switch (phost->gState)
 485:Middlewares/ST/STM32_USB_Host_Library/Core/Src/usbh_core.c ****   {
 486:Middlewares/ST/STM32_USB_Host_Library/Core/Src/usbh_core.c ****     case HOST_IDLE :
 487:Middlewares/ST/STM32_USB_Host_Library/Core/Src/usbh_core.c **** 
 488:Middlewares/ST/STM32_USB_Host_Library/Core/Src/usbh_core.c ****       if ((phost->device.is_connected) != 0U)
 489:Middlewares/ST/STM32_USB_Host_Library/Core/Src/usbh_core.c ****       {
 490:Middlewares/ST/STM32_USB_Host_Library/Core/Src/usbh_core.c ****         USBH_UsrLog("USB Device Connected");
 491:Middlewares/ST/STM32_USB_Host_Library/Core/Src/usbh_core.c **** 
 492:Middlewares/ST/STM32_USB_Host_Library/Core/Src/usbh_core.c ****         /* Wait for 200 ms after connection */
 493:Middlewares/ST/STM32_USB_Host_Library/Core/Src/usbh_core.c ****         phost->gState = HOST_DEV_WAIT_FOR_ATTACHMENT;
 494:Middlewares/ST/STM32_USB_Host_Library/Core/Src/usbh_core.c ****         USBH_Delay(200U);
 495:Middlewares/ST/STM32_USB_Host_Library/Core/Src/usbh_core.c ****         (void)USBH_LL_ResetPort(phost);
 496:Middlewares/ST/STM32_USB_Host_Library/Core/Src/usbh_core.c **** 
 497:Middlewares/ST/STM32_USB_Host_Library/Core/Src/usbh_core.c ****         /* Make sure to start with Default address */
 498:Middlewares/ST/STM32_USB_Host_Library/Core/Src/usbh_core.c ****         phost->device.address = USBH_ADDRESS_DEFAULT;
 499:Middlewares/ST/STM32_USB_Host_Library/Core/Src/usbh_core.c ****         phost->Timeout = 0U;
 500:Middlewares/ST/STM32_USB_Host_Library/Core/Src/usbh_core.c **** 
 501:Middlewares/ST/STM32_USB_Host_Library/Core/Src/usbh_core.c **** #if (USBH_USE_OS == 1U)
 502:Middlewares/ST/STM32_USB_Host_Library/Core/Src/usbh_core.c ****         phost->os_msg = (uint32_t)USBH_PORT_EVENT;
 503:Middlewares/ST/STM32_USB_Host_Library/Core/Src/usbh_core.c **** #if (osCMSIS < 0x20000U)
 504:Middlewares/ST/STM32_USB_Host_Library/Core/Src/usbh_core.c ****         (void)osMessagePut(phost->os_event, phost->os_msg, 0U);
 505:Middlewares/ST/STM32_USB_Host_Library/Core/Src/usbh_core.c **** #else
 506:Middlewares/ST/STM32_USB_Host_Library/Core/Src/usbh_core.c ****         (void)osMessageQueuePut(phost->os_event, &phost->os_msg, 0U, 0U);
 507:Middlewares/ST/STM32_USB_Host_Library/Core/Src/usbh_core.c **** #endif
 508:Middlewares/ST/STM32_USB_Host_Library/Core/Src/usbh_core.c **** #endif
 509:Middlewares/ST/STM32_USB_Host_Library/Core/Src/usbh_core.c ****       }
 510:Middlewares/ST/STM32_USB_Host_Library/Core/Src/usbh_core.c ****       break;
 511:Middlewares/ST/STM32_USB_Host_Library/Core/Src/usbh_core.c **** 
 512:Middlewares/ST/STM32_USB_Host_Library/Core/Src/usbh_core.c ****     case HOST_DEV_WAIT_FOR_ATTACHMENT: /* Wait for Port Enabled */
 513:Middlewares/ST/STM32_USB_Host_Library/Core/Src/usbh_core.c **** 
 514:Middlewares/ST/STM32_USB_Host_Library/Core/Src/usbh_core.c ****       if (phost->device.PortEnabled == 1U)
 515:Middlewares/ST/STM32_USB_Host_Library/Core/Src/usbh_core.c ****       {
 516:Middlewares/ST/STM32_USB_Host_Library/Core/Src/usbh_core.c ****         USBH_UsrLog("USB Device Reset Completed");
 517:Middlewares/ST/STM32_USB_Host_Library/Core/Src/usbh_core.c ****         phost->device.RstCnt = 0U;
 518:Middlewares/ST/STM32_USB_Host_Library/Core/Src/usbh_core.c ****         phost->gState = HOST_DEV_ATTACHED;
 519:Middlewares/ST/STM32_USB_Host_Library/Core/Src/usbh_core.c ****       }
 520:Middlewares/ST/STM32_USB_Host_Library/Core/Src/usbh_core.c ****       else
 521:Middlewares/ST/STM32_USB_Host_Library/Core/Src/usbh_core.c ****       {
 522:Middlewares/ST/STM32_USB_Host_Library/Core/Src/usbh_core.c ****         if (phost->Timeout > USBH_DEV_RESET_TIMEOUT)
 523:Middlewares/ST/STM32_USB_Host_Library/Core/Src/usbh_core.c ****         {
 524:Middlewares/ST/STM32_USB_Host_Library/Core/Src/usbh_core.c ****           phost->device.RstCnt++;
 525:Middlewares/ST/STM32_USB_Host_Library/Core/Src/usbh_core.c ****           if (phost->device.RstCnt > 3U)
 526:Middlewares/ST/STM32_USB_Host_Library/Core/Src/usbh_core.c ****           {
 527:Middlewares/ST/STM32_USB_Host_Library/Core/Src/usbh_core.c ****             /* Buggy Device can't complete reset */
 528:Middlewares/ST/STM32_USB_Host_Library/Core/Src/usbh_core.c ****             USBH_UsrLog("USB Reset Failed, Please unplug the Device.");
 529:Middlewares/ST/STM32_USB_Host_Library/Core/Src/usbh_core.c ****             phost->gState = HOST_ABORT_STATE;
 530:Middlewares/ST/STM32_USB_Host_Library/Core/Src/usbh_core.c ****           }
 531:Middlewares/ST/STM32_USB_Host_Library/Core/Src/usbh_core.c ****           else
 532:Middlewares/ST/STM32_USB_Host_Library/Core/Src/usbh_core.c ****           {
 533:Middlewares/ST/STM32_USB_Host_Library/Core/Src/usbh_core.c ****             phost->gState = HOST_IDLE;
 534:Middlewares/ST/STM32_USB_Host_Library/Core/Src/usbh_core.c ****           }
 535:Middlewares/ST/STM32_USB_Host_Library/Core/Src/usbh_core.c ****         }
 536:Middlewares/ST/STM32_USB_Host_Library/Core/Src/usbh_core.c ****         else
 537:Middlewares/ST/STM32_USB_Host_Library/Core/Src/usbh_core.c ****         {
 538:Middlewares/ST/STM32_USB_Host_Library/Core/Src/usbh_core.c ****           phost->Timeout += 10U;
ARM GAS  /tmp/ccBJZy1z.s 			page 13


 539:Middlewares/ST/STM32_USB_Host_Library/Core/Src/usbh_core.c ****           USBH_Delay(10U);
 540:Middlewares/ST/STM32_USB_Host_Library/Core/Src/usbh_core.c ****         }
 541:Middlewares/ST/STM32_USB_Host_Library/Core/Src/usbh_core.c ****       }
 542:Middlewares/ST/STM32_USB_Host_Library/Core/Src/usbh_core.c **** #if (USBH_USE_OS == 1U)
 543:Middlewares/ST/STM32_USB_Host_Library/Core/Src/usbh_core.c ****       phost->os_msg = (uint32_t)USBH_PORT_EVENT;
 544:Middlewares/ST/STM32_USB_Host_Library/Core/Src/usbh_core.c **** #if (osCMSIS < 0x20000U)
 545:Middlewares/ST/STM32_USB_Host_Library/Core/Src/usbh_core.c ****       (void)osMessagePut(phost->os_event, phost->os_msg, 0U);
 546:Middlewares/ST/STM32_USB_Host_Library/Core/Src/usbh_core.c **** #else
 547:Middlewares/ST/STM32_USB_Host_Library/Core/Src/usbh_core.c ****       (void)osMessageQueuePut(phost->os_event, &phost->os_msg, 0U, 0U);
 548:Middlewares/ST/STM32_USB_Host_Library/Core/Src/usbh_core.c **** #endif
 549:Middlewares/ST/STM32_USB_Host_Library/Core/Src/usbh_core.c **** #endif
 550:Middlewares/ST/STM32_USB_Host_Library/Core/Src/usbh_core.c ****       break;
 551:Middlewares/ST/STM32_USB_Host_Library/Core/Src/usbh_core.c **** 
 552:Middlewares/ST/STM32_USB_Host_Library/Core/Src/usbh_core.c ****     case HOST_DEV_ATTACHED :
 553:Middlewares/ST/STM32_USB_Host_Library/Core/Src/usbh_core.c **** 
 554:Middlewares/ST/STM32_USB_Host_Library/Core/Src/usbh_core.c ****       if (phost->pUser != NULL)
 555:Middlewares/ST/STM32_USB_Host_Library/Core/Src/usbh_core.c ****       {
 556:Middlewares/ST/STM32_USB_Host_Library/Core/Src/usbh_core.c ****         phost->pUser(phost, HOST_USER_CONNECTION);
 557:Middlewares/ST/STM32_USB_Host_Library/Core/Src/usbh_core.c ****       }
 558:Middlewares/ST/STM32_USB_Host_Library/Core/Src/usbh_core.c **** 
 559:Middlewares/ST/STM32_USB_Host_Library/Core/Src/usbh_core.c ****       /* Wait for 100 ms after Reset */
 560:Middlewares/ST/STM32_USB_Host_Library/Core/Src/usbh_core.c ****       USBH_Delay(100U);
 561:Middlewares/ST/STM32_USB_Host_Library/Core/Src/usbh_core.c **** 
 562:Middlewares/ST/STM32_USB_Host_Library/Core/Src/usbh_core.c ****       phost->device.speed = (uint8_t)USBH_LL_GetSpeed(phost);
 563:Middlewares/ST/STM32_USB_Host_Library/Core/Src/usbh_core.c **** 
 564:Middlewares/ST/STM32_USB_Host_Library/Core/Src/usbh_core.c ****       phost->gState = HOST_ENUMERATION;
 565:Middlewares/ST/STM32_USB_Host_Library/Core/Src/usbh_core.c **** 
 566:Middlewares/ST/STM32_USB_Host_Library/Core/Src/usbh_core.c ****       phost->Control.pipe_out = USBH_AllocPipe(phost, 0x00U);
 567:Middlewares/ST/STM32_USB_Host_Library/Core/Src/usbh_core.c ****       phost->Control.pipe_in  = USBH_AllocPipe(phost, 0x80U);
 568:Middlewares/ST/STM32_USB_Host_Library/Core/Src/usbh_core.c **** 
 569:Middlewares/ST/STM32_USB_Host_Library/Core/Src/usbh_core.c ****       /* Open Control pipes */
 570:Middlewares/ST/STM32_USB_Host_Library/Core/Src/usbh_core.c ****       (void)USBH_OpenPipe(phost, phost->Control.pipe_in, 0x80U,
 571:Middlewares/ST/STM32_USB_Host_Library/Core/Src/usbh_core.c ****                           phost->device.address, phost->device.speed,
 572:Middlewares/ST/STM32_USB_Host_Library/Core/Src/usbh_core.c ****                           USBH_EP_CONTROL, (uint16_t)phost->Control.pipe_size);
 573:Middlewares/ST/STM32_USB_Host_Library/Core/Src/usbh_core.c **** 
 574:Middlewares/ST/STM32_USB_Host_Library/Core/Src/usbh_core.c ****       /* Open Control pipes */
 575:Middlewares/ST/STM32_USB_Host_Library/Core/Src/usbh_core.c ****       (void)USBH_OpenPipe(phost, phost->Control.pipe_out, 0x00U,
 576:Middlewares/ST/STM32_USB_Host_Library/Core/Src/usbh_core.c ****                           phost->device.address, phost->device.speed,
 577:Middlewares/ST/STM32_USB_Host_Library/Core/Src/usbh_core.c ****                           USBH_EP_CONTROL, (uint16_t)phost->Control.pipe_size);
 578:Middlewares/ST/STM32_USB_Host_Library/Core/Src/usbh_core.c **** 
 579:Middlewares/ST/STM32_USB_Host_Library/Core/Src/usbh_core.c **** #if (USBH_USE_OS == 1U)
 580:Middlewares/ST/STM32_USB_Host_Library/Core/Src/usbh_core.c ****       phost->os_msg = (uint32_t)USBH_PORT_EVENT;
 581:Middlewares/ST/STM32_USB_Host_Library/Core/Src/usbh_core.c **** #if (osCMSIS < 0x20000U)
 582:Middlewares/ST/STM32_USB_Host_Library/Core/Src/usbh_core.c ****       (void)osMessagePut(phost->os_event, phost->os_msg, 0U);
 583:Middlewares/ST/STM32_USB_Host_Library/Core/Src/usbh_core.c **** #else
 584:Middlewares/ST/STM32_USB_Host_Library/Core/Src/usbh_core.c ****       (void)osMessageQueuePut(phost->os_event, &phost->os_msg, 0U, 0U);
 585:Middlewares/ST/STM32_USB_Host_Library/Core/Src/usbh_core.c **** #endif
 586:Middlewares/ST/STM32_USB_Host_Library/Core/Src/usbh_core.c **** #endif
 587:Middlewares/ST/STM32_USB_Host_Library/Core/Src/usbh_core.c ****       break;
 588:Middlewares/ST/STM32_USB_Host_Library/Core/Src/usbh_core.c **** 
 589:Middlewares/ST/STM32_USB_Host_Library/Core/Src/usbh_core.c ****     case HOST_ENUMERATION:
 590:Middlewares/ST/STM32_USB_Host_Library/Core/Src/usbh_core.c ****       /* Check for enumeration status */
 591:Middlewares/ST/STM32_USB_Host_Library/Core/Src/usbh_core.c ****       status = USBH_HandleEnum(phost);
 592:Middlewares/ST/STM32_USB_Host_Library/Core/Src/usbh_core.c ****       if (status == USBH_OK)
 593:Middlewares/ST/STM32_USB_Host_Library/Core/Src/usbh_core.c ****       {
 594:Middlewares/ST/STM32_USB_Host_Library/Core/Src/usbh_core.c ****         /* The function shall return USBH_OK when full enumeration is complete */
 595:Middlewares/ST/STM32_USB_Host_Library/Core/Src/usbh_core.c ****         USBH_UsrLog("Enumeration done.");
ARM GAS  /tmp/ccBJZy1z.s 			page 14


 596:Middlewares/ST/STM32_USB_Host_Library/Core/Src/usbh_core.c **** 
 597:Middlewares/ST/STM32_USB_Host_Library/Core/Src/usbh_core.c ****         phost->device.current_interface = 0U;
 598:Middlewares/ST/STM32_USB_Host_Library/Core/Src/usbh_core.c **** 
 599:Middlewares/ST/STM32_USB_Host_Library/Core/Src/usbh_core.c ****         if (phost->device.DevDesc.bNumConfigurations == 1U)
 600:Middlewares/ST/STM32_USB_Host_Library/Core/Src/usbh_core.c ****         {
 601:Middlewares/ST/STM32_USB_Host_Library/Core/Src/usbh_core.c ****           USBH_UsrLog("This device has only 1 configuration.");
 602:Middlewares/ST/STM32_USB_Host_Library/Core/Src/usbh_core.c ****           phost->gState = HOST_SET_CONFIGURATION;
 603:Middlewares/ST/STM32_USB_Host_Library/Core/Src/usbh_core.c ****         }
 604:Middlewares/ST/STM32_USB_Host_Library/Core/Src/usbh_core.c ****         else
 605:Middlewares/ST/STM32_USB_Host_Library/Core/Src/usbh_core.c ****         {
 606:Middlewares/ST/STM32_USB_Host_Library/Core/Src/usbh_core.c ****           phost->gState = HOST_INPUT;
 607:Middlewares/ST/STM32_USB_Host_Library/Core/Src/usbh_core.c ****         }
 608:Middlewares/ST/STM32_USB_Host_Library/Core/Src/usbh_core.c **** #if (USBH_USE_OS == 1U)
 609:Middlewares/ST/STM32_USB_Host_Library/Core/Src/usbh_core.c ****         phost->os_msg = (uint32_t)USBH_STATE_CHANGED_EVENT;
 610:Middlewares/ST/STM32_USB_Host_Library/Core/Src/usbh_core.c **** #if (osCMSIS < 0x20000U)
 611:Middlewares/ST/STM32_USB_Host_Library/Core/Src/usbh_core.c ****         (void)osMessagePut(phost->os_event, phost->os_msg, 0U);
 612:Middlewares/ST/STM32_USB_Host_Library/Core/Src/usbh_core.c **** #else
 613:Middlewares/ST/STM32_USB_Host_Library/Core/Src/usbh_core.c ****         (void)osMessageQueuePut(phost->os_event, &phost->os_msg, 0U, 0U);
 614:Middlewares/ST/STM32_USB_Host_Library/Core/Src/usbh_core.c **** #endif
 615:Middlewares/ST/STM32_USB_Host_Library/Core/Src/usbh_core.c **** #endif
 616:Middlewares/ST/STM32_USB_Host_Library/Core/Src/usbh_core.c ****       }
 617:Middlewares/ST/STM32_USB_Host_Library/Core/Src/usbh_core.c ****       break;
 618:Middlewares/ST/STM32_USB_Host_Library/Core/Src/usbh_core.c **** 
 619:Middlewares/ST/STM32_USB_Host_Library/Core/Src/usbh_core.c ****     case HOST_INPUT:
 620:Middlewares/ST/STM32_USB_Host_Library/Core/Src/usbh_core.c ****     {
 621:Middlewares/ST/STM32_USB_Host_Library/Core/Src/usbh_core.c ****       /* user callback for end of device basic enumeration */
 622:Middlewares/ST/STM32_USB_Host_Library/Core/Src/usbh_core.c ****       if (phost->pUser != NULL)
 623:Middlewares/ST/STM32_USB_Host_Library/Core/Src/usbh_core.c ****       {
 624:Middlewares/ST/STM32_USB_Host_Library/Core/Src/usbh_core.c ****         phost->pUser(phost, HOST_USER_SELECT_CONFIGURATION);
 625:Middlewares/ST/STM32_USB_Host_Library/Core/Src/usbh_core.c ****         phost->gState = HOST_SET_CONFIGURATION;
 626:Middlewares/ST/STM32_USB_Host_Library/Core/Src/usbh_core.c **** 
 627:Middlewares/ST/STM32_USB_Host_Library/Core/Src/usbh_core.c **** #if (USBH_USE_OS == 1U)
 628:Middlewares/ST/STM32_USB_Host_Library/Core/Src/usbh_core.c ****         phost->os_msg = (uint32_t)USBH_STATE_CHANGED_EVENT;
 629:Middlewares/ST/STM32_USB_Host_Library/Core/Src/usbh_core.c **** #if (osCMSIS < 0x20000U)
 630:Middlewares/ST/STM32_USB_Host_Library/Core/Src/usbh_core.c ****         (void)osMessagePut(phost->os_event, phost->os_msg, 0U);
 631:Middlewares/ST/STM32_USB_Host_Library/Core/Src/usbh_core.c **** #else
 632:Middlewares/ST/STM32_USB_Host_Library/Core/Src/usbh_core.c ****         (void)osMessageQueuePut(phost->os_event, &phost->os_msg, 0U, 0U);
 633:Middlewares/ST/STM32_USB_Host_Library/Core/Src/usbh_core.c **** #endif
 634:Middlewares/ST/STM32_USB_Host_Library/Core/Src/usbh_core.c **** #endif
 635:Middlewares/ST/STM32_USB_Host_Library/Core/Src/usbh_core.c ****       }
 636:Middlewares/ST/STM32_USB_Host_Library/Core/Src/usbh_core.c ****     }
 637:Middlewares/ST/STM32_USB_Host_Library/Core/Src/usbh_core.c ****     break;
 638:Middlewares/ST/STM32_USB_Host_Library/Core/Src/usbh_core.c **** 
 639:Middlewares/ST/STM32_USB_Host_Library/Core/Src/usbh_core.c ****     case HOST_SET_CONFIGURATION:
 640:Middlewares/ST/STM32_USB_Host_Library/Core/Src/usbh_core.c ****       /* set configuration */
 641:Middlewares/ST/STM32_USB_Host_Library/Core/Src/usbh_core.c ****       if (USBH_SetCfg(phost, (uint16_t)phost->device.CfgDesc.bConfigurationValue) == USBH_OK)
 642:Middlewares/ST/STM32_USB_Host_Library/Core/Src/usbh_core.c ****       {
 643:Middlewares/ST/STM32_USB_Host_Library/Core/Src/usbh_core.c ****         phost->gState = HOST_SET_WAKEUP_FEATURE;
 644:Middlewares/ST/STM32_USB_Host_Library/Core/Src/usbh_core.c ****         USBH_UsrLog("Default configuration set.");
 645:Middlewares/ST/STM32_USB_Host_Library/Core/Src/usbh_core.c ****       }
 646:Middlewares/ST/STM32_USB_Host_Library/Core/Src/usbh_core.c **** 
 647:Middlewares/ST/STM32_USB_Host_Library/Core/Src/usbh_core.c **** #if (USBH_USE_OS == 1U)
 648:Middlewares/ST/STM32_USB_Host_Library/Core/Src/usbh_core.c ****       phost->os_msg = (uint32_t)USBH_PORT_EVENT;
 649:Middlewares/ST/STM32_USB_Host_Library/Core/Src/usbh_core.c **** #if (osCMSIS < 0x20000U)
 650:Middlewares/ST/STM32_USB_Host_Library/Core/Src/usbh_core.c ****       (void)osMessagePut(phost->os_event, phost->os_msg, 0U);
 651:Middlewares/ST/STM32_USB_Host_Library/Core/Src/usbh_core.c **** #else
 652:Middlewares/ST/STM32_USB_Host_Library/Core/Src/usbh_core.c ****       (void)osMessageQueuePut(phost->os_event, &phost->os_msg, 0U, 0U);
ARM GAS  /tmp/ccBJZy1z.s 			page 15


 653:Middlewares/ST/STM32_USB_Host_Library/Core/Src/usbh_core.c **** #endif
 654:Middlewares/ST/STM32_USB_Host_Library/Core/Src/usbh_core.c **** #endif
 655:Middlewares/ST/STM32_USB_Host_Library/Core/Src/usbh_core.c ****       break;
 656:Middlewares/ST/STM32_USB_Host_Library/Core/Src/usbh_core.c **** 
 657:Middlewares/ST/STM32_USB_Host_Library/Core/Src/usbh_core.c ****     case  HOST_SET_WAKEUP_FEATURE:
 658:Middlewares/ST/STM32_USB_Host_Library/Core/Src/usbh_core.c **** 
 659:Middlewares/ST/STM32_USB_Host_Library/Core/Src/usbh_core.c ****       if (((phost->device.CfgDesc.bmAttributes) & (1U << 5)) != 0U)
 660:Middlewares/ST/STM32_USB_Host_Library/Core/Src/usbh_core.c ****       {
 661:Middlewares/ST/STM32_USB_Host_Library/Core/Src/usbh_core.c ****         status = USBH_SetFeature(phost, FEATURE_SELECTOR_REMOTEWAKEUP);
 662:Middlewares/ST/STM32_USB_Host_Library/Core/Src/usbh_core.c **** 
 663:Middlewares/ST/STM32_USB_Host_Library/Core/Src/usbh_core.c ****         if (status == USBH_OK)
 664:Middlewares/ST/STM32_USB_Host_Library/Core/Src/usbh_core.c ****         {
 665:Middlewares/ST/STM32_USB_Host_Library/Core/Src/usbh_core.c ****           USBH_UsrLog("Device remote wakeup enabled");
 666:Middlewares/ST/STM32_USB_Host_Library/Core/Src/usbh_core.c ****           phost->gState = HOST_CHECK_CLASS;
 667:Middlewares/ST/STM32_USB_Host_Library/Core/Src/usbh_core.c ****         }
 668:Middlewares/ST/STM32_USB_Host_Library/Core/Src/usbh_core.c ****         else if (status == USBH_NOT_SUPPORTED)
 669:Middlewares/ST/STM32_USB_Host_Library/Core/Src/usbh_core.c ****         {
 670:Middlewares/ST/STM32_USB_Host_Library/Core/Src/usbh_core.c ****           USBH_UsrLog("Remote wakeup not supported by the device");
 671:Middlewares/ST/STM32_USB_Host_Library/Core/Src/usbh_core.c ****           phost->gState = HOST_CHECK_CLASS;
 672:Middlewares/ST/STM32_USB_Host_Library/Core/Src/usbh_core.c ****         }
 673:Middlewares/ST/STM32_USB_Host_Library/Core/Src/usbh_core.c ****         else
 674:Middlewares/ST/STM32_USB_Host_Library/Core/Src/usbh_core.c ****         {
 675:Middlewares/ST/STM32_USB_Host_Library/Core/Src/usbh_core.c ****           /* .. */
 676:Middlewares/ST/STM32_USB_Host_Library/Core/Src/usbh_core.c ****         }
 677:Middlewares/ST/STM32_USB_Host_Library/Core/Src/usbh_core.c ****       }
 678:Middlewares/ST/STM32_USB_Host_Library/Core/Src/usbh_core.c ****       else
 679:Middlewares/ST/STM32_USB_Host_Library/Core/Src/usbh_core.c ****       {
 680:Middlewares/ST/STM32_USB_Host_Library/Core/Src/usbh_core.c ****         phost->gState = HOST_CHECK_CLASS;
 681:Middlewares/ST/STM32_USB_Host_Library/Core/Src/usbh_core.c ****       }
 682:Middlewares/ST/STM32_USB_Host_Library/Core/Src/usbh_core.c **** 
 683:Middlewares/ST/STM32_USB_Host_Library/Core/Src/usbh_core.c **** #if (USBH_USE_OS == 1U)
 684:Middlewares/ST/STM32_USB_Host_Library/Core/Src/usbh_core.c ****       phost->os_msg = (uint32_t)USBH_PORT_EVENT;
 685:Middlewares/ST/STM32_USB_Host_Library/Core/Src/usbh_core.c **** #if (osCMSIS < 0x20000U)
 686:Middlewares/ST/STM32_USB_Host_Library/Core/Src/usbh_core.c ****       (void)osMessagePut(phost->os_event, phost->os_msg, 0U);
 687:Middlewares/ST/STM32_USB_Host_Library/Core/Src/usbh_core.c **** #else
 688:Middlewares/ST/STM32_USB_Host_Library/Core/Src/usbh_core.c ****       (void)osMessageQueuePut(phost->os_event, &phost->os_msg, 0U, 0U);
 689:Middlewares/ST/STM32_USB_Host_Library/Core/Src/usbh_core.c **** #endif
 690:Middlewares/ST/STM32_USB_Host_Library/Core/Src/usbh_core.c **** #endif
 691:Middlewares/ST/STM32_USB_Host_Library/Core/Src/usbh_core.c ****       break;
 692:Middlewares/ST/STM32_USB_Host_Library/Core/Src/usbh_core.c **** 
 693:Middlewares/ST/STM32_USB_Host_Library/Core/Src/usbh_core.c ****     case HOST_CHECK_CLASS:
 694:Middlewares/ST/STM32_USB_Host_Library/Core/Src/usbh_core.c **** 
 695:Middlewares/ST/STM32_USB_Host_Library/Core/Src/usbh_core.c ****       if (phost->ClassNumber == 0U)
 696:Middlewares/ST/STM32_USB_Host_Library/Core/Src/usbh_core.c ****       {
 697:Middlewares/ST/STM32_USB_Host_Library/Core/Src/usbh_core.c ****         USBH_UsrLog("No Class has been registered.");
 698:Middlewares/ST/STM32_USB_Host_Library/Core/Src/usbh_core.c ****       }
 699:Middlewares/ST/STM32_USB_Host_Library/Core/Src/usbh_core.c ****       else
 700:Middlewares/ST/STM32_USB_Host_Library/Core/Src/usbh_core.c ****       {
 701:Middlewares/ST/STM32_USB_Host_Library/Core/Src/usbh_core.c ****         phost->pActiveClass = NULL;
 702:Middlewares/ST/STM32_USB_Host_Library/Core/Src/usbh_core.c **** 
 703:Middlewares/ST/STM32_USB_Host_Library/Core/Src/usbh_core.c ****         for (idx = 0U; idx < USBH_MAX_NUM_SUPPORTED_CLASS; idx++)
 704:Middlewares/ST/STM32_USB_Host_Library/Core/Src/usbh_core.c ****         {
 705:Middlewares/ST/STM32_USB_Host_Library/Core/Src/usbh_core.c ****           if (phost->pClass[idx]->ClassCode == phost->device.CfgDesc.Itf_Desc[0].bInterfaceClass)
 706:Middlewares/ST/STM32_USB_Host_Library/Core/Src/usbh_core.c ****           {
 707:Middlewares/ST/STM32_USB_Host_Library/Core/Src/usbh_core.c ****             phost->pActiveClass = phost->pClass[idx];
 708:Middlewares/ST/STM32_USB_Host_Library/Core/Src/usbh_core.c ****             break;
 709:Middlewares/ST/STM32_USB_Host_Library/Core/Src/usbh_core.c ****           }
ARM GAS  /tmp/ccBJZy1z.s 			page 16


 710:Middlewares/ST/STM32_USB_Host_Library/Core/Src/usbh_core.c ****         }
 711:Middlewares/ST/STM32_USB_Host_Library/Core/Src/usbh_core.c **** 
 712:Middlewares/ST/STM32_USB_Host_Library/Core/Src/usbh_core.c ****         if (phost->pActiveClass != NULL)
 713:Middlewares/ST/STM32_USB_Host_Library/Core/Src/usbh_core.c ****         {
 714:Middlewares/ST/STM32_USB_Host_Library/Core/Src/usbh_core.c ****           if (phost->pActiveClass->Init(phost) == USBH_OK)
 715:Middlewares/ST/STM32_USB_Host_Library/Core/Src/usbh_core.c ****           {
 716:Middlewares/ST/STM32_USB_Host_Library/Core/Src/usbh_core.c ****             phost->gState = HOST_CLASS_REQUEST;
 717:Middlewares/ST/STM32_USB_Host_Library/Core/Src/usbh_core.c ****             USBH_UsrLog("%s class started.", phost->pActiveClass->Name);
 718:Middlewares/ST/STM32_USB_Host_Library/Core/Src/usbh_core.c **** 
 719:Middlewares/ST/STM32_USB_Host_Library/Core/Src/usbh_core.c ****             /* Inform user that a class has been activated */
 720:Middlewares/ST/STM32_USB_Host_Library/Core/Src/usbh_core.c ****             phost->pUser(phost, HOST_USER_CLASS_SELECTED);
 721:Middlewares/ST/STM32_USB_Host_Library/Core/Src/usbh_core.c ****           }
 722:Middlewares/ST/STM32_USB_Host_Library/Core/Src/usbh_core.c ****           else
 723:Middlewares/ST/STM32_USB_Host_Library/Core/Src/usbh_core.c ****           {
 724:Middlewares/ST/STM32_USB_Host_Library/Core/Src/usbh_core.c ****             phost->gState = HOST_ABORT_STATE;
 725:Middlewares/ST/STM32_USB_Host_Library/Core/Src/usbh_core.c ****             USBH_UsrLog("Device not supporting %s class.", phost->pActiveClass->Name);
 726:Middlewares/ST/STM32_USB_Host_Library/Core/Src/usbh_core.c ****           }
 727:Middlewares/ST/STM32_USB_Host_Library/Core/Src/usbh_core.c ****         }
 728:Middlewares/ST/STM32_USB_Host_Library/Core/Src/usbh_core.c ****         else
 729:Middlewares/ST/STM32_USB_Host_Library/Core/Src/usbh_core.c ****         {
 730:Middlewares/ST/STM32_USB_Host_Library/Core/Src/usbh_core.c ****           phost->gState = HOST_ABORT_STATE;
 731:Middlewares/ST/STM32_USB_Host_Library/Core/Src/usbh_core.c ****           USBH_UsrLog("No registered class for this device.");
 732:Middlewares/ST/STM32_USB_Host_Library/Core/Src/usbh_core.c ****         }
 733:Middlewares/ST/STM32_USB_Host_Library/Core/Src/usbh_core.c ****       }
 734:Middlewares/ST/STM32_USB_Host_Library/Core/Src/usbh_core.c **** 
 735:Middlewares/ST/STM32_USB_Host_Library/Core/Src/usbh_core.c **** #if (USBH_USE_OS == 1U)
 736:Middlewares/ST/STM32_USB_Host_Library/Core/Src/usbh_core.c ****       phost->os_msg = (uint32_t)USBH_STATE_CHANGED_EVENT;
 737:Middlewares/ST/STM32_USB_Host_Library/Core/Src/usbh_core.c **** #if (osCMSIS < 0x20000U)
 738:Middlewares/ST/STM32_USB_Host_Library/Core/Src/usbh_core.c ****       (void)osMessagePut(phost->os_event, phost->os_msg, 0U);
 739:Middlewares/ST/STM32_USB_Host_Library/Core/Src/usbh_core.c **** #else
 740:Middlewares/ST/STM32_USB_Host_Library/Core/Src/usbh_core.c ****       (void)osMessageQueuePut(phost->os_event, &phost->os_msg, 0U, 0U);
 741:Middlewares/ST/STM32_USB_Host_Library/Core/Src/usbh_core.c **** #endif
 742:Middlewares/ST/STM32_USB_Host_Library/Core/Src/usbh_core.c **** #endif
 743:Middlewares/ST/STM32_USB_Host_Library/Core/Src/usbh_core.c ****       break;
 744:Middlewares/ST/STM32_USB_Host_Library/Core/Src/usbh_core.c **** 
 745:Middlewares/ST/STM32_USB_Host_Library/Core/Src/usbh_core.c ****     case HOST_CLASS_REQUEST:
 746:Middlewares/ST/STM32_USB_Host_Library/Core/Src/usbh_core.c ****       /* process class standard control requests state machine */
 747:Middlewares/ST/STM32_USB_Host_Library/Core/Src/usbh_core.c ****       if (phost->pActiveClass != NULL)
 748:Middlewares/ST/STM32_USB_Host_Library/Core/Src/usbh_core.c ****       {
 749:Middlewares/ST/STM32_USB_Host_Library/Core/Src/usbh_core.c ****         status = phost->pActiveClass->Requests(phost);
 750:Middlewares/ST/STM32_USB_Host_Library/Core/Src/usbh_core.c **** 
 751:Middlewares/ST/STM32_USB_Host_Library/Core/Src/usbh_core.c ****         if (status == USBH_OK)
 752:Middlewares/ST/STM32_USB_Host_Library/Core/Src/usbh_core.c ****         {
 753:Middlewares/ST/STM32_USB_Host_Library/Core/Src/usbh_core.c ****           phost->gState = HOST_CLASS;
 754:Middlewares/ST/STM32_USB_Host_Library/Core/Src/usbh_core.c ****         }
 755:Middlewares/ST/STM32_USB_Host_Library/Core/Src/usbh_core.c ****         else if (status == USBH_FAIL)
 756:Middlewares/ST/STM32_USB_Host_Library/Core/Src/usbh_core.c ****         {
 757:Middlewares/ST/STM32_USB_Host_Library/Core/Src/usbh_core.c ****           phost->gState = HOST_ABORT_STATE;
 758:Middlewares/ST/STM32_USB_Host_Library/Core/Src/usbh_core.c ****           USBH_ErrLog("Device not responding Please Unplug.");
 759:Middlewares/ST/STM32_USB_Host_Library/Core/Src/usbh_core.c ****         }
 760:Middlewares/ST/STM32_USB_Host_Library/Core/Src/usbh_core.c ****         else
 761:Middlewares/ST/STM32_USB_Host_Library/Core/Src/usbh_core.c ****         {
 762:Middlewares/ST/STM32_USB_Host_Library/Core/Src/usbh_core.c ****           /* .. */
 763:Middlewares/ST/STM32_USB_Host_Library/Core/Src/usbh_core.c ****         }
 764:Middlewares/ST/STM32_USB_Host_Library/Core/Src/usbh_core.c ****       }
 765:Middlewares/ST/STM32_USB_Host_Library/Core/Src/usbh_core.c ****       else
 766:Middlewares/ST/STM32_USB_Host_Library/Core/Src/usbh_core.c ****       {
ARM GAS  /tmp/ccBJZy1z.s 			page 17


 767:Middlewares/ST/STM32_USB_Host_Library/Core/Src/usbh_core.c ****         phost->gState = HOST_ABORT_STATE;
 768:Middlewares/ST/STM32_USB_Host_Library/Core/Src/usbh_core.c ****         USBH_ErrLog("Invalid Class Driver.");
 769:Middlewares/ST/STM32_USB_Host_Library/Core/Src/usbh_core.c ****       }
 770:Middlewares/ST/STM32_USB_Host_Library/Core/Src/usbh_core.c **** #if (USBH_USE_OS == 1U)
 771:Middlewares/ST/STM32_USB_Host_Library/Core/Src/usbh_core.c ****       phost->os_msg = (uint32_t)USBH_STATE_CHANGED_EVENT;
 772:Middlewares/ST/STM32_USB_Host_Library/Core/Src/usbh_core.c **** #if (osCMSIS < 0x20000U)
 773:Middlewares/ST/STM32_USB_Host_Library/Core/Src/usbh_core.c ****       (void)osMessagePut(phost->os_event, phost->os_msg, 0U);
 774:Middlewares/ST/STM32_USB_Host_Library/Core/Src/usbh_core.c **** #else
 775:Middlewares/ST/STM32_USB_Host_Library/Core/Src/usbh_core.c ****       (void)osMessageQueuePut(phost->os_event, &phost->os_msg, 0U, 0U);
 776:Middlewares/ST/STM32_USB_Host_Library/Core/Src/usbh_core.c **** #endif
 777:Middlewares/ST/STM32_USB_Host_Library/Core/Src/usbh_core.c **** #endif
 778:Middlewares/ST/STM32_USB_Host_Library/Core/Src/usbh_core.c ****       break;
 779:Middlewares/ST/STM32_USB_Host_Library/Core/Src/usbh_core.c **** 
 780:Middlewares/ST/STM32_USB_Host_Library/Core/Src/usbh_core.c ****     case HOST_CLASS:
 781:Middlewares/ST/STM32_USB_Host_Library/Core/Src/usbh_core.c ****       /* process class state machine */
 782:Middlewares/ST/STM32_USB_Host_Library/Core/Src/usbh_core.c ****       if (phost->pActiveClass != NULL)
 783:Middlewares/ST/STM32_USB_Host_Library/Core/Src/usbh_core.c ****       {
 784:Middlewares/ST/STM32_USB_Host_Library/Core/Src/usbh_core.c ****         phost->pActiveClass->BgndProcess(phost);
 785:Middlewares/ST/STM32_USB_Host_Library/Core/Src/usbh_core.c ****       }
 786:Middlewares/ST/STM32_USB_Host_Library/Core/Src/usbh_core.c ****       break;
 787:Middlewares/ST/STM32_USB_Host_Library/Core/Src/usbh_core.c **** 
 788:Middlewares/ST/STM32_USB_Host_Library/Core/Src/usbh_core.c ****     case HOST_DEV_DISCONNECTED :
 789:Middlewares/ST/STM32_USB_Host_Library/Core/Src/usbh_core.c ****       phost->device.is_disconnected = 0U;
 790:Middlewares/ST/STM32_USB_Host_Library/Core/Src/usbh_core.c **** 
 791:Middlewares/ST/STM32_USB_Host_Library/Core/Src/usbh_core.c ****       (void)DeInitStateMachine(phost);
 792:Middlewares/ST/STM32_USB_Host_Library/Core/Src/usbh_core.c **** 
 793:Middlewares/ST/STM32_USB_Host_Library/Core/Src/usbh_core.c ****       /* Re-Initilaize Host for new Enumeration */
 794:Middlewares/ST/STM32_USB_Host_Library/Core/Src/usbh_core.c ****       if (phost->pActiveClass != NULL)
 795:Middlewares/ST/STM32_USB_Host_Library/Core/Src/usbh_core.c ****       {
 796:Middlewares/ST/STM32_USB_Host_Library/Core/Src/usbh_core.c ****         phost->pActiveClass->DeInit(phost);
 797:Middlewares/ST/STM32_USB_Host_Library/Core/Src/usbh_core.c ****         phost->pActiveClass = NULL;
 798:Middlewares/ST/STM32_USB_Host_Library/Core/Src/usbh_core.c ****       }
 799:Middlewares/ST/STM32_USB_Host_Library/Core/Src/usbh_core.c **** 
 800:Middlewares/ST/STM32_USB_Host_Library/Core/Src/usbh_core.c ****       if (phost->pUser != NULL)
 801:Middlewares/ST/STM32_USB_Host_Library/Core/Src/usbh_core.c ****       {
 802:Middlewares/ST/STM32_USB_Host_Library/Core/Src/usbh_core.c ****         phost->pUser(phost, HOST_USER_DISCONNECTION);
 803:Middlewares/ST/STM32_USB_Host_Library/Core/Src/usbh_core.c ****       }
 804:Middlewares/ST/STM32_USB_Host_Library/Core/Src/usbh_core.c ****       USBH_UsrLog("USB Device disconnected");
 805:Middlewares/ST/STM32_USB_Host_Library/Core/Src/usbh_core.c **** 
 806:Middlewares/ST/STM32_USB_Host_Library/Core/Src/usbh_core.c ****       if (phost->device.is_ReEnumerated == 1U)
 807:Middlewares/ST/STM32_USB_Host_Library/Core/Src/usbh_core.c ****       {
 808:Middlewares/ST/STM32_USB_Host_Library/Core/Src/usbh_core.c ****         phost->device.is_ReEnumerated = 0U;
 809:Middlewares/ST/STM32_USB_Host_Library/Core/Src/usbh_core.c **** 
 810:Middlewares/ST/STM32_USB_Host_Library/Core/Src/usbh_core.c ****         /* Start the host and re-enable Vbus */
 811:Middlewares/ST/STM32_USB_Host_Library/Core/Src/usbh_core.c ****         (void)USBH_Start(phost);
 812:Middlewares/ST/STM32_USB_Host_Library/Core/Src/usbh_core.c ****       }
 813:Middlewares/ST/STM32_USB_Host_Library/Core/Src/usbh_core.c ****       else
 814:Middlewares/ST/STM32_USB_Host_Library/Core/Src/usbh_core.c ****       {
 815:Middlewares/ST/STM32_USB_Host_Library/Core/Src/usbh_core.c ****         /* Device Disconnection Completed, start USB Driver */
 816:Middlewares/ST/STM32_USB_Host_Library/Core/Src/usbh_core.c ****         (void)USBH_LL_Start(phost);
 817:Middlewares/ST/STM32_USB_Host_Library/Core/Src/usbh_core.c ****       }
 818:Middlewares/ST/STM32_USB_Host_Library/Core/Src/usbh_core.c **** 
 819:Middlewares/ST/STM32_USB_Host_Library/Core/Src/usbh_core.c **** #if (USBH_USE_OS == 1U)
 820:Middlewares/ST/STM32_USB_Host_Library/Core/Src/usbh_core.c ****       phost->os_msg = (uint32_t)USBH_PORT_EVENT;
 821:Middlewares/ST/STM32_USB_Host_Library/Core/Src/usbh_core.c **** #if (osCMSIS < 0x20000U)
 822:Middlewares/ST/STM32_USB_Host_Library/Core/Src/usbh_core.c ****       (void)osMessagePut(phost->os_event, phost->os_msg, 0U);
 823:Middlewares/ST/STM32_USB_Host_Library/Core/Src/usbh_core.c **** #else
ARM GAS  /tmp/ccBJZy1z.s 			page 18


 824:Middlewares/ST/STM32_USB_Host_Library/Core/Src/usbh_core.c ****       (void)osMessageQueuePut(phost->os_event, &phost->os_msg, 0U, 0U);
 825:Middlewares/ST/STM32_USB_Host_Library/Core/Src/usbh_core.c **** #endif
 826:Middlewares/ST/STM32_USB_Host_Library/Core/Src/usbh_core.c **** #endif
 827:Middlewares/ST/STM32_USB_Host_Library/Core/Src/usbh_core.c ****       break;
 828:Middlewares/ST/STM32_USB_Host_Library/Core/Src/usbh_core.c **** 
 829:Middlewares/ST/STM32_USB_Host_Library/Core/Src/usbh_core.c ****     case HOST_ABORT_STATE:
 830:Middlewares/ST/STM32_USB_Host_Library/Core/Src/usbh_core.c ****     default :
 831:Middlewares/ST/STM32_USB_Host_Library/Core/Src/usbh_core.c ****       break;
 832:Middlewares/ST/STM32_USB_Host_Library/Core/Src/usbh_core.c ****   }
 833:Middlewares/ST/STM32_USB_Host_Library/Core/Src/usbh_core.c ****   return USBH_OK;
 834:Middlewares/ST/STM32_USB_Host_Library/Core/Src/usbh_core.c **** }
 835:Middlewares/ST/STM32_USB_Host_Library/Core/Src/usbh_core.c **** 
 836:Middlewares/ST/STM32_USB_Host_Library/Core/Src/usbh_core.c **** 
 837:Middlewares/ST/STM32_USB_Host_Library/Core/Src/usbh_core.c **** /**
 838:Middlewares/ST/STM32_USB_Host_Library/Core/Src/usbh_core.c ****   * @brief  USBH_HandleEnum
 839:Middlewares/ST/STM32_USB_Host_Library/Core/Src/usbh_core.c ****   *         This function includes the complete enumeration process
 840:Middlewares/ST/STM32_USB_Host_Library/Core/Src/usbh_core.c ****   * @param  phost: Host Handle
 841:Middlewares/ST/STM32_USB_Host_Library/Core/Src/usbh_core.c ****   * @retval USBH_Status
 842:Middlewares/ST/STM32_USB_Host_Library/Core/Src/usbh_core.c ****   */
 843:Middlewares/ST/STM32_USB_Host_Library/Core/Src/usbh_core.c **** static USBH_StatusTypeDef USBH_HandleEnum(USBH_HandleTypeDef *phost)
 844:Middlewares/ST/STM32_USB_Host_Library/Core/Src/usbh_core.c **** {
 845:Middlewares/ST/STM32_USB_Host_Library/Core/Src/usbh_core.c ****   USBH_StatusTypeDef Status = USBH_BUSY;
 846:Middlewares/ST/STM32_USB_Host_Library/Core/Src/usbh_core.c ****   USBH_StatusTypeDef ReqStatus = USBH_BUSY;
 847:Middlewares/ST/STM32_USB_Host_Library/Core/Src/usbh_core.c **** 
 848:Middlewares/ST/STM32_USB_Host_Library/Core/Src/usbh_core.c ****   switch (phost->EnumState)
 849:Middlewares/ST/STM32_USB_Host_Library/Core/Src/usbh_core.c ****   {
 850:Middlewares/ST/STM32_USB_Host_Library/Core/Src/usbh_core.c ****     case ENUM_IDLE:
 851:Middlewares/ST/STM32_USB_Host_Library/Core/Src/usbh_core.c ****       /* Get Device Desc for only 1st 8 bytes : To get EP0 MaxPacketSize */
 852:Middlewares/ST/STM32_USB_Host_Library/Core/Src/usbh_core.c ****       ReqStatus = USBH_Get_DevDesc(phost, 8U);
 853:Middlewares/ST/STM32_USB_Host_Library/Core/Src/usbh_core.c ****       if (ReqStatus == USBH_OK)
 854:Middlewares/ST/STM32_USB_Host_Library/Core/Src/usbh_core.c ****       {
 855:Middlewares/ST/STM32_USB_Host_Library/Core/Src/usbh_core.c ****         phost->Control.pipe_size = phost->device.DevDesc.bMaxPacketSize;
 856:Middlewares/ST/STM32_USB_Host_Library/Core/Src/usbh_core.c **** 
 857:Middlewares/ST/STM32_USB_Host_Library/Core/Src/usbh_core.c ****         phost->EnumState = ENUM_GET_FULL_DEV_DESC;
 858:Middlewares/ST/STM32_USB_Host_Library/Core/Src/usbh_core.c **** 
 859:Middlewares/ST/STM32_USB_Host_Library/Core/Src/usbh_core.c ****         /* modify control channels configuration for MaxPacket size */
 860:Middlewares/ST/STM32_USB_Host_Library/Core/Src/usbh_core.c ****         (void)USBH_OpenPipe(phost, phost->Control.pipe_in, 0x80U, phost->device.address,
 861:Middlewares/ST/STM32_USB_Host_Library/Core/Src/usbh_core.c ****                             phost->device.speed, USBH_EP_CONTROL,
 862:Middlewares/ST/STM32_USB_Host_Library/Core/Src/usbh_core.c ****                             (uint16_t)phost->Control.pipe_size);
 863:Middlewares/ST/STM32_USB_Host_Library/Core/Src/usbh_core.c **** 
 864:Middlewares/ST/STM32_USB_Host_Library/Core/Src/usbh_core.c ****         /* Open Control pipes */
 865:Middlewares/ST/STM32_USB_Host_Library/Core/Src/usbh_core.c ****         (void)USBH_OpenPipe(phost, phost->Control.pipe_out, 0x00U, phost->device.address,
 866:Middlewares/ST/STM32_USB_Host_Library/Core/Src/usbh_core.c ****                             phost->device.speed, USBH_EP_CONTROL,
 867:Middlewares/ST/STM32_USB_Host_Library/Core/Src/usbh_core.c ****                             (uint16_t)phost->Control.pipe_size);
 868:Middlewares/ST/STM32_USB_Host_Library/Core/Src/usbh_core.c ****       }
 869:Middlewares/ST/STM32_USB_Host_Library/Core/Src/usbh_core.c ****       else if (ReqStatus == USBH_NOT_SUPPORTED)
 870:Middlewares/ST/STM32_USB_Host_Library/Core/Src/usbh_core.c ****       {
 871:Middlewares/ST/STM32_USB_Host_Library/Core/Src/usbh_core.c ****         USBH_ErrLog("Control error: Get Device Descriptor request failed");
 872:Middlewares/ST/STM32_USB_Host_Library/Core/Src/usbh_core.c ****         phost->device.EnumCnt++;
 873:Middlewares/ST/STM32_USB_Host_Library/Core/Src/usbh_core.c ****         if (phost->device.EnumCnt > 3U)
 874:Middlewares/ST/STM32_USB_Host_Library/Core/Src/usbh_core.c ****         {
 875:Middlewares/ST/STM32_USB_Host_Library/Core/Src/usbh_core.c ****           /* Buggy Device can't complete get device desc request */
 876:Middlewares/ST/STM32_USB_Host_Library/Core/Src/usbh_core.c ****           USBH_UsrLog("Control error, Device not Responding Please unplug the Device.");
 877:Middlewares/ST/STM32_USB_Host_Library/Core/Src/usbh_core.c ****           phost->gState = HOST_ABORT_STATE;
 878:Middlewares/ST/STM32_USB_Host_Library/Core/Src/usbh_core.c ****         }
 879:Middlewares/ST/STM32_USB_Host_Library/Core/Src/usbh_core.c ****         else
 880:Middlewares/ST/STM32_USB_Host_Library/Core/Src/usbh_core.c ****         {
ARM GAS  /tmp/ccBJZy1z.s 			page 19


 881:Middlewares/ST/STM32_USB_Host_Library/Core/Src/usbh_core.c ****           /* free control pipes */
 882:Middlewares/ST/STM32_USB_Host_Library/Core/Src/usbh_core.c ****           (void)USBH_FreePipe(phost, phost->Control.pipe_out);
 883:Middlewares/ST/STM32_USB_Host_Library/Core/Src/usbh_core.c ****           (void)USBH_FreePipe(phost, phost->Control.pipe_in);
 884:Middlewares/ST/STM32_USB_Host_Library/Core/Src/usbh_core.c **** 
 885:Middlewares/ST/STM32_USB_Host_Library/Core/Src/usbh_core.c ****           /* Reset the USB Device */
 886:Middlewares/ST/STM32_USB_Host_Library/Core/Src/usbh_core.c ****           phost->gState = HOST_IDLE;
 887:Middlewares/ST/STM32_USB_Host_Library/Core/Src/usbh_core.c ****         }
 888:Middlewares/ST/STM32_USB_Host_Library/Core/Src/usbh_core.c ****       }
 889:Middlewares/ST/STM32_USB_Host_Library/Core/Src/usbh_core.c ****       else
 890:Middlewares/ST/STM32_USB_Host_Library/Core/Src/usbh_core.c ****       {
 891:Middlewares/ST/STM32_USB_Host_Library/Core/Src/usbh_core.c ****         /* .. */
 892:Middlewares/ST/STM32_USB_Host_Library/Core/Src/usbh_core.c ****       }
 893:Middlewares/ST/STM32_USB_Host_Library/Core/Src/usbh_core.c ****       break;
 894:Middlewares/ST/STM32_USB_Host_Library/Core/Src/usbh_core.c **** 
 895:Middlewares/ST/STM32_USB_Host_Library/Core/Src/usbh_core.c ****     case ENUM_GET_FULL_DEV_DESC:
 896:Middlewares/ST/STM32_USB_Host_Library/Core/Src/usbh_core.c ****       /* Get FULL Device Desc  */
 897:Middlewares/ST/STM32_USB_Host_Library/Core/Src/usbh_core.c ****       ReqStatus = USBH_Get_DevDesc(phost, USB_DEVICE_DESC_SIZE);
 898:Middlewares/ST/STM32_USB_Host_Library/Core/Src/usbh_core.c ****       if (ReqStatus == USBH_OK)
 899:Middlewares/ST/STM32_USB_Host_Library/Core/Src/usbh_core.c ****       {
 900:Middlewares/ST/STM32_USB_Host_Library/Core/Src/usbh_core.c ****         USBH_UsrLog("PID: %xh", phost->device.DevDesc.idProduct);
 901:Middlewares/ST/STM32_USB_Host_Library/Core/Src/usbh_core.c ****         USBH_UsrLog("VID: %xh", phost->device.DevDesc.idVendor);
 902:Middlewares/ST/STM32_USB_Host_Library/Core/Src/usbh_core.c **** 
 903:Middlewares/ST/STM32_USB_Host_Library/Core/Src/usbh_core.c ****         phost->EnumState = ENUM_SET_ADDR;
 904:Middlewares/ST/STM32_USB_Host_Library/Core/Src/usbh_core.c ****       }
 905:Middlewares/ST/STM32_USB_Host_Library/Core/Src/usbh_core.c ****       else if (ReqStatus == USBH_NOT_SUPPORTED)
 906:Middlewares/ST/STM32_USB_Host_Library/Core/Src/usbh_core.c ****       {
 907:Middlewares/ST/STM32_USB_Host_Library/Core/Src/usbh_core.c ****         USBH_ErrLog("Control error: Get Full Device Descriptor request failed");
 908:Middlewares/ST/STM32_USB_Host_Library/Core/Src/usbh_core.c ****         phost->device.EnumCnt++;
 909:Middlewares/ST/STM32_USB_Host_Library/Core/Src/usbh_core.c ****         if (phost->device.EnumCnt > 3U)
 910:Middlewares/ST/STM32_USB_Host_Library/Core/Src/usbh_core.c ****         {
 911:Middlewares/ST/STM32_USB_Host_Library/Core/Src/usbh_core.c ****           /* Buggy Device can't complete get device desc request */
 912:Middlewares/ST/STM32_USB_Host_Library/Core/Src/usbh_core.c ****           USBH_UsrLog("Control error, Device not Responding Please unplug the Device.");
 913:Middlewares/ST/STM32_USB_Host_Library/Core/Src/usbh_core.c ****           phost->gState = HOST_ABORT_STATE;
 914:Middlewares/ST/STM32_USB_Host_Library/Core/Src/usbh_core.c ****         }
 915:Middlewares/ST/STM32_USB_Host_Library/Core/Src/usbh_core.c ****         else
 916:Middlewares/ST/STM32_USB_Host_Library/Core/Src/usbh_core.c ****         {
 917:Middlewares/ST/STM32_USB_Host_Library/Core/Src/usbh_core.c ****           /* Free control pipes */
 918:Middlewares/ST/STM32_USB_Host_Library/Core/Src/usbh_core.c ****           (void)USBH_FreePipe(phost, phost->Control.pipe_out);
 919:Middlewares/ST/STM32_USB_Host_Library/Core/Src/usbh_core.c ****           (void)USBH_FreePipe(phost, phost->Control.pipe_in);
 920:Middlewares/ST/STM32_USB_Host_Library/Core/Src/usbh_core.c **** 
 921:Middlewares/ST/STM32_USB_Host_Library/Core/Src/usbh_core.c ****           /* Reset the USB Device */
 922:Middlewares/ST/STM32_USB_Host_Library/Core/Src/usbh_core.c ****           phost->EnumState = ENUM_IDLE;
 923:Middlewares/ST/STM32_USB_Host_Library/Core/Src/usbh_core.c ****           phost->gState = HOST_IDLE;
 924:Middlewares/ST/STM32_USB_Host_Library/Core/Src/usbh_core.c ****         }
 925:Middlewares/ST/STM32_USB_Host_Library/Core/Src/usbh_core.c ****       }
 926:Middlewares/ST/STM32_USB_Host_Library/Core/Src/usbh_core.c ****       else
 927:Middlewares/ST/STM32_USB_Host_Library/Core/Src/usbh_core.c ****       {
 928:Middlewares/ST/STM32_USB_Host_Library/Core/Src/usbh_core.c ****         /* .. */
 929:Middlewares/ST/STM32_USB_Host_Library/Core/Src/usbh_core.c ****       }
 930:Middlewares/ST/STM32_USB_Host_Library/Core/Src/usbh_core.c ****       break;
 931:Middlewares/ST/STM32_USB_Host_Library/Core/Src/usbh_core.c **** 
 932:Middlewares/ST/STM32_USB_Host_Library/Core/Src/usbh_core.c ****     case ENUM_SET_ADDR:
 933:Middlewares/ST/STM32_USB_Host_Library/Core/Src/usbh_core.c ****       /* set address */
 934:Middlewares/ST/STM32_USB_Host_Library/Core/Src/usbh_core.c ****       ReqStatus = USBH_SetAddress(phost, USBH_DEVICE_ADDRESS);
 935:Middlewares/ST/STM32_USB_Host_Library/Core/Src/usbh_core.c ****       if (ReqStatus == USBH_OK)
 936:Middlewares/ST/STM32_USB_Host_Library/Core/Src/usbh_core.c ****       {
 937:Middlewares/ST/STM32_USB_Host_Library/Core/Src/usbh_core.c ****         USBH_Delay(2U);
ARM GAS  /tmp/ccBJZy1z.s 			page 20


 938:Middlewares/ST/STM32_USB_Host_Library/Core/Src/usbh_core.c ****         phost->device.address = USBH_DEVICE_ADDRESS;
 939:Middlewares/ST/STM32_USB_Host_Library/Core/Src/usbh_core.c **** 
 940:Middlewares/ST/STM32_USB_Host_Library/Core/Src/usbh_core.c ****         /* user callback for device address assigned */
 941:Middlewares/ST/STM32_USB_Host_Library/Core/Src/usbh_core.c ****         USBH_UsrLog("Address (#%d) assigned.", phost->device.address);
 942:Middlewares/ST/STM32_USB_Host_Library/Core/Src/usbh_core.c ****         phost->EnumState = ENUM_GET_CFG_DESC;
 943:Middlewares/ST/STM32_USB_Host_Library/Core/Src/usbh_core.c **** 
 944:Middlewares/ST/STM32_USB_Host_Library/Core/Src/usbh_core.c ****         /* modify control channels to update device address */
 945:Middlewares/ST/STM32_USB_Host_Library/Core/Src/usbh_core.c ****         (void)USBH_OpenPipe(phost, phost->Control.pipe_in, 0x80U,  phost->device.address,
 946:Middlewares/ST/STM32_USB_Host_Library/Core/Src/usbh_core.c ****                             phost->device.speed, USBH_EP_CONTROL,
 947:Middlewares/ST/STM32_USB_Host_Library/Core/Src/usbh_core.c ****                             (uint16_t)phost->Control.pipe_size);
 948:Middlewares/ST/STM32_USB_Host_Library/Core/Src/usbh_core.c **** 
 949:Middlewares/ST/STM32_USB_Host_Library/Core/Src/usbh_core.c ****         /* Open Control pipes */
 950:Middlewares/ST/STM32_USB_Host_Library/Core/Src/usbh_core.c ****         (void)USBH_OpenPipe(phost, phost->Control.pipe_out, 0x00U, phost->device.address,
 951:Middlewares/ST/STM32_USB_Host_Library/Core/Src/usbh_core.c ****                             phost->device.speed, USBH_EP_CONTROL,
 952:Middlewares/ST/STM32_USB_Host_Library/Core/Src/usbh_core.c ****                             (uint16_t)phost->Control.pipe_size);
 953:Middlewares/ST/STM32_USB_Host_Library/Core/Src/usbh_core.c ****       }
 954:Middlewares/ST/STM32_USB_Host_Library/Core/Src/usbh_core.c ****       else if (ReqStatus == USBH_NOT_SUPPORTED)
 955:Middlewares/ST/STM32_USB_Host_Library/Core/Src/usbh_core.c ****       {
 956:Middlewares/ST/STM32_USB_Host_Library/Core/Src/usbh_core.c ****         USBH_ErrLog("Control error: Device Set Address request failed");
 957:Middlewares/ST/STM32_USB_Host_Library/Core/Src/usbh_core.c **** 
 958:Middlewares/ST/STM32_USB_Host_Library/Core/Src/usbh_core.c ****         /* Buggy Device can't complete get device desc request */
 959:Middlewares/ST/STM32_USB_Host_Library/Core/Src/usbh_core.c ****         USBH_UsrLog("Control error, Device not Responding Please unplug the Device.");
 960:Middlewares/ST/STM32_USB_Host_Library/Core/Src/usbh_core.c ****         phost->gState = HOST_ABORT_STATE;
 961:Middlewares/ST/STM32_USB_Host_Library/Core/Src/usbh_core.c ****         phost->EnumState = ENUM_IDLE;
 962:Middlewares/ST/STM32_USB_Host_Library/Core/Src/usbh_core.c ****       }
 963:Middlewares/ST/STM32_USB_Host_Library/Core/Src/usbh_core.c ****       else
 964:Middlewares/ST/STM32_USB_Host_Library/Core/Src/usbh_core.c ****       {
 965:Middlewares/ST/STM32_USB_Host_Library/Core/Src/usbh_core.c ****         /* .. */
 966:Middlewares/ST/STM32_USB_Host_Library/Core/Src/usbh_core.c ****       }
 967:Middlewares/ST/STM32_USB_Host_Library/Core/Src/usbh_core.c ****       break;
 968:Middlewares/ST/STM32_USB_Host_Library/Core/Src/usbh_core.c **** 
 969:Middlewares/ST/STM32_USB_Host_Library/Core/Src/usbh_core.c ****     case ENUM_GET_CFG_DESC:
 970:Middlewares/ST/STM32_USB_Host_Library/Core/Src/usbh_core.c ****       /* get standard configuration descriptor */
 971:Middlewares/ST/STM32_USB_Host_Library/Core/Src/usbh_core.c ****       ReqStatus = USBH_Get_CfgDesc(phost, USB_CONFIGURATION_DESC_SIZE);
 972:Middlewares/ST/STM32_USB_Host_Library/Core/Src/usbh_core.c ****       if (ReqStatus == USBH_OK)
 973:Middlewares/ST/STM32_USB_Host_Library/Core/Src/usbh_core.c ****       {
 974:Middlewares/ST/STM32_USB_Host_Library/Core/Src/usbh_core.c ****         phost->EnumState = ENUM_GET_FULL_CFG_DESC;
 975:Middlewares/ST/STM32_USB_Host_Library/Core/Src/usbh_core.c ****       }
 976:Middlewares/ST/STM32_USB_Host_Library/Core/Src/usbh_core.c ****       else if (ReqStatus == USBH_NOT_SUPPORTED)
 977:Middlewares/ST/STM32_USB_Host_Library/Core/Src/usbh_core.c ****       {
 978:Middlewares/ST/STM32_USB_Host_Library/Core/Src/usbh_core.c ****         USBH_ErrLog("Control error: Get Device configuration descriptor request failed");
 979:Middlewares/ST/STM32_USB_Host_Library/Core/Src/usbh_core.c ****         phost->device.EnumCnt++;
 980:Middlewares/ST/STM32_USB_Host_Library/Core/Src/usbh_core.c ****         if (phost->device.EnumCnt > 3U)
 981:Middlewares/ST/STM32_USB_Host_Library/Core/Src/usbh_core.c ****         {
 982:Middlewares/ST/STM32_USB_Host_Library/Core/Src/usbh_core.c ****           /* Buggy Device can't complete get device desc request */
 983:Middlewares/ST/STM32_USB_Host_Library/Core/Src/usbh_core.c ****           USBH_UsrLog("Control error, Device not Responding Please unplug the Device.");
 984:Middlewares/ST/STM32_USB_Host_Library/Core/Src/usbh_core.c ****           phost->gState = HOST_ABORT_STATE;
 985:Middlewares/ST/STM32_USB_Host_Library/Core/Src/usbh_core.c ****         }
 986:Middlewares/ST/STM32_USB_Host_Library/Core/Src/usbh_core.c ****         else
 987:Middlewares/ST/STM32_USB_Host_Library/Core/Src/usbh_core.c ****         {
 988:Middlewares/ST/STM32_USB_Host_Library/Core/Src/usbh_core.c ****           /* Free control pipes */
 989:Middlewares/ST/STM32_USB_Host_Library/Core/Src/usbh_core.c ****           (void)USBH_FreePipe(phost, phost->Control.pipe_out);
 990:Middlewares/ST/STM32_USB_Host_Library/Core/Src/usbh_core.c ****           (void)USBH_FreePipe(phost, phost->Control.pipe_in);
 991:Middlewares/ST/STM32_USB_Host_Library/Core/Src/usbh_core.c **** 
 992:Middlewares/ST/STM32_USB_Host_Library/Core/Src/usbh_core.c ****           /* Reset the USB Device */
 993:Middlewares/ST/STM32_USB_Host_Library/Core/Src/usbh_core.c ****           phost->EnumState = ENUM_IDLE;
 994:Middlewares/ST/STM32_USB_Host_Library/Core/Src/usbh_core.c ****           phost->gState = HOST_IDLE;
ARM GAS  /tmp/ccBJZy1z.s 			page 21


 995:Middlewares/ST/STM32_USB_Host_Library/Core/Src/usbh_core.c ****         }
 996:Middlewares/ST/STM32_USB_Host_Library/Core/Src/usbh_core.c ****       }
 997:Middlewares/ST/STM32_USB_Host_Library/Core/Src/usbh_core.c ****       else
 998:Middlewares/ST/STM32_USB_Host_Library/Core/Src/usbh_core.c ****       {
 999:Middlewares/ST/STM32_USB_Host_Library/Core/Src/usbh_core.c ****         /* .. */
1000:Middlewares/ST/STM32_USB_Host_Library/Core/Src/usbh_core.c ****       }
1001:Middlewares/ST/STM32_USB_Host_Library/Core/Src/usbh_core.c ****       break;
1002:Middlewares/ST/STM32_USB_Host_Library/Core/Src/usbh_core.c **** 
1003:Middlewares/ST/STM32_USB_Host_Library/Core/Src/usbh_core.c ****     case ENUM_GET_FULL_CFG_DESC:
1004:Middlewares/ST/STM32_USB_Host_Library/Core/Src/usbh_core.c ****       /* get FULL config descriptor (config, interface, endpoints) */
1005:Middlewares/ST/STM32_USB_Host_Library/Core/Src/usbh_core.c ****       ReqStatus = USBH_Get_CfgDesc(phost, phost->device.CfgDesc.wTotalLength);
1006:Middlewares/ST/STM32_USB_Host_Library/Core/Src/usbh_core.c ****       if (ReqStatus == USBH_OK)
1007:Middlewares/ST/STM32_USB_Host_Library/Core/Src/usbh_core.c ****       {
1008:Middlewares/ST/STM32_USB_Host_Library/Core/Src/usbh_core.c ****         phost->EnumState = ENUM_GET_MFC_STRING_DESC;
1009:Middlewares/ST/STM32_USB_Host_Library/Core/Src/usbh_core.c ****       }
1010:Middlewares/ST/STM32_USB_Host_Library/Core/Src/usbh_core.c ****       else if (ReqStatus == USBH_NOT_SUPPORTED)
1011:Middlewares/ST/STM32_USB_Host_Library/Core/Src/usbh_core.c ****       {
1012:Middlewares/ST/STM32_USB_Host_Library/Core/Src/usbh_core.c ****         USBH_ErrLog("Control error: Get Device configuration descriptor request failed");
1013:Middlewares/ST/STM32_USB_Host_Library/Core/Src/usbh_core.c ****         phost->device.EnumCnt++;
1014:Middlewares/ST/STM32_USB_Host_Library/Core/Src/usbh_core.c ****         if (phost->device.EnumCnt > 3U)
1015:Middlewares/ST/STM32_USB_Host_Library/Core/Src/usbh_core.c ****         {
1016:Middlewares/ST/STM32_USB_Host_Library/Core/Src/usbh_core.c ****           /* Buggy Device can't complete get device desc request */
1017:Middlewares/ST/STM32_USB_Host_Library/Core/Src/usbh_core.c ****           USBH_UsrLog("Control error, Device not Responding Please unplug the Device.");
1018:Middlewares/ST/STM32_USB_Host_Library/Core/Src/usbh_core.c ****           phost->gState = HOST_ABORT_STATE;
1019:Middlewares/ST/STM32_USB_Host_Library/Core/Src/usbh_core.c ****         }
1020:Middlewares/ST/STM32_USB_Host_Library/Core/Src/usbh_core.c ****         else
1021:Middlewares/ST/STM32_USB_Host_Library/Core/Src/usbh_core.c ****         {
1022:Middlewares/ST/STM32_USB_Host_Library/Core/Src/usbh_core.c ****           /* Free control pipes */
1023:Middlewares/ST/STM32_USB_Host_Library/Core/Src/usbh_core.c ****           (void)USBH_FreePipe(phost, phost->Control.pipe_out);
1024:Middlewares/ST/STM32_USB_Host_Library/Core/Src/usbh_core.c ****           (void)USBH_FreePipe(phost, phost->Control.pipe_in);
1025:Middlewares/ST/STM32_USB_Host_Library/Core/Src/usbh_core.c **** 
1026:Middlewares/ST/STM32_USB_Host_Library/Core/Src/usbh_core.c ****           /* Reset the USB Device */
1027:Middlewares/ST/STM32_USB_Host_Library/Core/Src/usbh_core.c ****           phost->EnumState = ENUM_IDLE;
1028:Middlewares/ST/STM32_USB_Host_Library/Core/Src/usbh_core.c ****           phost->gState = HOST_IDLE;
1029:Middlewares/ST/STM32_USB_Host_Library/Core/Src/usbh_core.c ****         }
1030:Middlewares/ST/STM32_USB_Host_Library/Core/Src/usbh_core.c ****       }
1031:Middlewares/ST/STM32_USB_Host_Library/Core/Src/usbh_core.c ****       else
1032:Middlewares/ST/STM32_USB_Host_Library/Core/Src/usbh_core.c ****       {
1033:Middlewares/ST/STM32_USB_Host_Library/Core/Src/usbh_core.c ****         /* .. */
1034:Middlewares/ST/STM32_USB_Host_Library/Core/Src/usbh_core.c ****       }
1035:Middlewares/ST/STM32_USB_Host_Library/Core/Src/usbh_core.c ****       break;
1036:Middlewares/ST/STM32_USB_Host_Library/Core/Src/usbh_core.c **** 
1037:Middlewares/ST/STM32_USB_Host_Library/Core/Src/usbh_core.c ****     case ENUM_GET_MFC_STRING_DESC:
1038:Middlewares/ST/STM32_USB_Host_Library/Core/Src/usbh_core.c ****       if (phost->device.DevDesc.iManufacturer != 0U)
1039:Middlewares/ST/STM32_USB_Host_Library/Core/Src/usbh_core.c ****       {
1040:Middlewares/ST/STM32_USB_Host_Library/Core/Src/usbh_core.c ****         /* Check that Manufacturer String is available */
1041:Middlewares/ST/STM32_USB_Host_Library/Core/Src/usbh_core.c ****         ReqStatus = USBH_Get_StringDesc(phost, phost->device.DevDesc.iManufacturer,
1042:Middlewares/ST/STM32_USB_Host_Library/Core/Src/usbh_core.c ****                                         phost->device.Data, 0xFFU);
1043:Middlewares/ST/STM32_USB_Host_Library/Core/Src/usbh_core.c ****         if (ReqStatus == USBH_OK)
1044:Middlewares/ST/STM32_USB_Host_Library/Core/Src/usbh_core.c ****         {
1045:Middlewares/ST/STM32_USB_Host_Library/Core/Src/usbh_core.c ****           /* User callback for Manufacturing string */
1046:Middlewares/ST/STM32_USB_Host_Library/Core/Src/usbh_core.c ****           USBH_UsrLog("Manufacturer : %s", (char *)(void *)phost->device.Data);
1047:Middlewares/ST/STM32_USB_Host_Library/Core/Src/usbh_core.c ****           phost->EnumState = ENUM_GET_PRODUCT_STRING_DESC;
1048:Middlewares/ST/STM32_USB_Host_Library/Core/Src/usbh_core.c **** 
1049:Middlewares/ST/STM32_USB_Host_Library/Core/Src/usbh_core.c **** #if (USBH_USE_OS == 1U)
1050:Middlewares/ST/STM32_USB_Host_Library/Core/Src/usbh_core.c ****           phost->os_msg = (uint32_t)USBH_STATE_CHANGED_EVENT;
1051:Middlewares/ST/STM32_USB_Host_Library/Core/Src/usbh_core.c **** #if (osCMSIS < 0x20000U)
ARM GAS  /tmp/ccBJZy1z.s 			page 22


1052:Middlewares/ST/STM32_USB_Host_Library/Core/Src/usbh_core.c ****           (void)osMessagePut(phost->os_event, phost->os_msg, 0U);
1053:Middlewares/ST/STM32_USB_Host_Library/Core/Src/usbh_core.c **** #else
1054:Middlewares/ST/STM32_USB_Host_Library/Core/Src/usbh_core.c ****           (void)osMessageQueuePut(phost->os_event, &phost->os_msg, 0U, 0U);
1055:Middlewares/ST/STM32_USB_Host_Library/Core/Src/usbh_core.c **** #endif
1056:Middlewares/ST/STM32_USB_Host_Library/Core/Src/usbh_core.c **** #endif
1057:Middlewares/ST/STM32_USB_Host_Library/Core/Src/usbh_core.c ****         }
1058:Middlewares/ST/STM32_USB_Host_Library/Core/Src/usbh_core.c ****         else if (ReqStatus == USBH_NOT_SUPPORTED)
1059:Middlewares/ST/STM32_USB_Host_Library/Core/Src/usbh_core.c ****         {
1060:Middlewares/ST/STM32_USB_Host_Library/Core/Src/usbh_core.c ****           USBH_UsrLog("Manufacturer : N/A");
1061:Middlewares/ST/STM32_USB_Host_Library/Core/Src/usbh_core.c ****           phost->EnumState = ENUM_GET_PRODUCT_STRING_DESC;
1062:Middlewares/ST/STM32_USB_Host_Library/Core/Src/usbh_core.c **** 
1063:Middlewares/ST/STM32_USB_Host_Library/Core/Src/usbh_core.c **** #if (USBH_USE_OS == 1U)
1064:Middlewares/ST/STM32_USB_Host_Library/Core/Src/usbh_core.c ****           phost->os_msg = (uint32_t)USBH_STATE_CHANGED_EVENT;
1065:Middlewares/ST/STM32_USB_Host_Library/Core/Src/usbh_core.c **** #if (osCMSIS < 0x20000U)
1066:Middlewares/ST/STM32_USB_Host_Library/Core/Src/usbh_core.c ****           (void)osMessagePut(phost->os_event, phost->os_msg, 0U);
1067:Middlewares/ST/STM32_USB_Host_Library/Core/Src/usbh_core.c **** #else
1068:Middlewares/ST/STM32_USB_Host_Library/Core/Src/usbh_core.c ****           (void)osMessageQueuePut(phost->os_event, &phost->os_msg, 0U, 0U);
1069:Middlewares/ST/STM32_USB_Host_Library/Core/Src/usbh_core.c **** #endif
1070:Middlewares/ST/STM32_USB_Host_Library/Core/Src/usbh_core.c **** #endif
1071:Middlewares/ST/STM32_USB_Host_Library/Core/Src/usbh_core.c ****         }
1072:Middlewares/ST/STM32_USB_Host_Library/Core/Src/usbh_core.c ****         else
1073:Middlewares/ST/STM32_USB_Host_Library/Core/Src/usbh_core.c ****         {
1074:Middlewares/ST/STM32_USB_Host_Library/Core/Src/usbh_core.c ****           /* .. */
1075:Middlewares/ST/STM32_USB_Host_Library/Core/Src/usbh_core.c ****         }
1076:Middlewares/ST/STM32_USB_Host_Library/Core/Src/usbh_core.c ****       }
1077:Middlewares/ST/STM32_USB_Host_Library/Core/Src/usbh_core.c ****       else
1078:Middlewares/ST/STM32_USB_Host_Library/Core/Src/usbh_core.c ****       {
1079:Middlewares/ST/STM32_USB_Host_Library/Core/Src/usbh_core.c ****         USBH_UsrLog("Manufacturer : N/A");
1080:Middlewares/ST/STM32_USB_Host_Library/Core/Src/usbh_core.c ****         phost->EnumState = ENUM_GET_PRODUCT_STRING_DESC;
1081:Middlewares/ST/STM32_USB_Host_Library/Core/Src/usbh_core.c **** 
1082:Middlewares/ST/STM32_USB_Host_Library/Core/Src/usbh_core.c **** #if (USBH_USE_OS == 1U)
1083:Middlewares/ST/STM32_USB_Host_Library/Core/Src/usbh_core.c ****         phost->os_msg = (uint32_t)USBH_STATE_CHANGED_EVENT;
1084:Middlewares/ST/STM32_USB_Host_Library/Core/Src/usbh_core.c **** #if (osCMSIS < 0x20000U)
1085:Middlewares/ST/STM32_USB_Host_Library/Core/Src/usbh_core.c ****         (void)osMessagePut(phost->os_event, phost->os_msg, 0U);
1086:Middlewares/ST/STM32_USB_Host_Library/Core/Src/usbh_core.c **** #else
1087:Middlewares/ST/STM32_USB_Host_Library/Core/Src/usbh_core.c ****         (void)osMessageQueuePut(phost->os_event, &phost->os_msg, 0U, 0U);
1088:Middlewares/ST/STM32_USB_Host_Library/Core/Src/usbh_core.c **** #endif
1089:Middlewares/ST/STM32_USB_Host_Library/Core/Src/usbh_core.c **** #endif
1090:Middlewares/ST/STM32_USB_Host_Library/Core/Src/usbh_core.c ****       }
1091:Middlewares/ST/STM32_USB_Host_Library/Core/Src/usbh_core.c ****       break;
1092:Middlewares/ST/STM32_USB_Host_Library/Core/Src/usbh_core.c **** 
1093:Middlewares/ST/STM32_USB_Host_Library/Core/Src/usbh_core.c ****     case ENUM_GET_PRODUCT_STRING_DESC:
1094:Middlewares/ST/STM32_USB_Host_Library/Core/Src/usbh_core.c ****       if (phost->device.DevDesc.iProduct != 0U)
1095:Middlewares/ST/STM32_USB_Host_Library/Core/Src/usbh_core.c ****       {
1096:Middlewares/ST/STM32_USB_Host_Library/Core/Src/usbh_core.c ****         /* Check that Product string is available */
1097:Middlewares/ST/STM32_USB_Host_Library/Core/Src/usbh_core.c ****         ReqStatus = USBH_Get_StringDesc(phost, phost->device.DevDesc.iProduct,
1098:Middlewares/ST/STM32_USB_Host_Library/Core/Src/usbh_core.c ****                                         phost->device.Data, 0xFFU);
1099:Middlewares/ST/STM32_USB_Host_Library/Core/Src/usbh_core.c ****         if (ReqStatus == USBH_OK)
1100:Middlewares/ST/STM32_USB_Host_Library/Core/Src/usbh_core.c ****         {
1101:Middlewares/ST/STM32_USB_Host_Library/Core/Src/usbh_core.c ****           /* User callback for Product string */
1102:Middlewares/ST/STM32_USB_Host_Library/Core/Src/usbh_core.c ****           USBH_UsrLog("Product : %s", (char *)(void *)phost->device.Data);
1103:Middlewares/ST/STM32_USB_Host_Library/Core/Src/usbh_core.c ****           phost->EnumState = ENUM_GET_SERIALNUM_STRING_DESC;
1104:Middlewares/ST/STM32_USB_Host_Library/Core/Src/usbh_core.c ****         }
1105:Middlewares/ST/STM32_USB_Host_Library/Core/Src/usbh_core.c ****         else if (ReqStatus == USBH_NOT_SUPPORTED)
1106:Middlewares/ST/STM32_USB_Host_Library/Core/Src/usbh_core.c ****         {
1107:Middlewares/ST/STM32_USB_Host_Library/Core/Src/usbh_core.c ****           USBH_UsrLog("Product : N/A");
1108:Middlewares/ST/STM32_USB_Host_Library/Core/Src/usbh_core.c ****           phost->EnumState = ENUM_GET_SERIALNUM_STRING_DESC;
ARM GAS  /tmp/ccBJZy1z.s 			page 23


1109:Middlewares/ST/STM32_USB_Host_Library/Core/Src/usbh_core.c **** 
1110:Middlewares/ST/STM32_USB_Host_Library/Core/Src/usbh_core.c **** #if (USBH_USE_OS == 1U)
1111:Middlewares/ST/STM32_USB_Host_Library/Core/Src/usbh_core.c ****           phost->os_msg = (uint32_t)USBH_STATE_CHANGED_EVENT;
1112:Middlewares/ST/STM32_USB_Host_Library/Core/Src/usbh_core.c **** #if (osCMSIS < 0x20000U)
1113:Middlewares/ST/STM32_USB_Host_Library/Core/Src/usbh_core.c ****           (void)osMessagePut(phost->os_event, phost->os_msg, 0U);
1114:Middlewares/ST/STM32_USB_Host_Library/Core/Src/usbh_core.c **** #else
1115:Middlewares/ST/STM32_USB_Host_Library/Core/Src/usbh_core.c ****           (void)osMessageQueuePut(phost->os_event, &phost->os_msg, 0U, 0U);
1116:Middlewares/ST/STM32_USB_Host_Library/Core/Src/usbh_core.c **** #endif
1117:Middlewares/ST/STM32_USB_Host_Library/Core/Src/usbh_core.c **** #endif
1118:Middlewares/ST/STM32_USB_Host_Library/Core/Src/usbh_core.c ****         }
1119:Middlewares/ST/STM32_USB_Host_Library/Core/Src/usbh_core.c ****         else
1120:Middlewares/ST/STM32_USB_Host_Library/Core/Src/usbh_core.c ****         {
1121:Middlewares/ST/STM32_USB_Host_Library/Core/Src/usbh_core.c ****           /* .. */
1122:Middlewares/ST/STM32_USB_Host_Library/Core/Src/usbh_core.c ****         }
1123:Middlewares/ST/STM32_USB_Host_Library/Core/Src/usbh_core.c ****       }
1124:Middlewares/ST/STM32_USB_Host_Library/Core/Src/usbh_core.c ****       else
1125:Middlewares/ST/STM32_USB_Host_Library/Core/Src/usbh_core.c ****       {
1126:Middlewares/ST/STM32_USB_Host_Library/Core/Src/usbh_core.c ****         USBH_UsrLog("Product : N/A");
1127:Middlewares/ST/STM32_USB_Host_Library/Core/Src/usbh_core.c ****         phost->EnumState = ENUM_GET_SERIALNUM_STRING_DESC;
1128:Middlewares/ST/STM32_USB_Host_Library/Core/Src/usbh_core.c **** 
1129:Middlewares/ST/STM32_USB_Host_Library/Core/Src/usbh_core.c **** #if (USBH_USE_OS == 1U)
1130:Middlewares/ST/STM32_USB_Host_Library/Core/Src/usbh_core.c ****         phost->os_msg = (uint32_t)USBH_STATE_CHANGED_EVENT;
1131:Middlewares/ST/STM32_USB_Host_Library/Core/Src/usbh_core.c **** #if (osCMSIS < 0x20000U)
1132:Middlewares/ST/STM32_USB_Host_Library/Core/Src/usbh_core.c ****         (void)osMessagePut(phost->os_event, phost->os_msg, 0U);
1133:Middlewares/ST/STM32_USB_Host_Library/Core/Src/usbh_core.c **** #else
1134:Middlewares/ST/STM32_USB_Host_Library/Core/Src/usbh_core.c ****         (void)osMessageQueuePut(phost->os_event, &phost->os_msg, 0U, 0U);
1135:Middlewares/ST/STM32_USB_Host_Library/Core/Src/usbh_core.c **** #endif
1136:Middlewares/ST/STM32_USB_Host_Library/Core/Src/usbh_core.c **** #endif
1137:Middlewares/ST/STM32_USB_Host_Library/Core/Src/usbh_core.c ****       }
1138:Middlewares/ST/STM32_USB_Host_Library/Core/Src/usbh_core.c ****       break;
1139:Middlewares/ST/STM32_USB_Host_Library/Core/Src/usbh_core.c **** 
1140:Middlewares/ST/STM32_USB_Host_Library/Core/Src/usbh_core.c ****     case ENUM_GET_SERIALNUM_STRING_DESC:
1141:Middlewares/ST/STM32_USB_Host_Library/Core/Src/usbh_core.c ****       if (phost->device.DevDesc.iSerialNumber != 0U)
1142:Middlewares/ST/STM32_USB_Host_Library/Core/Src/usbh_core.c ****       {
1143:Middlewares/ST/STM32_USB_Host_Library/Core/Src/usbh_core.c ****         /* Check that Serial number string is available */
1144:Middlewares/ST/STM32_USB_Host_Library/Core/Src/usbh_core.c ****         ReqStatus = USBH_Get_StringDesc(phost, phost->device.DevDesc.iSerialNumber,
1145:Middlewares/ST/STM32_USB_Host_Library/Core/Src/usbh_core.c ****                                         phost->device.Data, 0xFFU);
1146:Middlewares/ST/STM32_USB_Host_Library/Core/Src/usbh_core.c ****         if (ReqStatus == USBH_OK)
1147:Middlewares/ST/STM32_USB_Host_Library/Core/Src/usbh_core.c ****         {
1148:Middlewares/ST/STM32_USB_Host_Library/Core/Src/usbh_core.c ****           /* User callback for Serial number string */
1149:Middlewares/ST/STM32_USB_Host_Library/Core/Src/usbh_core.c ****           USBH_UsrLog("Serial Number : %s", (char *)(void *)phost->device.Data);
1150:Middlewares/ST/STM32_USB_Host_Library/Core/Src/usbh_core.c ****           Status = USBH_OK;
1151:Middlewares/ST/STM32_USB_Host_Library/Core/Src/usbh_core.c ****         }
1152:Middlewares/ST/STM32_USB_Host_Library/Core/Src/usbh_core.c ****         else if (ReqStatus == USBH_NOT_SUPPORTED)
1153:Middlewares/ST/STM32_USB_Host_Library/Core/Src/usbh_core.c ****         {
1154:Middlewares/ST/STM32_USB_Host_Library/Core/Src/usbh_core.c ****           USBH_UsrLog("Serial Number : N/A");
1155:Middlewares/ST/STM32_USB_Host_Library/Core/Src/usbh_core.c ****           Status = USBH_OK;
1156:Middlewares/ST/STM32_USB_Host_Library/Core/Src/usbh_core.c ****         }
1157:Middlewares/ST/STM32_USB_Host_Library/Core/Src/usbh_core.c ****         else
1158:Middlewares/ST/STM32_USB_Host_Library/Core/Src/usbh_core.c ****         {
1159:Middlewares/ST/STM32_USB_Host_Library/Core/Src/usbh_core.c ****           /* .. */
1160:Middlewares/ST/STM32_USB_Host_Library/Core/Src/usbh_core.c ****         }
1161:Middlewares/ST/STM32_USB_Host_Library/Core/Src/usbh_core.c ****       }
1162:Middlewares/ST/STM32_USB_Host_Library/Core/Src/usbh_core.c ****       else
1163:Middlewares/ST/STM32_USB_Host_Library/Core/Src/usbh_core.c ****       {
1164:Middlewares/ST/STM32_USB_Host_Library/Core/Src/usbh_core.c ****         USBH_UsrLog("Serial Number : N/A");
1165:Middlewares/ST/STM32_USB_Host_Library/Core/Src/usbh_core.c ****         Status = USBH_OK;
ARM GAS  /tmp/ccBJZy1z.s 			page 24


1166:Middlewares/ST/STM32_USB_Host_Library/Core/Src/usbh_core.c ****       }
1167:Middlewares/ST/STM32_USB_Host_Library/Core/Src/usbh_core.c ****       break;
1168:Middlewares/ST/STM32_USB_Host_Library/Core/Src/usbh_core.c **** 
1169:Middlewares/ST/STM32_USB_Host_Library/Core/Src/usbh_core.c ****     default:
1170:Middlewares/ST/STM32_USB_Host_Library/Core/Src/usbh_core.c ****       break;
1171:Middlewares/ST/STM32_USB_Host_Library/Core/Src/usbh_core.c ****   }
1172:Middlewares/ST/STM32_USB_Host_Library/Core/Src/usbh_core.c ****   return Status;
1173:Middlewares/ST/STM32_USB_Host_Library/Core/Src/usbh_core.c **** }
1174:Middlewares/ST/STM32_USB_Host_Library/Core/Src/usbh_core.c **** 
1175:Middlewares/ST/STM32_USB_Host_Library/Core/Src/usbh_core.c **** 
1176:Middlewares/ST/STM32_USB_Host_Library/Core/Src/usbh_core.c **** /**
1177:Middlewares/ST/STM32_USB_Host_Library/Core/Src/usbh_core.c ****   * @brief  USBH_LL_SetTimer
1178:Middlewares/ST/STM32_USB_Host_Library/Core/Src/usbh_core.c ****   *         Set the initial Host Timer tick
1179:Middlewares/ST/STM32_USB_Host_Library/Core/Src/usbh_core.c ****   * @param  phost: Host Handle
1180:Middlewares/ST/STM32_USB_Host_Library/Core/Src/usbh_core.c ****   * @retval None
1181:Middlewares/ST/STM32_USB_Host_Library/Core/Src/usbh_core.c ****   */
1182:Middlewares/ST/STM32_USB_Host_Library/Core/Src/usbh_core.c **** void  USBH_LL_SetTimer(USBH_HandleTypeDef *phost, uint32_t time)
1183:Middlewares/ST/STM32_USB_Host_Library/Core/Src/usbh_core.c **** {
1184:Middlewares/ST/STM32_USB_Host_Library/Core/Src/usbh_core.c ****   phost->Timer = time;
1185:Middlewares/ST/STM32_USB_Host_Library/Core/Src/usbh_core.c **** }
1186:Middlewares/ST/STM32_USB_Host_Library/Core/Src/usbh_core.c **** 
1187:Middlewares/ST/STM32_USB_Host_Library/Core/Src/usbh_core.c **** 
1188:Middlewares/ST/STM32_USB_Host_Library/Core/Src/usbh_core.c **** /**
1189:Middlewares/ST/STM32_USB_Host_Library/Core/Src/usbh_core.c ****   * @brief  USBH_LL_IncTimer
1190:Middlewares/ST/STM32_USB_Host_Library/Core/Src/usbh_core.c ****   *         Increment Host Timer tick
1191:Middlewares/ST/STM32_USB_Host_Library/Core/Src/usbh_core.c ****   * @param  phost: Host Handle
1192:Middlewares/ST/STM32_USB_Host_Library/Core/Src/usbh_core.c ****   * @retval None
1193:Middlewares/ST/STM32_USB_Host_Library/Core/Src/usbh_core.c ****   */
1194:Middlewares/ST/STM32_USB_Host_Library/Core/Src/usbh_core.c **** void  USBH_LL_IncTimer(USBH_HandleTypeDef *phost)
1195:Middlewares/ST/STM32_USB_Host_Library/Core/Src/usbh_core.c **** {
1196:Middlewares/ST/STM32_USB_Host_Library/Core/Src/usbh_core.c ****   phost->Timer++;
1197:Middlewares/ST/STM32_USB_Host_Library/Core/Src/usbh_core.c ****   USBH_HandleSof(phost);
1198:Middlewares/ST/STM32_USB_Host_Library/Core/Src/usbh_core.c **** }
1199:Middlewares/ST/STM32_USB_Host_Library/Core/Src/usbh_core.c **** 
1200:Middlewares/ST/STM32_USB_Host_Library/Core/Src/usbh_core.c **** 
1201:Middlewares/ST/STM32_USB_Host_Library/Core/Src/usbh_core.c **** /**
1202:Middlewares/ST/STM32_USB_Host_Library/Core/Src/usbh_core.c ****   * @brief  USBH_HandleSof
1203:Middlewares/ST/STM32_USB_Host_Library/Core/Src/usbh_core.c ****   *         Call SOF process
1204:Middlewares/ST/STM32_USB_Host_Library/Core/Src/usbh_core.c ****   * @param  phost: Host Handle
1205:Middlewares/ST/STM32_USB_Host_Library/Core/Src/usbh_core.c ****   * @retval None
1206:Middlewares/ST/STM32_USB_Host_Library/Core/Src/usbh_core.c ****   */
1207:Middlewares/ST/STM32_USB_Host_Library/Core/Src/usbh_core.c **** static void  USBH_HandleSof(USBH_HandleTypeDef *phost)
1208:Middlewares/ST/STM32_USB_Host_Library/Core/Src/usbh_core.c **** {
 144              		.loc 1 1208 1 is_stmt 1 view -0
 145              		.cfi_startproc
 146              		@ args = 0, pretend = 0, frame = 0
 147              		@ frame_needed = 0, uses_anonymous_args = 0
 148              		.loc 1 1208 1 is_stmt 0 view .LVU48
 149 0000 08B5     		push	{r3, lr}
 150              		.cfi_def_cfa_offset 8
 151              		.cfi_offset 3, -8
 152              		.cfi_offset 14, -4
1209:Middlewares/ST/STM32_USB_Host_Library/Core/Src/usbh_core.c ****   if ((phost->gState == HOST_CLASS) && (phost->pActiveClass != NULL))
 153              		.loc 1 1209 3 is_stmt 1 view .LVU49
 154              		.loc 1 1209 13 is_stmt 0 view .LVU50
 155 0002 0378     		ldrb	r3, [r0]	@ zero_extendqisi2
 156 0004 DBB2     		uxtb	r3, r3
ARM GAS  /tmp/ccBJZy1z.s 			page 25


 157              		.loc 1 1209 6 view .LVU51
 158 0006 0B2B     		cmp	r3, #11
 159 0008 00D0     		beq	.L12
 160              	.LVL10:
 161              	.L9:
1210:Middlewares/ST/STM32_USB_Host_Library/Core/Src/usbh_core.c ****   {
1211:Middlewares/ST/STM32_USB_Host_Library/Core/Src/usbh_core.c ****     phost->pActiveClass->SOFProcess(phost);
1212:Middlewares/ST/STM32_USB_Host_Library/Core/Src/usbh_core.c ****   }
1213:Middlewares/ST/STM32_USB_Host_Library/Core/Src/usbh_core.c **** }
 162              		.loc 1 1213 1 view .LVU52
 163 000a 08BD     		pop	{r3, pc}
 164              	.LVL11:
 165              	.L12:
1209:Middlewares/ST/STM32_USB_Host_Library/Core/Src/usbh_core.c ****   if ((phost->gState == HOST_CLASS) && (phost->pActiveClass != NULL))
 166              		.loc 1 1209 46 discriminator 1 view .LVU53
 167 000c D0F87C33 		ldr	r3, [r0, #892]
1209:Middlewares/ST/STM32_USB_Host_Library/Core/Src/usbh_core.c ****   if ((phost->gState == HOST_CLASS) && (phost->pActiveClass != NULL))
 168              		.loc 1 1209 37 discriminator 1 view .LVU54
 169 0010 002B     		cmp	r3, #0
 170 0012 FAD0     		beq	.L9
1211:Middlewares/ST/STM32_USB_Host_Library/Core/Src/usbh_core.c ****   }
 171              		.loc 1 1211 5 is_stmt 1 view .LVU55
1211:Middlewares/ST/STM32_USB_Host_Library/Core/Src/usbh_core.c ****   }
 172              		.loc 1 1211 24 is_stmt 0 view .LVU56
 173 0014 9B69     		ldr	r3, [r3, #24]
1211:Middlewares/ST/STM32_USB_Host_Library/Core/Src/usbh_core.c ****   }
 174              		.loc 1 1211 5 view .LVU57
 175 0016 9847     		blx	r3
 176              	.LVL12:
 177              		.loc 1 1213 1 view .LVU58
 178 0018 F7E7     		b	.L9
 179              		.cfi_endproc
 180              	.LFE148:
 182              		.section	.text.USBH_HandleEnum,"ax",%progbits
 183              		.align	1
 184              		.syntax unified
 185              		.thumb
 186              		.thumb_func
 187              		.fpu fpv4-sp-d16
 189              	USBH_HandleEnum:
 190              	.LVL13:
 191              	.LFB145:
 844:Middlewares/ST/STM32_USB_Host_Library/Core/Src/usbh_core.c ****   USBH_StatusTypeDef Status = USBH_BUSY;
 192              		.loc 1 844 1 is_stmt 1 view -0
 193              		.cfi_startproc
 194              		@ args = 0, pretend = 0, frame = 0
 195              		@ frame_needed = 0, uses_anonymous_args = 0
 844:Middlewares/ST/STM32_USB_Host_Library/Core/Src/usbh_core.c ****   USBH_StatusTypeDef Status = USBH_BUSY;
 196              		.loc 1 844 1 is_stmt 0 view .LVU60
 197 0000 70B5     		push	{r4, r5, r6, lr}
 198              		.cfi_def_cfa_offset 16
 199              		.cfi_offset 4, -16
 200              		.cfi_offset 5, -12
 201              		.cfi_offset 6, -8
 202              		.cfi_offset 14, -4
 203 0002 84B0     		sub	sp, sp, #16
 204              		.cfi_def_cfa_offset 32
ARM GAS  /tmp/ccBJZy1z.s 			page 26


 205 0004 0446     		mov	r4, r0
 845:Middlewares/ST/STM32_USB_Host_Library/Core/Src/usbh_core.c ****   USBH_StatusTypeDef ReqStatus = USBH_BUSY;
 206              		.loc 1 845 3 is_stmt 1 view .LVU61
 207              	.LVL14:
 846:Middlewares/ST/STM32_USB_Host_Library/Core/Src/usbh_core.c **** 
 208              		.loc 1 846 3 view .LVU62
 848:Middlewares/ST/STM32_USB_Host_Library/Core/Src/usbh_core.c ****   {
 209              		.loc 1 848 3 view .LVU63
 848:Middlewares/ST/STM32_USB_Host_Library/Core/Src/usbh_core.c ****   {
 210              		.loc 1 848 16 is_stmt 0 view .LVU64
 211 0006 4578     		ldrb	r5, [r0, #1]	@ zero_extendqisi2
 212 0008 072D     		cmp	r5, #7
 213 000a 00F22C81 		bhi	.L37
 214 000e DFE815F0 		tbh	[pc, r5, lsl #1]
 215              	.L16:
 216 0012 0800     		.2byte	(.L23-.L16)/2
 217 0014 4800     		.2byte	(.L22-.L16)/2
 218 0016 6900     		.2byte	(.L21-.L16)/2
 219 0018 9A00     		.2byte	(.L20-.L16)/2
 220 001a BF00     		.2byte	(.L19-.L16)/2
 221 001c E500     		.2byte	(.L18-.L16)/2
 222 001e FE00     		.2byte	(.L17-.L16)/2
 223 0020 1701     		.2byte	(.L15-.L16)/2
 224              		.p2align 1
 225              	.L23:
 852:Middlewares/ST/STM32_USB_Host_Library/Core/Src/usbh_core.c ****       if (ReqStatus == USBH_OK)
 226              		.loc 1 852 7 is_stmt 1 view .LVU65
 852:Middlewares/ST/STM32_USB_Host_Library/Core/Src/usbh_core.c ****       if (ReqStatus == USBH_OK)
 227              		.loc 1 852 19 is_stmt 0 view .LVU66
 228 0022 0821     		movs	r1, #8
 229 0024 FFF7FEFF 		bl	USBH_Get_DevDesc
 230              	.LVL15:
 853:Middlewares/ST/STM32_USB_Host_Library/Core/Src/usbh_core.c ****       {
 231              		.loc 1 853 7 is_stmt 1 view .LVU67
 853:Middlewares/ST/STM32_USB_Host_Library/Core/Src/usbh_core.c ****       {
 232              		.loc 1 853 10 is_stmt 0 view .LVU68
 233 0028 18B1     		cbz	r0, .L46
 869:Middlewares/ST/STM32_USB_Host_Library/Core/Src/usbh_core.c ****       {
 234              		.loc 1 869 12 is_stmt 1 view .LVU69
 869:Middlewares/ST/STM32_USB_Host_Library/Core/Src/usbh_core.c ****       {
 235              		.loc 1 869 15 is_stmt 0 view .LVU70
 236 002a 0328     		cmp	r0, #3
 237 002c 21D0     		beq	.L47
 845:Middlewares/ST/STM32_USB_Host_Library/Core/Src/usbh_core.c ****   USBH_StatusTypeDef ReqStatus = USBH_BUSY;
 238              		.loc 1 845 22 view .LVU71
 239 002e 0125     		movs	r5, #1
 240 0030 09E1     		b	.L14
 241              	.L46:
 855:Middlewares/ST/STM32_USB_Host_Library/Core/Src/usbh_core.c **** 
 242              		.loc 1 855 9 is_stmt 1 view .LVU72
 855:Middlewares/ST/STM32_USB_Host_Library/Core/Src/usbh_core.c **** 
 243              		.loc 1 855 57 is_stmt 0 view .LVU73
 244 0032 94F82D33 		ldrb	r3, [r4, #813]	@ zero_extendqisi2
 855:Middlewares/ST/STM32_USB_Host_Library/Core/Src/usbh_core.c **** 
 245              		.loc 1 855 34 view .LVU74
 246 0036 A371     		strb	r3, [r4, #6]
 857:Middlewares/ST/STM32_USB_Host_Library/Core/Src/usbh_core.c **** 
ARM GAS  /tmp/ccBJZy1z.s 			page 27


 247              		.loc 1 857 9 is_stmt 1 view .LVU75
 857:Middlewares/ST/STM32_USB_Host_Library/Core/Src/usbh_core.c **** 
 248              		.loc 1 857 26 is_stmt 0 view .LVU76
 249 0038 0125     		movs	r5, #1
 250 003a 6570     		strb	r5, [r4, #1]
 860:Middlewares/ST/STM32_USB_Host_Library/Core/Src/usbh_core.c ****                             phost->device.speed, USBH_EP_CONTROL,
 251              		.loc 1 860 9 is_stmt 1 view .LVU77
 860:Middlewares/ST/STM32_USB_Host_Library/Core/Src/usbh_core.c ****                             phost->device.speed, USBH_EP_CONTROL,
 252              		.loc 1 860 15 is_stmt 0 view .LVU78
 253 003c 0293     		str	r3, [sp, #8]
 254 003e 0026     		movs	r6, #0
 255 0040 0196     		str	r6, [sp, #4]
 256 0042 94F81D33 		ldrb	r3, [r4, #797]	@ zero_extendqisi2
 257 0046 0093     		str	r3, [sp]
 258 0048 94F81C33 		ldrb	r3, [r4, #796]	@ zero_extendqisi2
 259 004c 8022     		movs	r2, #128
 260 004e 2179     		ldrb	r1, [r4, #4]	@ zero_extendqisi2
 261 0050 2046     		mov	r0, r4
 262              	.LVL16:
 860:Middlewares/ST/STM32_USB_Host_Library/Core/Src/usbh_core.c ****                             phost->device.speed, USBH_EP_CONTROL,
 263              		.loc 1 860 15 view .LVU79
 264 0052 FFF7FEFF 		bl	USBH_OpenPipe
 265              	.LVL17:
 865:Middlewares/ST/STM32_USB_Host_Library/Core/Src/usbh_core.c ****                             phost->device.speed, USBH_EP_CONTROL,
 266              		.loc 1 865 9 is_stmt 1 view .LVU80
 865:Middlewares/ST/STM32_USB_Host_Library/Core/Src/usbh_core.c ****                             phost->device.speed, USBH_EP_CONTROL,
 267              		.loc 1 865 15 is_stmt 0 view .LVU81
 268 0056 A379     		ldrb	r3, [r4, #6]	@ zero_extendqisi2
 269 0058 0293     		str	r3, [sp, #8]
 270 005a 0196     		str	r6, [sp, #4]
 271 005c 94F81D33 		ldrb	r3, [r4, #797]	@ zero_extendqisi2
 272 0060 0093     		str	r3, [sp]
 273 0062 94F81C33 		ldrb	r3, [r4, #796]	@ zero_extendqisi2
 274 0066 3246     		mov	r2, r6
 275 0068 6179     		ldrb	r1, [r4, #5]	@ zero_extendqisi2
 276 006a 2046     		mov	r0, r4
 277 006c FFF7FEFF 		bl	USBH_OpenPipe
 278              	.LVL18:
 279 0070 E9E0     		b	.L14
 280              	.LVL19:
 281              	.L47:
 871:Middlewares/ST/STM32_USB_Host_Library/Core/Src/usbh_core.c ****         phost->device.EnumCnt++;
 282              		.loc 1 871 9 is_stmt 1 view .LVU82
 871:Middlewares/ST/STM32_USB_Host_Library/Core/Src/usbh_core.c ****         phost->device.EnumCnt++;
 283              		.loc 1 871 9 view .LVU83
 871:Middlewares/ST/STM32_USB_Host_Library/Core/Src/usbh_core.c ****         phost->device.EnumCnt++;
 284              		.loc 1 871 9 view .LVU84
 872:Middlewares/ST/STM32_USB_Host_Library/Core/Src/usbh_core.c ****         if (phost->device.EnumCnt > 3U)
 285              		.loc 1 872 9 view .LVU85
 872:Middlewares/ST/STM32_USB_Host_Library/Core/Src/usbh_core.c ****         if (phost->device.EnumCnt > 3U)
 286              		.loc 1 872 22 is_stmt 0 view .LVU86
 287 0072 94F81E33 		ldrb	r3, [r4, #798]	@ zero_extendqisi2
 872:Middlewares/ST/STM32_USB_Host_Library/Core/Src/usbh_core.c ****         if (phost->device.EnumCnt > 3U)
 288              		.loc 1 872 30 view .LVU87
 289 0076 0133     		adds	r3, r3, #1
 290 0078 DBB2     		uxtb	r3, r3
 291 007a 84F81E33 		strb	r3, [r4, #798]
ARM GAS  /tmp/ccBJZy1z.s 			page 28


 873:Middlewares/ST/STM32_USB_Host_Library/Core/Src/usbh_core.c ****         {
 292              		.loc 1 873 9 is_stmt 1 view .LVU88
 873:Middlewares/ST/STM32_USB_Host_Library/Core/Src/usbh_core.c ****         {
 293              		.loc 1 873 12 is_stmt 0 view .LVU89
 294 007e 032B     		cmp	r3, #3
 295 0080 03D9     		bls	.L25
 876:Middlewares/ST/STM32_USB_Host_Library/Core/Src/usbh_core.c ****           phost->gState = HOST_ABORT_STATE;
 296              		.loc 1 876 11 is_stmt 1 view .LVU90
 876:Middlewares/ST/STM32_USB_Host_Library/Core/Src/usbh_core.c ****           phost->gState = HOST_ABORT_STATE;
 297              		.loc 1 876 11 view .LVU91
 876:Middlewares/ST/STM32_USB_Host_Library/Core/Src/usbh_core.c ****           phost->gState = HOST_ABORT_STATE;
 298              		.loc 1 876 11 view .LVU92
 877:Middlewares/ST/STM32_USB_Host_Library/Core/Src/usbh_core.c ****         }
 299              		.loc 1 877 11 view .LVU93
 877:Middlewares/ST/STM32_USB_Host_Library/Core/Src/usbh_core.c ****         }
 300              		.loc 1 877 25 is_stmt 0 view .LVU94
 301 0082 0D23     		movs	r3, #13
 302 0084 2370     		strb	r3, [r4]
 845:Middlewares/ST/STM32_USB_Host_Library/Core/Src/usbh_core.c ****   USBH_StatusTypeDef ReqStatus = USBH_BUSY;
 303              		.loc 1 845 22 view .LVU95
 304 0086 0125     		movs	r5, #1
 305 0088 DDE0     		b	.L14
 306              	.L25:
 882:Middlewares/ST/STM32_USB_Host_Library/Core/Src/usbh_core.c ****           (void)USBH_FreePipe(phost, phost->Control.pipe_in);
 307              		.loc 1 882 11 is_stmt 1 view .LVU96
 882:Middlewares/ST/STM32_USB_Host_Library/Core/Src/usbh_core.c ****           (void)USBH_FreePipe(phost, phost->Control.pipe_in);
 308              		.loc 1 882 17 is_stmt 0 view .LVU97
 309 008a 6179     		ldrb	r1, [r4, #5]	@ zero_extendqisi2
 310 008c 2046     		mov	r0, r4
 311              	.LVL20:
 882:Middlewares/ST/STM32_USB_Host_Library/Core/Src/usbh_core.c ****           (void)USBH_FreePipe(phost, phost->Control.pipe_in);
 312              		.loc 1 882 17 view .LVU98
 313 008e FFF7FEFF 		bl	USBH_FreePipe
 314              	.LVL21:
 883:Middlewares/ST/STM32_USB_Host_Library/Core/Src/usbh_core.c **** 
 315              		.loc 1 883 11 is_stmt 1 view .LVU99
 883:Middlewares/ST/STM32_USB_Host_Library/Core/Src/usbh_core.c **** 
 316              		.loc 1 883 17 is_stmt 0 view .LVU100
 317 0092 2179     		ldrb	r1, [r4, #4]	@ zero_extendqisi2
 318 0094 2046     		mov	r0, r4
 319 0096 FFF7FEFF 		bl	USBH_FreePipe
 320              	.LVL22:
 886:Middlewares/ST/STM32_USB_Host_Library/Core/Src/usbh_core.c ****         }
 321              		.loc 1 886 11 is_stmt 1 view .LVU101
 886:Middlewares/ST/STM32_USB_Host_Library/Core/Src/usbh_core.c ****         }
 322              		.loc 1 886 25 is_stmt 0 view .LVU102
 323 009a 0023     		movs	r3, #0
 324 009c 2370     		strb	r3, [r4]
 845:Middlewares/ST/STM32_USB_Host_Library/Core/Src/usbh_core.c ****   USBH_StatusTypeDef ReqStatus = USBH_BUSY;
 325              		.loc 1 845 22 view .LVU103
 326 009e 0125     		movs	r5, #1
 327 00a0 D1E0     		b	.L14
 328              	.LVL23:
 329              	.L22:
 897:Middlewares/ST/STM32_USB_Host_Library/Core/Src/usbh_core.c ****       if (ReqStatus == USBH_OK)
 330              		.loc 1 897 7 is_stmt 1 view .LVU104
 897:Middlewares/ST/STM32_USB_Host_Library/Core/Src/usbh_core.c ****       if (ReqStatus == USBH_OK)
ARM GAS  /tmp/ccBJZy1z.s 			page 29


 331              		.loc 1 897 19 is_stmt 0 view .LVU105
 332 00a2 1221     		movs	r1, #18
 333 00a4 FFF7FEFF 		bl	USBH_Get_DevDesc
 334              	.LVL24:
 898:Middlewares/ST/STM32_USB_Host_Library/Core/Src/usbh_core.c ****       {
 335              		.loc 1 898 7 is_stmt 1 view .LVU106
 898:Middlewares/ST/STM32_USB_Host_Library/Core/Src/usbh_core.c ****       {
 336              		.loc 1 898 10 is_stmt 0 view .LVU107
 337 00a8 10B9     		cbnz	r0, .L26
 900:Middlewares/ST/STM32_USB_Host_Library/Core/Src/usbh_core.c ****         USBH_UsrLog("VID: %xh", phost->device.DevDesc.idVendor);
 338              		.loc 1 900 9 is_stmt 1 view .LVU108
 900:Middlewares/ST/STM32_USB_Host_Library/Core/Src/usbh_core.c ****         USBH_UsrLog("VID: %xh", phost->device.DevDesc.idVendor);
 339              		.loc 1 900 9 view .LVU109
 900:Middlewares/ST/STM32_USB_Host_Library/Core/Src/usbh_core.c ****         USBH_UsrLog("VID: %xh", phost->device.DevDesc.idVendor);
 340              		.loc 1 900 9 view .LVU110
 901:Middlewares/ST/STM32_USB_Host_Library/Core/Src/usbh_core.c **** 
 341              		.loc 1 901 9 view .LVU111
 901:Middlewares/ST/STM32_USB_Host_Library/Core/Src/usbh_core.c **** 
 342              		.loc 1 901 9 view .LVU112
 901:Middlewares/ST/STM32_USB_Host_Library/Core/Src/usbh_core.c **** 
 343              		.loc 1 901 9 view .LVU113
 903:Middlewares/ST/STM32_USB_Host_Library/Core/Src/usbh_core.c ****       }
 344              		.loc 1 903 9 view .LVU114
 903:Middlewares/ST/STM32_USB_Host_Library/Core/Src/usbh_core.c ****       }
 345              		.loc 1 903 26 is_stmt 0 view .LVU115
 346 00aa 0223     		movs	r3, #2
 347 00ac 6370     		strb	r3, [r4, #1]
 348 00ae CAE0     		b	.L14
 349              	.L26:
 905:Middlewares/ST/STM32_USB_Host_Library/Core/Src/usbh_core.c ****       {
 350              		.loc 1 905 12 is_stmt 1 view .LVU116
 905:Middlewares/ST/STM32_USB_Host_Library/Core/Src/usbh_core.c ****       {
 351              		.loc 1 905 15 is_stmt 0 view .LVU117
 352 00b0 0328     		cmp	r0, #3
 353 00b2 40F0C880 		bne	.L14
 907:Middlewares/ST/STM32_USB_Host_Library/Core/Src/usbh_core.c ****         phost->device.EnumCnt++;
 354              		.loc 1 907 9 is_stmt 1 view .LVU118
 907:Middlewares/ST/STM32_USB_Host_Library/Core/Src/usbh_core.c ****         phost->device.EnumCnt++;
 355              		.loc 1 907 9 view .LVU119
 907:Middlewares/ST/STM32_USB_Host_Library/Core/Src/usbh_core.c ****         phost->device.EnumCnt++;
 356              		.loc 1 907 9 view .LVU120
 908:Middlewares/ST/STM32_USB_Host_Library/Core/Src/usbh_core.c ****         if (phost->device.EnumCnt > 3U)
 357              		.loc 1 908 9 view .LVU121
 908:Middlewares/ST/STM32_USB_Host_Library/Core/Src/usbh_core.c ****         if (phost->device.EnumCnt > 3U)
 358              		.loc 1 908 22 is_stmt 0 view .LVU122
 359 00b6 94F81E33 		ldrb	r3, [r4, #798]	@ zero_extendqisi2
 908:Middlewares/ST/STM32_USB_Host_Library/Core/Src/usbh_core.c ****         if (phost->device.EnumCnt > 3U)
 360              		.loc 1 908 30 view .LVU123
 361 00ba 0133     		adds	r3, r3, #1
 362 00bc DBB2     		uxtb	r3, r3
 363 00be 84F81E33 		strb	r3, [r4, #798]
 909:Middlewares/ST/STM32_USB_Host_Library/Core/Src/usbh_core.c ****         {
 364              		.loc 1 909 9 is_stmt 1 view .LVU124
 909:Middlewares/ST/STM32_USB_Host_Library/Core/Src/usbh_core.c ****         {
 365              		.loc 1 909 12 is_stmt 0 view .LVU125
 366 00c2 032B     		cmp	r3, #3
 367 00c4 02D9     		bls	.L27
ARM GAS  /tmp/ccBJZy1z.s 			page 30


 912:Middlewares/ST/STM32_USB_Host_Library/Core/Src/usbh_core.c ****           phost->gState = HOST_ABORT_STATE;
 368              		.loc 1 912 11 is_stmt 1 view .LVU126
 912:Middlewares/ST/STM32_USB_Host_Library/Core/Src/usbh_core.c ****           phost->gState = HOST_ABORT_STATE;
 369              		.loc 1 912 11 view .LVU127
 912:Middlewares/ST/STM32_USB_Host_Library/Core/Src/usbh_core.c ****           phost->gState = HOST_ABORT_STATE;
 370              		.loc 1 912 11 view .LVU128
 913:Middlewares/ST/STM32_USB_Host_Library/Core/Src/usbh_core.c ****         }
 371              		.loc 1 913 11 view .LVU129
 913:Middlewares/ST/STM32_USB_Host_Library/Core/Src/usbh_core.c ****         }
 372              		.loc 1 913 25 is_stmt 0 view .LVU130
 373 00c6 0D23     		movs	r3, #13
 374 00c8 2370     		strb	r3, [r4]
 375 00ca BCE0     		b	.L14
 376              	.L27:
 918:Middlewares/ST/STM32_USB_Host_Library/Core/Src/usbh_core.c ****           (void)USBH_FreePipe(phost, phost->Control.pipe_in);
 377              		.loc 1 918 11 is_stmt 1 view .LVU131
 918:Middlewares/ST/STM32_USB_Host_Library/Core/Src/usbh_core.c ****           (void)USBH_FreePipe(phost, phost->Control.pipe_in);
 378              		.loc 1 918 17 is_stmt 0 view .LVU132
 379 00cc 6179     		ldrb	r1, [r4, #5]	@ zero_extendqisi2
 380 00ce 2046     		mov	r0, r4
 381              	.LVL25:
 918:Middlewares/ST/STM32_USB_Host_Library/Core/Src/usbh_core.c ****           (void)USBH_FreePipe(phost, phost->Control.pipe_in);
 382              		.loc 1 918 17 view .LVU133
 383 00d0 FFF7FEFF 		bl	USBH_FreePipe
 384              	.LVL26:
 919:Middlewares/ST/STM32_USB_Host_Library/Core/Src/usbh_core.c **** 
 385              		.loc 1 919 11 is_stmt 1 view .LVU134
 919:Middlewares/ST/STM32_USB_Host_Library/Core/Src/usbh_core.c **** 
 386              		.loc 1 919 17 is_stmt 0 view .LVU135
 387 00d4 2179     		ldrb	r1, [r4, #4]	@ zero_extendqisi2
 388 00d6 2046     		mov	r0, r4
 389 00d8 FFF7FEFF 		bl	USBH_FreePipe
 390              	.LVL27:
 922:Middlewares/ST/STM32_USB_Host_Library/Core/Src/usbh_core.c ****           phost->gState = HOST_IDLE;
 391              		.loc 1 922 11 is_stmt 1 view .LVU136
 922:Middlewares/ST/STM32_USB_Host_Library/Core/Src/usbh_core.c ****           phost->gState = HOST_IDLE;
 392              		.loc 1 922 28 is_stmt 0 view .LVU137
 393 00dc 0023     		movs	r3, #0
 394 00de 6370     		strb	r3, [r4, #1]
 923:Middlewares/ST/STM32_USB_Host_Library/Core/Src/usbh_core.c ****         }
 395              		.loc 1 923 11 is_stmt 1 view .LVU138
 923:Middlewares/ST/STM32_USB_Host_Library/Core/Src/usbh_core.c ****         }
 396              		.loc 1 923 25 is_stmt 0 view .LVU139
 397 00e0 2370     		strb	r3, [r4]
 398 00e2 B0E0     		b	.L14
 399              	.LVL28:
 400              	.L21:
 934:Middlewares/ST/STM32_USB_Host_Library/Core/Src/usbh_core.c ****       if (ReqStatus == USBH_OK)
 401              		.loc 1 934 7 is_stmt 1 view .LVU140
 934:Middlewares/ST/STM32_USB_Host_Library/Core/Src/usbh_core.c ****       if (ReqStatus == USBH_OK)
 402              		.loc 1 934 19 is_stmt 0 view .LVU141
 403 00e4 0121     		movs	r1, #1
 404 00e6 FFF7FEFF 		bl	USBH_SetAddress
 405              	.LVL29:
 935:Middlewares/ST/STM32_USB_Host_Library/Core/Src/usbh_core.c ****       {
 406              		.loc 1 935 7 is_stmt 1 view .LVU142
 935:Middlewares/ST/STM32_USB_Host_Library/Core/Src/usbh_core.c ****       {
ARM GAS  /tmp/ccBJZy1z.s 			page 31


 407              		.loc 1 935 10 is_stmt 0 view .LVU143
 408 00ea 18B1     		cbz	r0, .L48
 954:Middlewares/ST/STM32_USB_Host_Library/Core/Src/usbh_core.c ****       {
 409              		.loc 1 954 12 is_stmt 1 view .LVU144
 954:Middlewares/ST/STM32_USB_Host_Library/Core/Src/usbh_core.c ****       {
 410              		.loc 1 954 15 is_stmt 0 view .LVU145
 411 00ec 0328     		cmp	r0, #3
 412 00ee 24D0     		beq	.L49
 845:Middlewares/ST/STM32_USB_Host_Library/Core/Src/usbh_core.c ****   USBH_StatusTypeDef ReqStatus = USBH_BUSY;
 413              		.loc 1 845 22 view .LVU146
 414 00f0 0125     		movs	r5, #1
 415 00f2 A8E0     		b	.L14
 416              	.L48:
 937:Middlewares/ST/STM32_USB_Host_Library/Core/Src/usbh_core.c ****         phost->device.address = USBH_DEVICE_ADDRESS;
 417              		.loc 1 937 9 is_stmt 1 view .LVU147
 418 00f4 0220     		movs	r0, #2
 419              	.LVL30:
 937:Middlewares/ST/STM32_USB_Host_Library/Core/Src/usbh_core.c ****         phost->device.address = USBH_DEVICE_ADDRESS;
 420              		.loc 1 937 9 is_stmt 0 view .LVU148
 421 00f6 FFF7FEFF 		bl	USBH_Delay
 422              	.LVL31:
 938:Middlewares/ST/STM32_USB_Host_Library/Core/Src/usbh_core.c **** 
 423              		.loc 1 938 9 is_stmt 1 view .LVU149
 938:Middlewares/ST/STM32_USB_Host_Library/Core/Src/usbh_core.c **** 
 424              		.loc 1 938 31 is_stmt 0 view .LVU150
 425 00fa 0125     		movs	r5, #1
 426 00fc 84F81C53 		strb	r5, [r4, #796]
 941:Middlewares/ST/STM32_USB_Host_Library/Core/Src/usbh_core.c ****         phost->EnumState = ENUM_GET_CFG_DESC;
 427              		.loc 1 941 9 is_stmt 1 view .LVU151
 941:Middlewares/ST/STM32_USB_Host_Library/Core/Src/usbh_core.c ****         phost->EnumState = ENUM_GET_CFG_DESC;
 428              		.loc 1 941 9 view .LVU152
 941:Middlewares/ST/STM32_USB_Host_Library/Core/Src/usbh_core.c ****         phost->EnumState = ENUM_GET_CFG_DESC;
 429              		.loc 1 941 9 view .LVU153
 942:Middlewares/ST/STM32_USB_Host_Library/Core/Src/usbh_core.c **** 
 430              		.loc 1 942 9 view .LVU154
 942:Middlewares/ST/STM32_USB_Host_Library/Core/Src/usbh_core.c **** 
 431              		.loc 1 942 26 is_stmt 0 view .LVU155
 432 0100 0323     		movs	r3, #3
 433 0102 6370     		strb	r3, [r4, #1]
 945:Middlewares/ST/STM32_USB_Host_Library/Core/Src/usbh_core.c ****                             phost->device.speed, USBH_EP_CONTROL,
 434              		.loc 1 945 9 is_stmt 1 view .LVU156
 945:Middlewares/ST/STM32_USB_Host_Library/Core/Src/usbh_core.c ****                             phost->device.speed, USBH_EP_CONTROL,
 435              		.loc 1 945 15 is_stmt 0 view .LVU157
 436 0104 A379     		ldrb	r3, [r4, #6]	@ zero_extendqisi2
 437 0106 0293     		str	r3, [sp, #8]
 438 0108 0026     		movs	r6, #0
 439 010a 0196     		str	r6, [sp, #4]
 440 010c 94F81D33 		ldrb	r3, [r4, #797]	@ zero_extendqisi2
 441 0110 0093     		str	r3, [sp]
 442 0112 2B46     		mov	r3, r5
 443 0114 8022     		movs	r2, #128
 444 0116 2179     		ldrb	r1, [r4, #4]	@ zero_extendqisi2
 445 0118 2046     		mov	r0, r4
 446 011a FFF7FEFF 		bl	USBH_OpenPipe
 447              	.LVL32:
 950:Middlewares/ST/STM32_USB_Host_Library/Core/Src/usbh_core.c ****                             phost->device.speed, USBH_EP_CONTROL,
 448              		.loc 1 950 9 is_stmt 1 view .LVU158
ARM GAS  /tmp/ccBJZy1z.s 			page 32


 950:Middlewares/ST/STM32_USB_Host_Library/Core/Src/usbh_core.c ****                             phost->device.speed, USBH_EP_CONTROL,
 449              		.loc 1 950 15 is_stmt 0 view .LVU159
 450 011e A379     		ldrb	r3, [r4, #6]	@ zero_extendqisi2
 451 0120 0293     		str	r3, [sp, #8]
 452 0122 0196     		str	r6, [sp, #4]
 453 0124 94F81D33 		ldrb	r3, [r4, #797]	@ zero_extendqisi2
 454 0128 0093     		str	r3, [sp]
 455 012a 94F81C33 		ldrb	r3, [r4, #796]	@ zero_extendqisi2
 456 012e 3246     		mov	r2, r6
 457 0130 6179     		ldrb	r1, [r4, #5]	@ zero_extendqisi2
 458 0132 2046     		mov	r0, r4
 459 0134 FFF7FEFF 		bl	USBH_OpenPipe
 460              	.LVL33:
 461 0138 85E0     		b	.L14
 462              	.LVL34:
 463              	.L49:
 956:Middlewares/ST/STM32_USB_Host_Library/Core/Src/usbh_core.c **** 
 464              		.loc 1 956 9 is_stmt 1 view .LVU160
 956:Middlewares/ST/STM32_USB_Host_Library/Core/Src/usbh_core.c **** 
 465              		.loc 1 956 9 view .LVU161
 956:Middlewares/ST/STM32_USB_Host_Library/Core/Src/usbh_core.c **** 
 466              		.loc 1 956 9 view .LVU162
 959:Middlewares/ST/STM32_USB_Host_Library/Core/Src/usbh_core.c ****         phost->gState = HOST_ABORT_STATE;
 467              		.loc 1 959 9 view .LVU163
 959:Middlewares/ST/STM32_USB_Host_Library/Core/Src/usbh_core.c ****         phost->gState = HOST_ABORT_STATE;
 468              		.loc 1 959 9 view .LVU164
 959:Middlewares/ST/STM32_USB_Host_Library/Core/Src/usbh_core.c ****         phost->gState = HOST_ABORT_STATE;
 469              		.loc 1 959 9 view .LVU165
 960:Middlewares/ST/STM32_USB_Host_Library/Core/Src/usbh_core.c ****         phost->EnumState = ENUM_IDLE;
 470              		.loc 1 960 9 view .LVU166
 960:Middlewares/ST/STM32_USB_Host_Library/Core/Src/usbh_core.c ****         phost->EnumState = ENUM_IDLE;
 471              		.loc 1 960 23 is_stmt 0 view .LVU167
 472 013a 0D23     		movs	r3, #13
 473 013c 2370     		strb	r3, [r4]
 961:Middlewares/ST/STM32_USB_Host_Library/Core/Src/usbh_core.c ****       }
 474              		.loc 1 961 9 is_stmt 1 view .LVU168
 961:Middlewares/ST/STM32_USB_Host_Library/Core/Src/usbh_core.c ****       }
 475              		.loc 1 961 26 is_stmt 0 view .LVU169
 476 013e 0023     		movs	r3, #0
 477 0140 6370     		strb	r3, [r4, #1]
 845:Middlewares/ST/STM32_USB_Host_Library/Core/Src/usbh_core.c ****   USBH_StatusTypeDef ReqStatus = USBH_BUSY;
 478              		.loc 1 845 22 view .LVU170
 479 0142 0125     		movs	r5, #1
 480 0144 7FE0     		b	.L14
 481              	.LVL35:
 482              	.L20:
 971:Middlewares/ST/STM32_USB_Host_Library/Core/Src/usbh_core.c ****       if (ReqStatus == USBH_OK)
 483              		.loc 1 971 7 is_stmt 1 view .LVU171
 971:Middlewares/ST/STM32_USB_Host_Library/Core/Src/usbh_core.c ****       if (ReqStatus == USBH_OK)
 484              		.loc 1 971 19 is_stmt 0 view .LVU172
 485 0146 0921     		movs	r1, #9
 486 0148 FFF7FEFF 		bl	USBH_Get_CfgDesc
 487              	.LVL36:
 972:Middlewares/ST/STM32_USB_Host_Library/Core/Src/usbh_core.c ****       {
 488              		.loc 1 972 7 is_stmt 1 view .LVU173
 972:Middlewares/ST/STM32_USB_Host_Library/Core/Src/usbh_core.c ****       {
 489              		.loc 1 972 10 is_stmt 0 view .LVU174
ARM GAS  /tmp/ccBJZy1z.s 			page 33


 490 014c 18B9     		cbnz	r0, .L29
 974:Middlewares/ST/STM32_USB_Host_Library/Core/Src/usbh_core.c ****       }
 491              		.loc 1 974 9 is_stmt 1 view .LVU175
 974:Middlewares/ST/STM32_USB_Host_Library/Core/Src/usbh_core.c ****       }
 492              		.loc 1 974 26 is_stmt 0 view .LVU176
 493 014e 0423     		movs	r3, #4
 494 0150 6370     		strb	r3, [r4, #1]
 845:Middlewares/ST/STM32_USB_Host_Library/Core/Src/usbh_core.c ****   USBH_StatusTypeDef ReqStatus = USBH_BUSY;
 495              		.loc 1 845 22 view .LVU177
 496 0152 0125     		movs	r5, #1
 497 0154 77E0     		b	.L14
 498              	.L29:
 976:Middlewares/ST/STM32_USB_Host_Library/Core/Src/usbh_core.c ****       {
 499              		.loc 1 976 12 is_stmt 1 view .LVU178
 976:Middlewares/ST/STM32_USB_Host_Library/Core/Src/usbh_core.c ****       {
 500              		.loc 1 976 15 is_stmt 0 view .LVU179
 501 0156 0328     		cmp	r0, #3
 502 0158 01D0     		beq	.L50
 845:Middlewares/ST/STM32_USB_Host_Library/Core/Src/usbh_core.c ****   USBH_StatusTypeDef ReqStatus = USBH_BUSY;
 503              		.loc 1 845 22 view .LVU180
 504 015a 0125     		movs	r5, #1
 505 015c 73E0     		b	.L14
 506              	.L50:
 978:Middlewares/ST/STM32_USB_Host_Library/Core/Src/usbh_core.c ****         phost->device.EnumCnt++;
 507              		.loc 1 978 9 is_stmt 1 view .LVU181
 978:Middlewares/ST/STM32_USB_Host_Library/Core/Src/usbh_core.c ****         phost->device.EnumCnt++;
 508              		.loc 1 978 9 view .LVU182
 978:Middlewares/ST/STM32_USB_Host_Library/Core/Src/usbh_core.c ****         phost->device.EnumCnt++;
 509              		.loc 1 978 9 view .LVU183
 979:Middlewares/ST/STM32_USB_Host_Library/Core/Src/usbh_core.c ****         if (phost->device.EnumCnt > 3U)
 510              		.loc 1 979 9 view .LVU184
 979:Middlewares/ST/STM32_USB_Host_Library/Core/Src/usbh_core.c ****         if (phost->device.EnumCnt > 3U)
 511              		.loc 1 979 22 is_stmt 0 view .LVU185
 512 015e 94F81E33 		ldrb	r3, [r4, #798]	@ zero_extendqisi2
 979:Middlewares/ST/STM32_USB_Host_Library/Core/Src/usbh_core.c ****         if (phost->device.EnumCnt > 3U)
 513              		.loc 1 979 30 view .LVU186
 514 0162 0133     		adds	r3, r3, #1
 515 0164 DBB2     		uxtb	r3, r3
 516 0166 84F81E33 		strb	r3, [r4, #798]
 980:Middlewares/ST/STM32_USB_Host_Library/Core/Src/usbh_core.c ****         {
 517              		.loc 1 980 9 is_stmt 1 view .LVU187
 980:Middlewares/ST/STM32_USB_Host_Library/Core/Src/usbh_core.c ****         {
 518              		.loc 1 980 12 is_stmt 0 view .LVU188
 519 016a 032B     		cmp	r3, #3
 520 016c 03D9     		bls	.L30
 983:Middlewares/ST/STM32_USB_Host_Library/Core/Src/usbh_core.c ****           phost->gState = HOST_ABORT_STATE;
 521              		.loc 1 983 11 is_stmt 1 view .LVU189
 983:Middlewares/ST/STM32_USB_Host_Library/Core/Src/usbh_core.c ****           phost->gState = HOST_ABORT_STATE;
 522              		.loc 1 983 11 view .LVU190
 983:Middlewares/ST/STM32_USB_Host_Library/Core/Src/usbh_core.c ****           phost->gState = HOST_ABORT_STATE;
 523              		.loc 1 983 11 view .LVU191
 984:Middlewares/ST/STM32_USB_Host_Library/Core/Src/usbh_core.c ****         }
 524              		.loc 1 984 11 view .LVU192
 984:Middlewares/ST/STM32_USB_Host_Library/Core/Src/usbh_core.c ****         }
 525              		.loc 1 984 25 is_stmt 0 view .LVU193
 526 016e 0D23     		movs	r3, #13
 527 0170 2370     		strb	r3, [r4]
ARM GAS  /tmp/ccBJZy1z.s 			page 34


 845:Middlewares/ST/STM32_USB_Host_Library/Core/Src/usbh_core.c ****   USBH_StatusTypeDef ReqStatus = USBH_BUSY;
 528              		.loc 1 845 22 view .LVU194
 529 0172 0125     		movs	r5, #1
 530 0174 67E0     		b	.L14
 531              	.L30:
 989:Middlewares/ST/STM32_USB_Host_Library/Core/Src/usbh_core.c ****           (void)USBH_FreePipe(phost, phost->Control.pipe_in);
 532              		.loc 1 989 11 is_stmt 1 view .LVU195
 989:Middlewares/ST/STM32_USB_Host_Library/Core/Src/usbh_core.c ****           (void)USBH_FreePipe(phost, phost->Control.pipe_in);
 533              		.loc 1 989 17 is_stmt 0 view .LVU196
 534 0176 6179     		ldrb	r1, [r4, #5]	@ zero_extendqisi2
 535 0178 2046     		mov	r0, r4
 536              	.LVL37:
 989:Middlewares/ST/STM32_USB_Host_Library/Core/Src/usbh_core.c ****           (void)USBH_FreePipe(phost, phost->Control.pipe_in);
 537              		.loc 1 989 17 view .LVU197
 538 017a FFF7FEFF 		bl	USBH_FreePipe
 539              	.LVL38:
 990:Middlewares/ST/STM32_USB_Host_Library/Core/Src/usbh_core.c **** 
 540              		.loc 1 990 11 is_stmt 1 view .LVU198
 990:Middlewares/ST/STM32_USB_Host_Library/Core/Src/usbh_core.c **** 
 541              		.loc 1 990 17 is_stmt 0 view .LVU199
 542 017e 2179     		ldrb	r1, [r4, #4]	@ zero_extendqisi2
 543 0180 2046     		mov	r0, r4
 544 0182 FFF7FEFF 		bl	USBH_FreePipe
 545              	.LVL39:
 993:Middlewares/ST/STM32_USB_Host_Library/Core/Src/usbh_core.c ****           phost->gState = HOST_IDLE;
 546              		.loc 1 993 11 is_stmt 1 view .LVU200
 993:Middlewares/ST/STM32_USB_Host_Library/Core/Src/usbh_core.c ****           phost->gState = HOST_IDLE;
 547              		.loc 1 993 28 is_stmt 0 view .LVU201
 548 0186 0023     		movs	r3, #0
 549 0188 6370     		strb	r3, [r4, #1]
 994:Middlewares/ST/STM32_USB_Host_Library/Core/Src/usbh_core.c ****         }
 550              		.loc 1 994 11 is_stmt 1 view .LVU202
 994:Middlewares/ST/STM32_USB_Host_Library/Core/Src/usbh_core.c ****         }
 551              		.loc 1 994 25 is_stmt 0 view .LVU203
 552 018a 2370     		strb	r3, [r4]
 845:Middlewares/ST/STM32_USB_Host_Library/Core/Src/usbh_core.c ****   USBH_StatusTypeDef ReqStatus = USBH_BUSY;
 553              		.loc 1 845 22 view .LVU204
 554 018c 0125     		movs	r5, #1
 555 018e 5AE0     		b	.L14
 556              	.LVL40:
 557              	.L19:
1005:Middlewares/ST/STM32_USB_Host_Library/Core/Src/usbh_core.c ****       if (ReqStatus == USBH_OK)
 558              		.loc 1 1005 7 is_stmt 1 view .LVU205
1005:Middlewares/ST/STM32_USB_Host_Library/Core/Src/usbh_core.c ****       if (ReqStatus == USBH_OK)
 559              		.loc 1 1005 19 is_stmt 0 view .LVU206
 560 0190 B0F83A13 		ldrh	r1, [r0, #826]
 561 0194 FFF7FEFF 		bl	USBH_Get_CfgDesc
 562              	.LVL41:
1006:Middlewares/ST/STM32_USB_Host_Library/Core/Src/usbh_core.c ****       {
 563              		.loc 1 1006 7 is_stmt 1 view .LVU207
1006:Middlewares/ST/STM32_USB_Host_Library/Core/Src/usbh_core.c ****       {
 564              		.loc 1 1006 10 is_stmt 0 view .LVU208
 565 0198 18B9     		cbnz	r0, .L31
1008:Middlewares/ST/STM32_USB_Host_Library/Core/Src/usbh_core.c ****       }
 566              		.loc 1 1008 9 is_stmt 1 view .LVU209
1008:Middlewares/ST/STM32_USB_Host_Library/Core/Src/usbh_core.c ****       }
 567              		.loc 1 1008 26 is_stmt 0 view .LVU210
ARM GAS  /tmp/ccBJZy1z.s 			page 35


 568 019a 0523     		movs	r3, #5
 569 019c 6370     		strb	r3, [r4, #1]
 845:Middlewares/ST/STM32_USB_Host_Library/Core/Src/usbh_core.c ****   USBH_StatusTypeDef ReqStatus = USBH_BUSY;
 570              		.loc 1 845 22 view .LVU211
 571 019e 0125     		movs	r5, #1
 572 01a0 51E0     		b	.L14
 573              	.L31:
1010:Middlewares/ST/STM32_USB_Host_Library/Core/Src/usbh_core.c ****       {
 574              		.loc 1 1010 12 is_stmt 1 view .LVU212
1010:Middlewares/ST/STM32_USB_Host_Library/Core/Src/usbh_core.c ****       {
 575              		.loc 1 1010 15 is_stmt 0 view .LVU213
 576 01a2 0328     		cmp	r0, #3
 577 01a4 01D0     		beq	.L51
 845:Middlewares/ST/STM32_USB_Host_Library/Core/Src/usbh_core.c ****   USBH_StatusTypeDef ReqStatus = USBH_BUSY;
 578              		.loc 1 845 22 view .LVU214
 579 01a6 0125     		movs	r5, #1
 580 01a8 4DE0     		b	.L14
 581              	.L51:
1012:Middlewares/ST/STM32_USB_Host_Library/Core/Src/usbh_core.c ****         phost->device.EnumCnt++;
 582              		.loc 1 1012 9 is_stmt 1 view .LVU215
1012:Middlewares/ST/STM32_USB_Host_Library/Core/Src/usbh_core.c ****         phost->device.EnumCnt++;
 583              		.loc 1 1012 9 view .LVU216
1012:Middlewares/ST/STM32_USB_Host_Library/Core/Src/usbh_core.c ****         phost->device.EnumCnt++;
 584              		.loc 1 1012 9 view .LVU217
1013:Middlewares/ST/STM32_USB_Host_Library/Core/Src/usbh_core.c ****         if (phost->device.EnumCnt > 3U)
 585              		.loc 1 1013 9 view .LVU218
1013:Middlewares/ST/STM32_USB_Host_Library/Core/Src/usbh_core.c ****         if (phost->device.EnumCnt > 3U)
 586              		.loc 1 1013 22 is_stmt 0 view .LVU219
 587 01aa 94F81E33 		ldrb	r3, [r4, #798]	@ zero_extendqisi2
1013:Middlewares/ST/STM32_USB_Host_Library/Core/Src/usbh_core.c ****         if (phost->device.EnumCnt > 3U)
 588              		.loc 1 1013 30 view .LVU220
 589 01ae 0133     		adds	r3, r3, #1
 590 01b0 DBB2     		uxtb	r3, r3
 591 01b2 84F81E33 		strb	r3, [r4, #798]
1014:Middlewares/ST/STM32_USB_Host_Library/Core/Src/usbh_core.c ****         {
 592              		.loc 1 1014 9 is_stmt 1 view .LVU221
1014:Middlewares/ST/STM32_USB_Host_Library/Core/Src/usbh_core.c ****         {
 593              		.loc 1 1014 12 is_stmt 0 view .LVU222
 594 01b6 032B     		cmp	r3, #3
 595 01b8 03D9     		bls	.L32
1017:Middlewares/ST/STM32_USB_Host_Library/Core/Src/usbh_core.c ****           phost->gState = HOST_ABORT_STATE;
 596              		.loc 1 1017 11 is_stmt 1 view .LVU223
1017:Middlewares/ST/STM32_USB_Host_Library/Core/Src/usbh_core.c ****           phost->gState = HOST_ABORT_STATE;
 597              		.loc 1 1017 11 view .LVU224
1017:Middlewares/ST/STM32_USB_Host_Library/Core/Src/usbh_core.c ****           phost->gState = HOST_ABORT_STATE;
 598              		.loc 1 1017 11 view .LVU225
1018:Middlewares/ST/STM32_USB_Host_Library/Core/Src/usbh_core.c ****         }
 599              		.loc 1 1018 11 view .LVU226
1018:Middlewares/ST/STM32_USB_Host_Library/Core/Src/usbh_core.c ****         }
 600              		.loc 1 1018 25 is_stmt 0 view .LVU227
 601 01ba 0D23     		movs	r3, #13
 602 01bc 2370     		strb	r3, [r4]
 845:Middlewares/ST/STM32_USB_Host_Library/Core/Src/usbh_core.c ****   USBH_StatusTypeDef ReqStatus = USBH_BUSY;
 603              		.loc 1 845 22 view .LVU228
 604 01be 0125     		movs	r5, #1
 605 01c0 41E0     		b	.L14
 606              	.L32:
ARM GAS  /tmp/ccBJZy1z.s 			page 36


1023:Middlewares/ST/STM32_USB_Host_Library/Core/Src/usbh_core.c ****           (void)USBH_FreePipe(phost, phost->Control.pipe_in);
 607              		.loc 1 1023 11 is_stmt 1 view .LVU229
1023:Middlewares/ST/STM32_USB_Host_Library/Core/Src/usbh_core.c ****           (void)USBH_FreePipe(phost, phost->Control.pipe_in);
 608              		.loc 1 1023 17 is_stmt 0 view .LVU230
 609 01c2 6179     		ldrb	r1, [r4, #5]	@ zero_extendqisi2
 610 01c4 2046     		mov	r0, r4
 611              	.LVL42:
1023:Middlewares/ST/STM32_USB_Host_Library/Core/Src/usbh_core.c ****           (void)USBH_FreePipe(phost, phost->Control.pipe_in);
 612              		.loc 1 1023 17 view .LVU231
 613 01c6 FFF7FEFF 		bl	USBH_FreePipe
 614              	.LVL43:
1024:Middlewares/ST/STM32_USB_Host_Library/Core/Src/usbh_core.c **** 
 615              		.loc 1 1024 11 is_stmt 1 view .LVU232
1024:Middlewares/ST/STM32_USB_Host_Library/Core/Src/usbh_core.c **** 
 616              		.loc 1 1024 17 is_stmt 0 view .LVU233
 617 01ca 2179     		ldrb	r1, [r4, #4]	@ zero_extendqisi2
 618 01cc 2046     		mov	r0, r4
 619 01ce FFF7FEFF 		bl	USBH_FreePipe
 620              	.LVL44:
1027:Middlewares/ST/STM32_USB_Host_Library/Core/Src/usbh_core.c ****           phost->gState = HOST_IDLE;
 621              		.loc 1 1027 11 is_stmt 1 view .LVU234
1027:Middlewares/ST/STM32_USB_Host_Library/Core/Src/usbh_core.c ****           phost->gState = HOST_IDLE;
 622              		.loc 1 1027 28 is_stmt 0 view .LVU235
 623 01d2 0023     		movs	r3, #0
 624 01d4 6370     		strb	r3, [r4, #1]
1028:Middlewares/ST/STM32_USB_Host_Library/Core/Src/usbh_core.c ****         }
 625              		.loc 1 1028 11 is_stmt 1 view .LVU236
1028:Middlewares/ST/STM32_USB_Host_Library/Core/Src/usbh_core.c ****         }
 626              		.loc 1 1028 25 is_stmt 0 view .LVU237
 627 01d6 2370     		strb	r3, [r4]
 845:Middlewares/ST/STM32_USB_Host_Library/Core/Src/usbh_core.c ****   USBH_StatusTypeDef ReqStatus = USBH_BUSY;
 628              		.loc 1 845 22 view .LVU238
 629 01d8 0125     		movs	r5, #1
 630 01da 34E0     		b	.L14
 631              	.LVL45:
 632              	.L18:
1038:Middlewares/ST/STM32_USB_Host_Library/Core/Src/usbh_core.c ****       {
 633              		.loc 1 1038 7 is_stmt 1 view .LVU239
1038:Middlewares/ST/STM32_USB_Host_Library/Core/Src/usbh_core.c ****       {
 634              		.loc 1 1038 32 is_stmt 0 view .LVU240
 635 01dc 90F83413 		ldrb	r1, [r0, #820]	@ zero_extendqisi2
1038:Middlewares/ST/STM32_USB_Host_Library/Core/Src/usbh_core.c ****       {
 636              		.loc 1 1038 10 view .LVU241
 637 01e0 19B9     		cbnz	r1, .L52
1079:Middlewares/ST/STM32_USB_Host_Library/Core/Src/usbh_core.c ****         phost->EnumState = ENUM_GET_PRODUCT_STRING_DESC;
 638              		.loc 1 1079 9 is_stmt 1 view .LVU242
1079:Middlewares/ST/STM32_USB_Host_Library/Core/Src/usbh_core.c ****         phost->EnumState = ENUM_GET_PRODUCT_STRING_DESC;
 639              		.loc 1 1079 9 view .LVU243
1079:Middlewares/ST/STM32_USB_Host_Library/Core/Src/usbh_core.c ****         phost->EnumState = ENUM_GET_PRODUCT_STRING_DESC;
 640              		.loc 1 1079 9 view .LVU244
1080:Middlewares/ST/STM32_USB_Host_Library/Core/Src/usbh_core.c **** 
 641              		.loc 1 1080 9 view .LVU245
1080:Middlewares/ST/STM32_USB_Host_Library/Core/Src/usbh_core.c **** 
 642              		.loc 1 1080 26 is_stmt 0 view .LVU246
 643 01e2 0623     		movs	r3, #6
 644 01e4 4370     		strb	r3, [r0, #1]
 845:Middlewares/ST/STM32_USB_Host_Library/Core/Src/usbh_core.c ****   USBH_StatusTypeDef ReqStatus = USBH_BUSY;
ARM GAS  /tmp/ccBJZy1z.s 			page 37


 645              		.loc 1 845 22 view .LVU247
 646 01e6 0125     		movs	r5, #1
 647 01e8 2DE0     		b	.L14
 648              	.L52:
1041:Middlewares/ST/STM32_USB_Host_Library/Core/Src/usbh_core.c ****                                         phost->device.Data, 0xFFU);
 649              		.loc 1 1041 9 is_stmt 1 view .LVU248
1041:Middlewares/ST/STM32_USB_Host_Library/Core/Src/usbh_core.c ****                                         phost->device.Data, 0xFFU);
 650              		.loc 1 1041 21 is_stmt 0 view .LVU249
 651 01ea FF23     		movs	r3, #255
 652 01ec 00F58E72 		add	r2, r0, #284
 653 01f0 FFF7FEFF 		bl	USBH_Get_StringDesc
 654              	.LVL46:
1043:Middlewares/ST/STM32_USB_Host_Library/Core/Src/usbh_core.c ****         {
 655              		.loc 1 1043 9 is_stmt 1 view .LVU250
1043:Middlewares/ST/STM32_USB_Host_Library/Core/Src/usbh_core.c ****         {
 656              		.loc 1 1043 12 is_stmt 0 view .LVU251
 657 01f4 18B9     		cbnz	r0, .L34
1046:Middlewares/ST/STM32_USB_Host_Library/Core/Src/usbh_core.c ****           phost->EnumState = ENUM_GET_PRODUCT_STRING_DESC;
 658              		.loc 1 1046 11 is_stmt 1 view .LVU252
1046:Middlewares/ST/STM32_USB_Host_Library/Core/Src/usbh_core.c ****           phost->EnumState = ENUM_GET_PRODUCT_STRING_DESC;
 659              		.loc 1 1046 11 view .LVU253
1046:Middlewares/ST/STM32_USB_Host_Library/Core/Src/usbh_core.c ****           phost->EnumState = ENUM_GET_PRODUCT_STRING_DESC;
 660              		.loc 1 1046 11 view .LVU254
1047:Middlewares/ST/STM32_USB_Host_Library/Core/Src/usbh_core.c **** 
 661              		.loc 1 1047 11 view .LVU255
1047:Middlewares/ST/STM32_USB_Host_Library/Core/Src/usbh_core.c **** 
 662              		.loc 1 1047 28 is_stmt 0 view .LVU256
 663 01f6 0623     		movs	r3, #6
 664 01f8 6370     		strb	r3, [r4, #1]
 845:Middlewares/ST/STM32_USB_Host_Library/Core/Src/usbh_core.c ****   USBH_StatusTypeDef ReqStatus = USBH_BUSY;
 665              		.loc 1 845 22 view .LVU257
 666 01fa 0125     		movs	r5, #1
 667 01fc 23E0     		b	.L14
 668              	.L34:
1058:Middlewares/ST/STM32_USB_Host_Library/Core/Src/usbh_core.c ****         {
 669              		.loc 1 1058 14 is_stmt 1 view .LVU258
1058:Middlewares/ST/STM32_USB_Host_Library/Core/Src/usbh_core.c ****         {
 670              		.loc 1 1058 17 is_stmt 0 view .LVU259
 671 01fe 0328     		cmp	r0, #3
 672 0200 01D0     		beq	.L53
 845:Middlewares/ST/STM32_USB_Host_Library/Core/Src/usbh_core.c ****   USBH_StatusTypeDef ReqStatus = USBH_BUSY;
 673              		.loc 1 845 22 view .LVU260
 674 0202 0125     		movs	r5, #1
 675 0204 1FE0     		b	.L14
 676              	.L53:
1060:Middlewares/ST/STM32_USB_Host_Library/Core/Src/usbh_core.c ****           phost->EnumState = ENUM_GET_PRODUCT_STRING_DESC;
 677              		.loc 1 1060 11 is_stmt 1 view .LVU261
1060:Middlewares/ST/STM32_USB_Host_Library/Core/Src/usbh_core.c ****           phost->EnumState = ENUM_GET_PRODUCT_STRING_DESC;
 678              		.loc 1 1060 11 view .LVU262
1060:Middlewares/ST/STM32_USB_Host_Library/Core/Src/usbh_core.c ****           phost->EnumState = ENUM_GET_PRODUCT_STRING_DESC;
 679              		.loc 1 1060 11 view .LVU263
1061:Middlewares/ST/STM32_USB_Host_Library/Core/Src/usbh_core.c **** 
 680              		.loc 1 1061 11 view .LVU264
1061:Middlewares/ST/STM32_USB_Host_Library/Core/Src/usbh_core.c **** 
 681              		.loc 1 1061 28 is_stmt 0 view .LVU265
 682 0206 0623     		movs	r3, #6
 683 0208 6370     		strb	r3, [r4, #1]
ARM GAS  /tmp/ccBJZy1z.s 			page 38


 845:Middlewares/ST/STM32_USB_Host_Library/Core/Src/usbh_core.c ****   USBH_StatusTypeDef ReqStatus = USBH_BUSY;
 684              		.loc 1 845 22 view .LVU266
 685 020a 0125     		movs	r5, #1
 686 020c 1BE0     		b	.L14
 687              	.LVL47:
 688              	.L17:
1094:Middlewares/ST/STM32_USB_Host_Library/Core/Src/usbh_core.c ****       {
 689              		.loc 1 1094 7 is_stmt 1 view .LVU267
1094:Middlewares/ST/STM32_USB_Host_Library/Core/Src/usbh_core.c ****       {
 690              		.loc 1 1094 32 is_stmt 0 view .LVU268
 691 020e 90F83513 		ldrb	r1, [r0, #821]	@ zero_extendqisi2
1094:Middlewares/ST/STM32_USB_Host_Library/Core/Src/usbh_core.c ****       {
 692              		.loc 1 1094 10 view .LVU269
 693 0212 19B9     		cbnz	r1, .L54
1126:Middlewares/ST/STM32_USB_Host_Library/Core/Src/usbh_core.c ****         phost->EnumState = ENUM_GET_SERIALNUM_STRING_DESC;
 694              		.loc 1 1126 9 is_stmt 1 view .LVU270
1126:Middlewares/ST/STM32_USB_Host_Library/Core/Src/usbh_core.c ****         phost->EnumState = ENUM_GET_SERIALNUM_STRING_DESC;
 695              		.loc 1 1126 9 view .LVU271
1126:Middlewares/ST/STM32_USB_Host_Library/Core/Src/usbh_core.c ****         phost->EnumState = ENUM_GET_SERIALNUM_STRING_DESC;
 696              		.loc 1 1126 9 view .LVU272
1127:Middlewares/ST/STM32_USB_Host_Library/Core/Src/usbh_core.c **** 
 697              		.loc 1 1127 9 view .LVU273
1127:Middlewares/ST/STM32_USB_Host_Library/Core/Src/usbh_core.c **** 
 698              		.loc 1 1127 26 is_stmt 0 view .LVU274
 699 0214 0723     		movs	r3, #7
 700 0216 4370     		strb	r3, [r0, #1]
 845:Middlewares/ST/STM32_USB_Host_Library/Core/Src/usbh_core.c ****   USBH_StatusTypeDef ReqStatus = USBH_BUSY;
 701              		.loc 1 845 22 view .LVU275
 702 0218 0125     		movs	r5, #1
 703 021a 14E0     		b	.L14
 704              	.L54:
1097:Middlewares/ST/STM32_USB_Host_Library/Core/Src/usbh_core.c ****                                         phost->device.Data, 0xFFU);
 705              		.loc 1 1097 9 is_stmt 1 view .LVU276
1097:Middlewares/ST/STM32_USB_Host_Library/Core/Src/usbh_core.c ****                                         phost->device.Data, 0xFFU);
 706              		.loc 1 1097 21 is_stmt 0 view .LVU277
 707 021c FF23     		movs	r3, #255
 708 021e 00F58E72 		add	r2, r0, #284
 709 0222 FFF7FEFF 		bl	USBH_Get_StringDesc
 710              	.LVL48:
1099:Middlewares/ST/STM32_USB_Host_Library/Core/Src/usbh_core.c ****         {
 711              		.loc 1 1099 9 is_stmt 1 view .LVU278
1099:Middlewares/ST/STM32_USB_Host_Library/Core/Src/usbh_core.c ****         {
 712              		.loc 1 1099 12 is_stmt 0 view .LVU279
 713 0226 18B9     		cbnz	r0, .L36
1102:Middlewares/ST/STM32_USB_Host_Library/Core/Src/usbh_core.c ****           phost->EnumState = ENUM_GET_SERIALNUM_STRING_DESC;
 714              		.loc 1 1102 11 is_stmt 1 view .LVU280
1102:Middlewares/ST/STM32_USB_Host_Library/Core/Src/usbh_core.c ****           phost->EnumState = ENUM_GET_SERIALNUM_STRING_DESC;
 715              		.loc 1 1102 11 view .LVU281
1102:Middlewares/ST/STM32_USB_Host_Library/Core/Src/usbh_core.c ****           phost->EnumState = ENUM_GET_SERIALNUM_STRING_DESC;
 716              		.loc 1 1102 11 view .LVU282
1103:Middlewares/ST/STM32_USB_Host_Library/Core/Src/usbh_core.c ****         }
 717              		.loc 1 1103 11 view .LVU283
1103:Middlewares/ST/STM32_USB_Host_Library/Core/Src/usbh_core.c ****         }
 718              		.loc 1 1103 28 is_stmt 0 view .LVU284
 719 0228 0723     		movs	r3, #7
 720 022a 6370     		strb	r3, [r4, #1]
 845:Middlewares/ST/STM32_USB_Host_Library/Core/Src/usbh_core.c ****   USBH_StatusTypeDef ReqStatus = USBH_BUSY;
ARM GAS  /tmp/ccBJZy1z.s 			page 39


 721              		.loc 1 845 22 view .LVU285
 722 022c 0125     		movs	r5, #1
 723 022e 0AE0     		b	.L14
 724              	.L36:
1105:Middlewares/ST/STM32_USB_Host_Library/Core/Src/usbh_core.c ****         {
 725              		.loc 1 1105 14 is_stmt 1 view .LVU286
1105:Middlewares/ST/STM32_USB_Host_Library/Core/Src/usbh_core.c ****         {
 726              		.loc 1 1105 17 is_stmt 0 view .LVU287
 727 0230 0328     		cmp	r0, #3
 728 0232 01D0     		beq	.L55
 845:Middlewares/ST/STM32_USB_Host_Library/Core/Src/usbh_core.c ****   USBH_StatusTypeDef ReqStatus = USBH_BUSY;
 729              		.loc 1 845 22 view .LVU288
 730 0234 0125     		movs	r5, #1
 731 0236 06E0     		b	.L14
 732              	.L55:
1107:Middlewares/ST/STM32_USB_Host_Library/Core/Src/usbh_core.c ****           phost->EnumState = ENUM_GET_SERIALNUM_STRING_DESC;
 733              		.loc 1 1107 11 is_stmt 1 view .LVU289
1107:Middlewares/ST/STM32_USB_Host_Library/Core/Src/usbh_core.c ****           phost->EnumState = ENUM_GET_SERIALNUM_STRING_DESC;
 734              		.loc 1 1107 11 view .LVU290
1107:Middlewares/ST/STM32_USB_Host_Library/Core/Src/usbh_core.c ****           phost->EnumState = ENUM_GET_SERIALNUM_STRING_DESC;
 735              		.loc 1 1107 11 view .LVU291
1108:Middlewares/ST/STM32_USB_Host_Library/Core/Src/usbh_core.c **** 
 736              		.loc 1 1108 11 view .LVU292
1108:Middlewares/ST/STM32_USB_Host_Library/Core/Src/usbh_core.c **** 
 737              		.loc 1 1108 28 is_stmt 0 view .LVU293
 738 0238 0723     		movs	r3, #7
 739 023a 6370     		strb	r3, [r4, #1]
 845:Middlewares/ST/STM32_USB_Host_Library/Core/Src/usbh_core.c ****   USBH_StatusTypeDef ReqStatus = USBH_BUSY;
 740              		.loc 1 845 22 view .LVU294
 741 023c 0125     		movs	r5, #1
 742 023e 02E0     		b	.L14
 743              	.LVL49:
 744              	.L15:
1141:Middlewares/ST/STM32_USB_Host_Library/Core/Src/usbh_core.c ****       {
 745              		.loc 1 1141 7 is_stmt 1 view .LVU295
1141:Middlewares/ST/STM32_USB_Host_Library/Core/Src/usbh_core.c ****       {
 746              		.loc 1 1141 32 is_stmt 0 view .LVU296
 747 0240 90F83653 		ldrb	r5, [r0, #822]	@ zero_extendqisi2
1141:Middlewares/ST/STM32_USB_Host_Library/Core/Src/usbh_core.c ****       {
 748              		.loc 1 1141 10 view .LVU297
 749 0244 15B9     		cbnz	r5, .L56
 750              	.LVL50:
 751              	.L14:
1172:Middlewares/ST/STM32_USB_Host_Library/Core/Src/usbh_core.c **** }
 752              		.loc 1 1172 3 is_stmt 1 view .LVU298
1173:Middlewares/ST/STM32_USB_Host_Library/Core/Src/usbh_core.c **** 
 753              		.loc 1 1173 1 is_stmt 0 view .LVU299
 754 0246 2846     		mov	r0, r5
 755 0248 04B0     		add	sp, sp, #16
 756              		.cfi_remember_state
 757              		.cfi_def_cfa_offset 16
 758              		@ sp needed
 759 024a 70BD     		pop	{r4, r5, r6, pc}
 760              	.LVL51:
 761              	.L56:
 762              		.cfi_restore_state
1144:Middlewares/ST/STM32_USB_Host_Library/Core/Src/usbh_core.c ****                                         phost->device.Data, 0xFFU);
ARM GAS  /tmp/ccBJZy1z.s 			page 40


 763              		.loc 1 1144 9 is_stmt 1 view .LVU300
1144:Middlewares/ST/STM32_USB_Host_Library/Core/Src/usbh_core.c ****                                         phost->device.Data, 0xFFU);
 764              		.loc 1 1144 21 is_stmt 0 view .LVU301
 765 024c FF23     		movs	r3, #255
 766 024e 00F58E72 		add	r2, r0, #284
 767 0252 2946     		mov	r1, r5
 768 0254 FFF7FEFF 		bl	USBH_Get_StringDesc
 769              	.LVL52:
1146:Middlewares/ST/STM32_USB_Host_Library/Core/Src/usbh_core.c ****         {
 770              		.loc 1 1146 9 is_stmt 1 view .LVU302
1146:Middlewares/ST/STM32_USB_Host_Library/Core/Src/usbh_core.c ****         {
 771              		.loc 1 1146 12 is_stmt 0 view .LVU303
 772 0258 0546     		mov	r5, r0
 773 025a 0028     		cmp	r0, #0
 774 025c F3D0     		beq	.L14
1152:Middlewares/ST/STM32_USB_Host_Library/Core/Src/usbh_core.c ****         {
 775              		.loc 1 1152 14 is_stmt 1 view .LVU304
1152:Middlewares/ST/STM32_USB_Host_Library/Core/Src/usbh_core.c ****         {
 776              		.loc 1 1152 17 is_stmt 0 view .LVU305
 777 025e 0328     		cmp	r0, #3
 778 0260 03D0     		beq	.L44
 845:Middlewares/ST/STM32_USB_Host_Library/Core/Src/usbh_core.c ****   USBH_StatusTypeDef ReqStatus = USBH_BUSY;
 779              		.loc 1 845 22 view .LVU306
 780 0262 0125     		movs	r5, #1
 781 0264 EFE7     		b	.L14
 782              	.LVL53:
 783              	.L37:
 848:Middlewares/ST/STM32_USB_Host_Library/Core/Src/usbh_core.c ****   {
 784              		.loc 1 848 16 view .LVU307
 785 0266 0125     		movs	r5, #1
 786 0268 EDE7     		b	.L14
 787              	.LVL54:
 788              	.L44:
1155:Middlewares/ST/STM32_USB_Host_Library/Core/Src/usbh_core.c ****         }
 789              		.loc 1 1155 18 view .LVU308
 790 026a 0025     		movs	r5, #0
 791 026c EBE7     		b	.L14
 792              		.cfi_endproc
 793              	.LFE145:
 795              		.section	.text.USBH_Init,"ax",%progbits
 796              		.align	1
 797              		.global	USBH_Init
 798              		.syntax unified
 799              		.thumb
 800              		.thumb_func
 801              		.fpu fpv4-sp-d16
 803              	USBH_Init:
 804              	.LVL55:
 805              	.LFB133:
  99:Middlewares/ST/STM32_USB_Host_Library/Core/Src/usbh_core.c ****   /* Check whether the USB Host handle is valid */
 806              		.loc 1 99 1 is_stmt 1 view -0
 807              		.cfi_startproc
 808              		@ args = 0, pretend = 0, frame = 0
 809              		@ frame_needed = 0, uses_anonymous_args = 0
 101:Middlewares/ST/STM32_USB_Host_Library/Core/Src/usbh_core.c ****   {
 810              		.loc 1 101 3 view .LVU310
 101:Middlewares/ST/STM32_USB_Host_Library/Core/Src/usbh_core.c ****   {
ARM GAS  /tmp/ccBJZy1z.s 			page 41


 811              		.loc 1 101 6 is_stmt 0 view .LVU311
 812 0000 D8B1     		cbz	r0, .L60
  99:Middlewares/ST/STM32_USB_Host_Library/Core/Src/usbh_core.c ****   /* Check whether the USB Host handle is valid */
 813              		.loc 1 99 1 view .LVU312
 814 0002 70B5     		push	{r4, r5, r6, lr}
 815              		.cfi_def_cfa_offset 16
 816              		.cfi_offset 4, -16
 817              		.cfi_offset 5, -12
 818              		.cfi_offset 6, -8
 819              		.cfi_offset 14, -4
 820 0004 0E46     		mov	r6, r1
 821 0006 0446     		mov	r4, r0
 108:Middlewares/ST/STM32_USB_Host_Library/Core/Src/usbh_core.c **** 
 822              		.loc 1 108 3 is_stmt 1 view .LVU313
 108:Middlewares/ST/STM32_USB_Host_Library/Core/Src/usbh_core.c **** 
 823              		.loc 1 108 13 is_stmt 0 view .LVU314
 824 0008 80F8CC23 		strb	r2, [r0, #972]
 111:Middlewares/ST/STM32_USB_Host_Library/Core/Src/usbh_core.c ****   phost->ClassNumber = 0U;
 825              		.loc 1 111 3 is_stmt 1 view .LVU315
 111:Middlewares/ST/STM32_USB_Host_Library/Core/Src/usbh_core.c ****   phost->ClassNumber = 0U;
 826              		.loc 1 111 23 is_stmt 0 view .LVU316
 827 000c 0025     		movs	r5, #0
 828 000e C0F87C53 		str	r5, [r0, #892]
 112:Middlewares/ST/STM32_USB_Host_Library/Core/Src/usbh_core.c **** 
 829              		.loc 1 112 3 is_stmt 1 view .LVU317
 112:Middlewares/ST/STM32_USB_Host_Library/Core/Src/usbh_core.c **** 
 830              		.loc 1 112 22 is_stmt 0 view .LVU318
 831 0012 C0F88053 		str	r5, [r0, #896]
 115:Middlewares/ST/STM32_USB_Host_Library/Core/Src/usbh_core.c **** 
 832              		.loc 1 115 3 is_stmt 1 view .LVU319
 115:Middlewares/ST/STM32_USB_Host_Library/Core/Src/usbh_core.c **** 
 833              		.loc 1 115 9 is_stmt 0 view .LVU320
 834 0016 FFF7FEFF 		bl	DeInitStateMachine
 835              	.LVL56:
 118:Middlewares/ST/STM32_USB_Host_Library/Core/Src/usbh_core.c ****   phost->device.is_connected = 0U;
 836              		.loc 1 118 3 is_stmt 1 view .LVU321
 118:Middlewares/ST/STM32_USB_Host_Library/Core/Src/usbh_core.c ****   phost->device.is_connected = 0U;
 837              		.loc 1 118 29 is_stmt 0 view .LVU322
 838 001a 84F82353 		strb	r5, [r4, #803]
 119:Middlewares/ST/STM32_USB_Host_Library/Core/Src/usbh_core.c ****   phost->device.is_disconnected = 0U;
 839              		.loc 1 119 3 is_stmt 1 view .LVU323
 119:Middlewares/ST/STM32_USB_Host_Library/Core/Src/usbh_core.c ****   phost->device.is_disconnected = 0U;
 840              		.loc 1 119 30 is_stmt 0 view .LVU324
 841 001e 84F82053 		strb	r5, [r4, #800]
 120:Middlewares/ST/STM32_USB_Host_Library/Core/Src/usbh_core.c ****   phost->device.is_ReEnumerated = 0U;
 842              		.loc 1 120 3 is_stmt 1 view .LVU325
 120:Middlewares/ST/STM32_USB_Host_Library/Core/Src/usbh_core.c ****   phost->device.is_ReEnumerated = 0U;
 843              		.loc 1 120 33 is_stmt 0 view .LVU326
 844 0022 84F82153 		strb	r5, [r4, #801]
 121:Middlewares/ST/STM32_USB_Host_Library/Core/Src/usbh_core.c **** 
 845              		.loc 1 121 3 is_stmt 1 view .LVU327
 121:Middlewares/ST/STM32_USB_Host_Library/Core/Src/usbh_core.c **** 
 846              		.loc 1 121 33 is_stmt 0 view .LVU328
 847 0026 84F82253 		strb	r5, [r4, #802]
 124:Middlewares/ST/STM32_USB_Host_Library/Core/Src/usbh_core.c ****   {
 848              		.loc 1 124 3 is_stmt 1 view .LVU329
 124:Middlewares/ST/STM32_USB_Host_Library/Core/Src/usbh_core.c ****   {
ARM GAS  /tmp/ccBJZy1z.s 			page 42


 849              		.loc 1 124 6 is_stmt 0 view .LVU330
 850 002a 0EB1     		cbz	r6, .L59
 126:Middlewares/ST/STM32_USB_Host_Library/Core/Src/usbh_core.c ****   }
 851              		.loc 1 126 5 is_stmt 1 view .LVU331
 126:Middlewares/ST/STM32_USB_Host_Library/Core/Src/usbh_core.c ****   }
 852              		.loc 1 126 18 is_stmt 0 view .LVU332
 853 002c C4F8D463 		str	r6, [r4, #980]
 854              	.L59:
 166:Middlewares/ST/STM32_USB_Host_Library/Core/Src/usbh_core.c **** 
 855              		.loc 1 166 3 is_stmt 1 view .LVU333
 166:Middlewares/ST/STM32_USB_Host_Library/Core/Src/usbh_core.c **** 
 856              		.loc 1 166 9 is_stmt 0 view .LVU334
 857 0030 2046     		mov	r0, r4
 858 0032 FFF7FEFF 		bl	USBH_LL_Init
 859              	.LVL57:
 168:Middlewares/ST/STM32_USB_Host_Library/Core/Src/usbh_core.c **** }
 860              		.loc 1 168 3 is_stmt 1 view .LVU335
 168:Middlewares/ST/STM32_USB_Host_Library/Core/Src/usbh_core.c **** }
 861              		.loc 1 168 10 is_stmt 0 view .LVU336
 862 0036 0020     		movs	r0, #0
 169:Middlewares/ST/STM32_USB_Host_Library/Core/Src/usbh_core.c **** 
 863              		.loc 1 169 1 view .LVU337
 864 0038 70BD     		pop	{r4, r5, r6, pc}
 865              	.LVL58:
 866              	.L60:
 867              		.cfi_def_cfa_offset 0
 868              		.cfi_restore 4
 869              		.cfi_restore 5
 870              		.cfi_restore 6
 871              		.cfi_restore 14
 104:Middlewares/ST/STM32_USB_Host_Library/Core/Src/usbh_core.c ****   }
 872              		.loc 1 104 12 view .LVU338
 873 003a 0220     		movs	r0, #2
 874              	.LVL59:
 169:Middlewares/ST/STM32_USB_Host_Library/Core/Src/usbh_core.c **** 
 875              		.loc 1 169 1 view .LVU339
 876 003c 7047     		bx	lr
 877              		.cfi_endproc
 878              	.LFE133:
 880              		.section	.text.USBH_DeInit,"ax",%progbits
 881              		.align	1
 882              		.global	USBH_DeInit
 883              		.syntax unified
 884              		.thumb
 885              		.thumb_func
 886              		.fpu fpv4-sp-d16
 888              	USBH_DeInit:
 889              	.LVL60:
 890              	.LFB134:
 179:Middlewares/ST/STM32_USB_Host_Library/Core/Src/usbh_core.c ****   (void)DeInitStateMachine(phost);
 891              		.loc 1 179 1 is_stmt 1 view -0
 892              		.cfi_startproc
 893              		@ args = 0, pretend = 0, frame = 0
 894              		@ frame_needed = 0, uses_anonymous_args = 0
 179:Middlewares/ST/STM32_USB_Host_Library/Core/Src/usbh_core.c ****   (void)DeInitStateMachine(phost);
 895              		.loc 1 179 1 is_stmt 0 view .LVU341
 896 0000 10B5     		push	{r4, lr}
ARM GAS  /tmp/ccBJZy1z.s 			page 43


 897              		.cfi_def_cfa_offset 8
 898              		.cfi_offset 4, -8
 899              		.cfi_offset 14, -4
 900 0002 0446     		mov	r4, r0
 180:Middlewares/ST/STM32_USB_Host_Library/Core/Src/usbh_core.c **** 
 901              		.loc 1 180 3 is_stmt 1 view .LVU342
 180:Middlewares/ST/STM32_USB_Host_Library/Core/Src/usbh_core.c **** 
 902              		.loc 1 180 9 is_stmt 0 view .LVU343
 903 0004 FFF7FEFF 		bl	DeInitStateMachine
 904              	.LVL61:
 183:Middlewares/ST/STM32_USB_Host_Library/Core/Src/usbh_core.c ****   phost->device.is_connected = 0U;
 905              		.loc 1 183 3 is_stmt 1 view .LVU344
 183:Middlewares/ST/STM32_USB_Host_Library/Core/Src/usbh_core.c ****   phost->device.is_connected = 0U;
 906              		.loc 1 183 29 is_stmt 0 view .LVU345
 907 0008 0023     		movs	r3, #0
 908 000a 84F82333 		strb	r3, [r4, #803]
 184:Middlewares/ST/STM32_USB_Host_Library/Core/Src/usbh_core.c ****   phost->device.is_disconnected = 0U;
 909              		.loc 1 184 3 is_stmt 1 view .LVU346
 184:Middlewares/ST/STM32_USB_Host_Library/Core/Src/usbh_core.c ****   phost->device.is_disconnected = 0U;
 910              		.loc 1 184 30 is_stmt 0 view .LVU347
 911 000e 84F82033 		strb	r3, [r4, #800]
 185:Middlewares/ST/STM32_USB_Host_Library/Core/Src/usbh_core.c ****   phost->device.is_ReEnumerated = 0U;
 912              		.loc 1 185 3 is_stmt 1 view .LVU348
 185:Middlewares/ST/STM32_USB_Host_Library/Core/Src/usbh_core.c ****   phost->device.is_ReEnumerated = 0U;
 913              		.loc 1 185 33 is_stmt 0 view .LVU349
 914 0012 84F82133 		strb	r3, [r4, #801]
 186:Middlewares/ST/STM32_USB_Host_Library/Core/Src/usbh_core.c ****   phost->device.RstCnt = 0U;
 915              		.loc 1 186 3 is_stmt 1 view .LVU350
 186:Middlewares/ST/STM32_USB_Host_Library/Core/Src/usbh_core.c ****   phost->device.RstCnt = 0U;
 916              		.loc 1 186 33 is_stmt 0 view .LVU351
 917 0016 84F82233 		strb	r3, [r4, #802]
 187:Middlewares/ST/STM32_USB_Host_Library/Core/Src/usbh_core.c ****   phost->device.EnumCnt = 0U;
 918              		.loc 1 187 3 is_stmt 1 view .LVU352
 187:Middlewares/ST/STM32_USB_Host_Library/Core/Src/usbh_core.c ****   phost->device.EnumCnt = 0U;
 919              		.loc 1 187 24 is_stmt 0 view .LVU353
 920 001a 84F81F33 		strb	r3, [r4, #799]
 188:Middlewares/ST/STM32_USB_Host_Library/Core/Src/usbh_core.c **** 
 921              		.loc 1 188 3 is_stmt 1 view .LVU354
 188:Middlewares/ST/STM32_USB_Host_Library/Core/Src/usbh_core.c **** 
 922              		.loc 1 188 25 is_stmt 0 view .LVU355
 923 001e 84F81E33 		strb	r3, [r4, #798]
 190:Middlewares/ST/STM32_USB_Host_Library/Core/Src/usbh_core.c ****   {
 924              		.loc 1 190 3 is_stmt 1 view .LVU356
 190:Middlewares/ST/STM32_USB_Host_Library/Core/Src/usbh_core.c ****   {
 925              		.loc 1 190 12 is_stmt 0 view .LVU357
 926 0022 D4F8D033 		ldr	r3, [r4, #976]
 190:Middlewares/ST/STM32_USB_Host_Library/Core/Src/usbh_core.c ****   {
 927              		.loc 1 190 6 view .LVU358
 928 0026 13B1     		cbz	r3, .L66
 192:Middlewares/ST/STM32_USB_Host_Library/Core/Src/usbh_core.c ****   }
 929              		.loc 1 192 5 is_stmt 1 view .LVU359
 192:Middlewares/ST/STM32_USB_Host_Library/Core/Src/usbh_core.c ****   }
 930              		.loc 1 192 11 is_stmt 0 view .LVU360
 931 0028 2046     		mov	r0, r4
 932 002a FFF7FEFF 		bl	USBH_LL_Stop
 933              	.LVL62:
 934              	.L66:
ARM GAS  /tmp/ccBJZy1z.s 			page 44


 211:Middlewares/ST/STM32_USB_Host_Library/Core/Src/usbh_core.c **** }
 935              		.loc 1 211 3 is_stmt 1 view .LVU361
 212:Middlewares/ST/STM32_USB_Host_Library/Core/Src/usbh_core.c **** 
 936              		.loc 1 212 1 is_stmt 0 view .LVU362
 937 002e 0020     		movs	r0, #0
 938 0030 10BD     		pop	{r4, pc}
 212:Middlewares/ST/STM32_USB_Host_Library/Core/Src/usbh_core.c **** 
 939              		.loc 1 212 1 view .LVU363
 940              		.cfi_endproc
 941              	.LFE134:
 943              		.section	.text.USBH_RegisterClass,"ax",%progbits
 944              		.align	1
 945              		.global	USBH_RegisterClass
 946              		.syntax unified
 947              		.thumb
 948              		.thumb_func
 949              		.fpu fpv4-sp-d16
 951              	USBH_RegisterClass:
 952              	.LVL63:
 953              	.LFB136:
 262:Middlewares/ST/STM32_USB_Host_Library/Core/Src/usbh_core.c ****   USBH_StatusTypeDef status = USBH_OK;
 954              		.loc 1 262 1 is_stmt 1 view -0
 955              		.cfi_startproc
 956              		@ args = 0, pretend = 0, frame = 0
 957              		@ frame_needed = 0, uses_anonymous_args = 0
 958              		@ link register save eliminated.
 263:Middlewares/ST/STM32_USB_Host_Library/Core/Src/usbh_core.c **** 
 959              		.loc 1 263 3 view .LVU365
 265:Middlewares/ST/STM32_USB_Host_Library/Core/Src/usbh_core.c ****   {
 960              		.loc 1 265 3 view .LVU366
 265:Middlewares/ST/STM32_USB_Host_Library/Core/Src/usbh_core.c ****   {
 961              		.loc 1 265 6 is_stmt 0 view .LVU367
 962 0000 0A46     		mov	r2, r1
 963 0002 51B1     		cbz	r1, .L70
 267:Middlewares/ST/STM32_USB_Host_Library/Core/Src/usbh_core.c ****     {
 964              		.loc 1 267 5 is_stmt 1 view .LVU368
 267:Middlewares/ST/STM32_USB_Host_Library/Core/Src/usbh_core.c ****     {
 965              		.loc 1 267 14 is_stmt 0 view .LVU369
 966 0004 D0F88033 		ldr	r3, [r0, #896]
 267:Middlewares/ST/STM32_USB_Host_Library/Core/Src/usbh_core.c ****     {
 967              		.loc 1 267 8 view .LVU370
 968 0008 4BB9     		cbnz	r3, .L71
 270:Middlewares/ST/STM32_USB_Host_Library/Core/Src/usbh_core.c ****       status = USBH_OK;
 969              		.loc 1 270 7 is_stmt 1 view .LVU371
 270:Middlewares/ST/STM32_USB_Host_Library/Core/Src/usbh_core.c ****       status = USBH_OK;
 970              		.loc 1 270 39 is_stmt 0 view .LVU372
 971 000a 591C     		adds	r1, r3, #1
 972              	.LVL64:
 270:Middlewares/ST/STM32_USB_Host_Library/Core/Src/usbh_core.c ****       status = USBH_OK;
 973              		.loc 1 270 39 view .LVU373
 974 000c C0F88013 		str	r1, [r0, #896]
 270:Middlewares/ST/STM32_USB_Host_Library/Core/Src/usbh_core.c ****       status = USBH_OK;
 975              		.loc 1 270 43 view .LVU374
 976 0010 DE33     		adds	r3, r3, #222
 977 0012 40F82320 		str	r2, [r0, r3, lsl #2]
 271:Middlewares/ST/STM32_USB_Host_Library/Core/Src/usbh_core.c ****     }
 978              		.loc 1 271 7 is_stmt 1 view .LVU375
ARM GAS  /tmp/ccBJZy1z.s 			page 45


 271:Middlewares/ST/STM32_USB_Host_Library/Core/Src/usbh_core.c ****     }
 979              		.loc 1 271 14 is_stmt 0 view .LVU376
 980 0016 0020     		movs	r0, #0
 981              	.LVL65:
 271:Middlewares/ST/STM32_USB_Host_Library/Core/Src/usbh_core.c ****     }
 982              		.loc 1 271 14 view .LVU377
 983 0018 7047     		bx	lr
 984              	.LVL66:
 985              	.L70:
 282:Middlewares/ST/STM32_USB_Host_Library/Core/Src/usbh_core.c ****   }
 986              		.loc 1 282 12 view .LVU378
 987 001a 0220     		movs	r0, #2
 988              	.LVL67:
 282:Middlewares/ST/STM32_USB_Host_Library/Core/Src/usbh_core.c ****   }
 989              		.loc 1 282 12 view .LVU379
 990 001c 7047     		bx	lr
 991              	.LVL68:
 992              	.L71:
 276:Middlewares/ST/STM32_USB_Host_Library/Core/Src/usbh_core.c ****     }
 993              		.loc 1 276 14 view .LVU380
 994 001e 0220     		movs	r0, #2
 995              	.LVL69:
 285:Middlewares/ST/STM32_USB_Host_Library/Core/Src/usbh_core.c **** }
 996              		.loc 1 285 3 is_stmt 1 view .LVU381
 286:Middlewares/ST/STM32_USB_Host_Library/Core/Src/usbh_core.c **** 
 997              		.loc 1 286 1 is_stmt 0 view .LVU382
 998 0020 7047     		bx	lr
 999              		.cfi_endproc
 1000              	.LFE136:
 1002              		.section	.text.USBH_SelectInterface,"ax",%progbits
 1003              		.align	1
 1004              		.global	USBH_SelectInterface
 1005              		.syntax unified
 1006              		.thumb
 1007              		.thumb_func
 1008              		.fpu fpv4-sp-d16
 1010              	USBH_SelectInterface:
 1011              	.LVL70:
 1012              	.LFB137:
 297:Middlewares/ST/STM32_USB_Host_Library/Core/Src/usbh_core.c ****   USBH_StatusTypeDef status = USBH_OK;
 1013              		.loc 1 297 1 is_stmt 1 view -0
 1014              		.cfi_startproc
 1015              		@ args = 0, pretend = 0, frame = 0
 1016              		@ frame_needed = 0, uses_anonymous_args = 0
 1017              		@ link register save eliminated.
 298:Middlewares/ST/STM32_USB_Host_Library/Core/Src/usbh_core.c **** 
 1018              		.loc 1 298 3 view .LVU384
 300:Middlewares/ST/STM32_USB_Host_Library/Core/Src/usbh_core.c ****   {
 1019              		.loc 1 300 3 view .LVU385
 300:Middlewares/ST/STM32_USB_Host_Library/Core/Src/usbh_core.c ****   {
 1020              		.loc 1 300 40 is_stmt 0 view .LVU386
 1021 0000 90F83C33 		ldrb	r3, [r0, #828]	@ zero_extendqisi2
 300:Middlewares/ST/STM32_USB_Host_Library/Core/Src/usbh_core.c ****   {
 1022              		.loc 1 300 6 view .LVU387
 1023 0004 8B42     		cmp	r3, r1
 1024 0006 03D9     		bls	.L74
 302:Middlewares/ST/STM32_USB_Host_Library/Core/Src/usbh_core.c ****     USBH_UsrLog("Switching to Interface (#%d)", interface);
ARM GAS  /tmp/ccBJZy1z.s 			page 46


 1025              		.loc 1 302 5 is_stmt 1 view .LVU388
 302:Middlewares/ST/STM32_USB_Host_Library/Core/Src/usbh_core.c ****     USBH_UsrLog("Switching to Interface (#%d)", interface);
 1026              		.loc 1 302 37 is_stmt 0 view .LVU389
 1027 0008 80F82413 		strb	r1, [r0, #804]
 303:Middlewares/ST/STM32_USB_Host_Library/Core/Src/usbh_core.c ****     USBH_UsrLog("Class    : %xh", phost->device.CfgDesc.Itf_Desc[interface].bInterfaceClass);
 1028              		.loc 1 303 5 is_stmt 1 view .LVU390
 303:Middlewares/ST/STM32_USB_Host_Library/Core/Src/usbh_core.c ****     USBH_UsrLog("Class    : %xh", phost->device.CfgDesc.Itf_Desc[interface].bInterfaceClass);
 1029              		.loc 1 303 5 view .LVU391
 303:Middlewares/ST/STM32_USB_Host_Library/Core/Src/usbh_core.c ****     USBH_UsrLog("Class    : %xh", phost->device.CfgDesc.Itf_Desc[interface].bInterfaceClass);
 1030              		.loc 1 303 5 view .LVU392
 304:Middlewares/ST/STM32_USB_Host_Library/Core/Src/usbh_core.c ****     USBH_UsrLog("SubClass : %xh", phost->device.CfgDesc.Itf_Desc[interface].bInterfaceSubClass);
 1031              		.loc 1 304 5 view .LVU393
 304:Middlewares/ST/STM32_USB_Host_Library/Core/Src/usbh_core.c ****     USBH_UsrLog("SubClass : %xh", phost->device.CfgDesc.Itf_Desc[interface].bInterfaceSubClass);
 1032              		.loc 1 304 5 view .LVU394
 304:Middlewares/ST/STM32_USB_Host_Library/Core/Src/usbh_core.c ****     USBH_UsrLog("SubClass : %xh", phost->device.CfgDesc.Itf_Desc[interface].bInterfaceSubClass);
 1033              		.loc 1 304 5 view .LVU395
 305:Middlewares/ST/STM32_USB_Host_Library/Core/Src/usbh_core.c ****     USBH_UsrLog("Protocol : %xh", phost->device.CfgDesc.Itf_Desc[interface].bInterfaceProtocol);
 1034              		.loc 1 305 5 view .LVU396
 305:Middlewares/ST/STM32_USB_Host_Library/Core/Src/usbh_core.c ****     USBH_UsrLog("Protocol : %xh", phost->device.CfgDesc.Itf_Desc[interface].bInterfaceProtocol);
 1035              		.loc 1 305 5 view .LVU397
 305:Middlewares/ST/STM32_USB_Host_Library/Core/Src/usbh_core.c ****     USBH_UsrLog("Protocol : %xh", phost->device.CfgDesc.Itf_Desc[interface].bInterfaceProtocol);
 1036              		.loc 1 305 5 view .LVU398
 306:Middlewares/ST/STM32_USB_Host_Library/Core/Src/usbh_core.c ****   }
 1037              		.loc 1 306 5 view .LVU399
 306:Middlewares/ST/STM32_USB_Host_Library/Core/Src/usbh_core.c ****   }
 1038              		.loc 1 306 5 view .LVU400
 306:Middlewares/ST/STM32_USB_Host_Library/Core/Src/usbh_core.c ****   }
 1039              		.loc 1 306 5 view .LVU401
 298:Middlewares/ST/STM32_USB_Host_Library/Core/Src/usbh_core.c **** 
 1040              		.loc 1 298 22 is_stmt 0 view .LVU402
 1041 000c 0020     		movs	r0, #0
 1042              	.LVL71:
 298:Middlewares/ST/STM32_USB_Host_Library/Core/Src/usbh_core.c **** 
 1043              		.loc 1 298 22 view .LVU403
 1044 000e 7047     		bx	lr
 1045              	.LVL72:
 1046              	.L74:
 311:Middlewares/ST/STM32_USB_Host_Library/Core/Src/usbh_core.c ****   }
 1047              		.loc 1 311 12 view .LVU404
 1048 0010 0220     		movs	r0, #2
 1049              	.LVL73:
 314:Middlewares/ST/STM32_USB_Host_Library/Core/Src/usbh_core.c **** }
 1050              		.loc 1 314 3 is_stmt 1 view .LVU405
 315:Middlewares/ST/STM32_USB_Host_Library/Core/Src/usbh_core.c **** 
 1051              		.loc 1 315 1 is_stmt 0 view .LVU406
 1052 0012 7047     		bx	lr
 1053              		.cfi_endproc
 1054              	.LFE137:
 1056              		.section	.text.USBH_GetActiveClass,"ax",%progbits
 1057              		.align	1
 1058              		.global	USBH_GetActiveClass
 1059              		.syntax unified
 1060              		.thumb
 1061              		.thumb_func
 1062              		.fpu fpv4-sp-d16
 1064              	USBH_GetActiveClass:
 1065              	.LVL74:
ARM GAS  /tmp/ccBJZy1z.s 			page 47


 1066              	.LFB138:
 326:Middlewares/ST/STM32_USB_Host_Library/Core/Src/usbh_core.c ****   return (phost->device.CfgDesc.Itf_Desc[0].bInterfaceClass);
 1067              		.loc 1 326 1 is_stmt 1 view -0
 1068              		.cfi_startproc
 1069              		@ args = 0, pretend = 0, frame = 0
 1070              		@ frame_needed = 0, uses_anonymous_args = 0
 1071              		@ link register save eliminated.
 327:Middlewares/ST/STM32_USB_Host_Library/Core/Src/usbh_core.c **** }
 1072              		.loc 1 327 3 view .LVU408
 328:Middlewares/ST/STM32_USB_Host_Library/Core/Src/usbh_core.c **** 
 1073              		.loc 1 328 1 is_stmt 0 view .LVU409
 1074 0000 90F84703 		ldrb	r0, [r0, #839]	@ zero_extendqisi2
 1075              	.LVL75:
 328:Middlewares/ST/STM32_USB_Host_Library/Core/Src/usbh_core.c **** 
 1076              		.loc 1 328 1 view .LVU410
 1077 0004 7047     		bx	lr
 1078              		.cfi_endproc
 1079              	.LFE138:
 1081              		.section	.text.USBH_FindInterface,"ax",%progbits
 1082              		.align	1
 1083              		.global	USBH_FindInterface
 1084              		.syntax unified
 1085              		.thumb
 1086              		.thumb_func
 1087              		.fpu fpv4-sp-d16
 1089              	USBH_FindInterface:
 1090              	.LVL76:
 1091              	.LFB139:
 342:Middlewares/ST/STM32_USB_Host_Library/Core/Src/usbh_core.c ****   USBH_InterfaceDescTypeDef *pif;
 1092              		.loc 1 342 1 is_stmt 1 view -0
 1093              		.cfi_startproc
 1094              		@ args = 0, pretend = 0, frame = 0
 1095              		@ frame_needed = 0, uses_anonymous_args = 0
 1096              		@ link register save eliminated.
 342:Middlewares/ST/STM32_USB_Host_Library/Core/Src/usbh_core.c ****   USBH_InterfaceDescTypeDef *pif;
 1097              		.loc 1 342 1 is_stmt 0 view .LVU412
 1098 0000 70B4     		push	{r4, r5, r6}
 1099              		.cfi_def_cfa_offset 12
 1100              		.cfi_offset 4, -12
 1101              		.cfi_offset 5, -8
 1102              		.cfi_offset 6, -4
 1103 0002 0646     		mov	r6, r0
 343:Middlewares/ST/STM32_USB_Host_Library/Core/Src/usbh_core.c ****   USBH_CfgDescTypeDef *pcfg;
 1104              		.loc 1 343 3 is_stmt 1 view .LVU413
 344:Middlewares/ST/STM32_USB_Host_Library/Core/Src/usbh_core.c ****   uint8_t if_ix = 0U;
 1105              		.loc 1 344 3 view .LVU414
 345:Middlewares/ST/STM32_USB_Host_Library/Core/Src/usbh_core.c **** 
 1106              		.loc 1 345 3 view .LVU415
 1107              	.LVL77:
 347:Middlewares/ST/STM32_USB_Host_Library/Core/Src/usbh_core.c ****   pcfg = &phost->device.CfgDesc;
 1108              		.loc 1 347 3 view .LVU416
 348:Middlewares/ST/STM32_USB_Host_Library/Core/Src/usbh_core.c **** 
 1109              		.loc 1 348 3 view .LVU417
 350:Middlewares/ST/STM32_USB_Host_Library/Core/Src/usbh_core.c ****   {
 1110              		.loc 1 350 3 view .LVU418
 345:Middlewares/ST/STM32_USB_Host_Library/Core/Src/usbh_core.c **** 
 1111              		.loc 1 345 11 is_stmt 0 view .LVU419
ARM GAS  /tmp/ccBJZy1z.s 			page 48


 1112 0004 0020     		movs	r0, #0
 1113              	.LVL78:
 350:Middlewares/ST/STM32_USB_Host_Library/Core/Src/usbh_core.c ****   {
 1114              		.loc 1 350 9 view .LVU420
 1115 0006 0AE0     		b	.L77
 1116              	.LVL79:
 1117              	.L80:
 355:Middlewares/ST/STM32_USB_Host_Library/Core/Src/usbh_core.c ****     {
 1118              		.loc 1 355 14 discriminator 1 view .LVU421
 1119 0008 1A24     		movs	r4, #26
 1120 000a 04FB0565 		mla	r5, r4, r5, r6
 1121 000e 95F84943 		ldrb	r4, [r5, #841]	@ zero_extendqisi2
 354:Middlewares/ST/STM32_USB_Host_Library/Core/Src/usbh_core.c ****         ((pif->bInterfaceProtocol == Protocol) || (Protocol == 0xFFU)))
 1122              		.loc 1 354 72 discriminator 1 view .LVU422
 1123 0012 9C42     		cmp	r4, r3
 1124 0014 1AD0     		beq	.L81
 355:Middlewares/ST/STM32_USB_Host_Library/Core/Src/usbh_core.c ****     {
 1125              		.loc 1 355 48 view .LVU423
 1126 0016 FF2B     		cmp	r3, #255
 1127 0018 18D0     		beq	.L81
 1128              	.L79:
 359:Middlewares/ST/STM32_USB_Host_Library/Core/Src/usbh_core.c ****   }
 1129              		.loc 1 359 5 is_stmt 1 view .LVU424
 359:Middlewares/ST/STM32_USB_Host_Library/Core/Src/usbh_core.c ****   }
 1130              		.loc 1 359 10 is_stmt 0 view .LVU425
 1131 001a 0130     		adds	r0, r0, #1
 1132              	.LVL80:
 359:Middlewares/ST/STM32_USB_Host_Library/Core/Src/usbh_core.c ****   }
 1133              		.loc 1 359 10 view .LVU426
 1134 001c C0B2     		uxtb	r0, r0
 1135              	.LVL81:
 1136              	.L77:
 350:Middlewares/ST/STM32_USB_Host_Library/Core/Src/usbh_core.c ****   {
 1137              		.loc 1 350 9 is_stmt 1 view .LVU427
 1138 001e 0128     		cmp	r0, #1
 1139 0020 13D8     		bhi	.L84
 352:Middlewares/ST/STM32_USB_Host_Library/Core/Src/usbh_core.c ****     if (((pif->bInterfaceClass == Class) || (Class == 0xFFU)) &&
 1140              		.loc 1 352 5 view .LVU428
 352:Middlewares/ST/STM32_USB_Host_Library/Core/Src/usbh_core.c ****     if (((pif->bInterfaceClass == Class) || (Class == 0xFFU)) &&
 1141              		.loc 1 352 26 is_stmt 0 view .LVU429
 1142 0022 0546     		mov	r5, r0
 1143              	.LVL82:
 353:Middlewares/ST/STM32_USB_Host_Library/Core/Src/usbh_core.c ****         ((pif->bInterfaceSubClass == SubClass) || (SubClass == 0xFFU)) &&
 1144              		.loc 1 353 5 is_stmt 1 view .LVU430
 353:Middlewares/ST/STM32_USB_Host_Library/Core/Src/usbh_core.c ****         ((pif->bInterfaceSubClass == SubClass) || (SubClass == 0xFFU)) &&
 1145              		.loc 1 353 14 is_stmt 0 view .LVU431
 1146 0024 1A24     		movs	r4, #26
 1147 0026 04FB0064 		mla	r4, r4, r0, r6
 1148 002a 94F84743 		ldrb	r4, [r4, #839]	@ zero_extendqisi2
 353:Middlewares/ST/STM32_USB_Host_Library/Core/Src/usbh_core.c ****         ((pif->bInterfaceSubClass == SubClass) || (SubClass == 0xFFU)) &&
 1149              		.loc 1 353 8 view .LVU432
 1150 002e 8C42     		cmp	r4, r1
 1151 0030 01D0     		beq	.L78
 353:Middlewares/ST/STM32_USB_Host_Library/Core/Src/usbh_core.c ****         ((pif->bInterfaceSubClass == SubClass) || (SubClass == 0xFFU)) &&
 1152              		.loc 1 353 42 discriminator 2 view .LVU433
 1153 0032 FF29     		cmp	r1, #255
 1154 0034 F1D1     		bne	.L79
ARM GAS  /tmp/ccBJZy1z.s 			page 49


 1155              	.L78:
 354:Middlewares/ST/STM32_USB_Host_Library/Core/Src/usbh_core.c ****         ((pif->bInterfaceProtocol == Protocol) || (Protocol == 0xFFU)))
 1156              		.loc 1 354 14 discriminator 3 view .LVU434
 1157 0036 1A24     		movs	r4, #26
 1158 0038 04FB0564 		mla	r4, r4, r5, r6
 1159 003c 94F84843 		ldrb	r4, [r4, #840]	@ zero_extendqisi2
 353:Middlewares/ST/STM32_USB_Host_Library/Core/Src/usbh_core.c ****         ((pif->bInterfaceSubClass == SubClass) || (SubClass == 0xFFU)) &&
 1160              		.loc 1 353 63 discriminator 3 view .LVU435
 1161 0040 9442     		cmp	r4, r2
 1162 0042 E1D0     		beq	.L80
 354:Middlewares/ST/STM32_USB_Host_Library/Core/Src/usbh_core.c ****         ((pif->bInterfaceProtocol == Protocol) || (Protocol == 0xFFU)))
 1163              		.loc 1 354 48 view .LVU436
 1164 0044 FF2A     		cmp	r2, #255
 1165 0046 E8D1     		bne	.L79
 1166 0048 DEE7     		b	.L80
 1167              	.LVL83:
 1168              	.L84:
 361:Middlewares/ST/STM32_USB_Host_Library/Core/Src/usbh_core.c **** }
 1169              		.loc 1 361 10 view .LVU437
 1170 004a FF20     		movs	r0, #255
 1171              	.LVL84:
 1172              	.L81:
 362:Middlewares/ST/STM32_USB_Host_Library/Core/Src/usbh_core.c **** 
 1173              		.loc 1 362 1 view .LVU438
 1174 004c 70BC     		pop	{r4, r5, r6}
 1175              		.cfi_restore 6
 1176              		.cfi_restore 5
 1177              		.cfi_restore 4
 1178              		.cfi_def_cfa_offset 0
 1179              	.LVL85:
 362:Middlewares/ST/STM32_USB_Host_Library/Core/Src/usbh_core.c **** 
 1180              		.loc 1 362 1 view .LVU439
 1181 004e 7047     		bx	lr
 1182              		.cfi_endproc
 1183              	.LFE139:
 1185              		.section	.text.USBH_FindInterfaceIndex,"ax",%progbits
 1186              		.align	1
 1187              		.global	USBH_FindInterfaceIndex
 1188              		.syntax unified
 1189              		.thumb
 1190              		.thumb_func
 1191              		.fpu fpv4-sp-d16
 1193              	USBH_FindInterfaceIndex:
 1194              	.LVL86:
 1195              	.LFB140:
 375:Middlewares/ST/STM32_USB_Host_Library/Core/Src/usbh_core.c ****   USBH_InterfaceDescTypeDef *pif;
 1196              		.loc 1 375 1 is_stmt 1 view -0
 1197              		.cfi_startproc
 1198              		@ args = 0, pretend = 0, frame = 0
 1199              		@ frame_needed = 0, uses_anonymous_args = 0
 1200              		@ link register save eliminated.
 375:Middlewares/ST/STM32_USB_Host_Library/Core/Src/usbh_core.c ****   USBH_InterfaceDescTypeDef *pif;
 1201              		.loc 1 375 1 is_stmt 0 view .LVU441
 1202 0000 10B4     		push	{r4}
 1203              		.cfi_def_cfa_offset 4
 1204              		.cfi_offset 4, -4
 1205 0002 0446     		mov	r4, r0
ARM GAS  /tmp/ccBJZy1z.s 			page 50


 376:Middlewares/ST/STM32_USB_Host_Library/Core/Src/usbh_core.c ****   USBH_CfgDescTypeDef *pcfg;
 1206              		.loc 1 376 3 is_stmt 1 view .LVU442
 377:Middlewares/ST/STM32_USB_Host_Library/Core/Src/usbh_core.c ****   uint8_t if_ix = 0U;
 1207              		.loc 1 377 3 view .LVU443
 378:Middlewares/ST/STM32_USB_Host_Library/Core/Src/usbh_core.c **** 
 1208              		.loc 1 378 3 view .LVU444
 1209              	.LVL87:
 380:Middlewares/ST/STM32_USB_Host_Library/Core/Src/usbh_core.c ****   pcfg = &phost->device.CfgDesc;
 1210              		.loc 1 380 3 view .LVU445
 381:Middlewares/ST/STM32_USB_Host_Library/Core/Src/usbh_core.c **** 
 1211              		.loc 1 381 3 view .LVU446
 383:Middlewares/ST/STM32_USB_Host_Library/Core/Src/usbh_core.c ****   {
 1212              		.loc 1 383 3 view .LVU447
 378:Middlewares/ST/STM32_USB_Host_Library/Core/Src/usbh_core.c **** 
 1213              		.loc 1 378 11 is_stmt 0 view .LVU448
 1214 0004 0020     		movs	r0, #0
 1215              	.LVL88:
 383:Middlewares/ST/STM32_USB_Host_Library/Core/Src/usbh_core.c ****   {
 1216              		.loc 1 383 9 view .LVU449
 1217 0006 01E0     		b	.L86
 1218              	.LVL89:
 1219              	.L87:
 390:Middlewares/ST/STM32_USB_Host_Library/Core/Src/usbh_core.c ****   }
 1220              		.loc 1 390 5 is_stmt 1 view .LVU450
 390:Middlewares/ST/STM32_USB_Host_Library/Core/Src/usbh_core.c ****   }
 1221              		.loc 1 390 10 is_stmt 0 view .LVU451
 1222 0008 0130     		adds	r0, r0, #1
 1223              	.LVL90:
 390:Middlewares/ST/STM32_USB_Host_Library/Core/Src/usbh_core.c ****   }
 1224              		.loc 1 390 10 view .LVU452
 1225 000a C0B2     		uxtb	r0, r0
 1226              	.LVL91:
 1227              	.L86:
 383:Middlewares/ST/STM32_USB_Host_Library/Core/Src/usbh_core.c ****   {
 1228              		.loc 1 383 9 is_stmt 1 view .LVU453
 1229 000c 0128     		cmp	r0, #1
 1230 000e 0ED8     		bhi	.L91
 385:Middlewares/ST/STM32_USB_Host_Library/Core/Src/usbh_core.c ****     if ((pif->bInterfaceNumber == interface_number) && (pif->bAlternateSetting == alt_settings))
 1231              		.loc 1 385 5 view .LVU454
 1232              	.LVL92:
 386:Middlewares/ST/STM32_USB_Host_Library/Core/Src/usbh_core.c ****     {
 1233              		.loc 1 386 5 view .LVU455
 386:Middlewares/ST/STM32_USB_Host_Library/Core/Src/usbh_core.c ****     {
 1234              		.loc 1 386 13 is_stmt 0 view .LVU456
 1235 0010 1A23     		movs	r3, #26
 1236 0012 03FB0043 		mla	r3, r3, r0, r4
 1237 0016 93F84433 		ldrb	r3, [r3, #836]	@ zero_extendqisi2
 386:Middlewares/ST/STM32_USB_Host_Library/Core/Src/usbh_core.c ****     {
 1238              		.loc 1 386 8 view .LVU457
 1239 001a 8B42     		cmp	r3, r1
 1240 001c F4D1     		bne	.L87
 386:Middlewares/ST/STM32_USB_Host_Library/Core/Src/usbh_core.c ****     {
 1241              		.loc 1 386 60 discriminator 1 view .LVU458
 1242 001e 1A23     		movs	r3, #26
 1243 0020 03FB0043 		mla	r3, r3, r0, r4
 1244 0024 93F84533 		ldrb	r3, [r3, #837]	@ zero_extendqisi2
 386:Middlewares/ST/STM32_USB_Host_Library/Core/Src/usbh_core.c ****     {
ARM GAS  /tmp/ccBJZy1z.s 			page 51


 1245              		.loc 1 386 53 discriminator 1 view .LVU459
 1246 0028 9342     		cmp	r3, r2
 1247 002a EDD1     		bne	.L87
 1248 002c 00E0     		b	.L88
 1249              	.LVL93:
 1250              	.L91:
 392:Middlewares/ST/STM32_USB_Host_Library/Core/Src/usbh_core.c **** }
 1251              		.loc 1 392 10 view .LVU460
 1252 002e FF20     		movs	r0, #255
 1253              	.LVL94:
 1254              	.L88:
 393:Middlewares/ST/STM32_USB_Host_Library/Core/Src/usbh_core.c **** 
 1255              		.loc 1 393 1 view .LVU461
 1256 0030 5DF8044B 		ldr	r4, [sp], #4
 1257              		.cfi_restore 4
 1258              		.cfi_def_cfa_offset 0
 1259              	.LVL95:
 393:Middlewares/ST/STM32_USB_Host_Library/Core/Src/usbh_core.c **** 
 1260              		.loc 1 393 1 view .LVU462
 1261 0034 7047     		bx	lr
 1262              		.cfi_endproc
 1263              	.LFE140:
 1265              		.section	.text.USBH_Start,"ax",%progbits
 1266              		.align	1
 1267              		.global	USBH_Start
 1268              		.syntax unified
 1269              		.thumb
 1270              		.thumb_func
 1271              		.fpu fpv4-sp-d16
 1273              	USBH_Start:
 1274              	.LVL96:
 1275              	.LFB141:
 403:Middlewares/ST/STM32_USB_Host_Library/Core/Src/usbh_core.c ****   /* Start the low level driver  */
 1276              		.loc 1 403 1 is_stmt 1 view -0
 1277              		.cfi_startproc
 1278              		@ args = 0, pretend = 0, frame = 0
 1279              		@ frame_needed = 0, uses_anonymous_args = 0
 403:Middlewares/ST/STM32_USB_Host_Library/Core/Src/usbh_core.c ****   /* Start the low level driver  */
 1280              		.loc 1 403 1 is_stmt 0 view .LVU464
 1281 0000 10B5     		push	{r4, lr}
 1282              		.cfi_def_cfa_offset 8
 1283              		.cfi_offset 4, -8
 1284              		.cfi_offset 14, -4
 1285 0002 0446     		mov	r4, r0
 405:Middlewares/ST/STM32_USB_Host_Library/Core/Src/usbh_core.c **** 
 1286              		.loc 1 405 3 is_stmt 1 view .LVU465
 405:Middlewares/ST/STM32_USB_Host_Library/Core/Src/usbh_core.c **** 
 1287              		.loc 1 405 9 is_stmt 0 view .LVU466
 1288 0004 FFF7FEFF 		bl	USBH_LL_Start
 1289              	.LVL97:
 408:Middlewares/ST/STM32_USB_Host_Library/Core/Src/usbh_core.c **** 
 1290              		.loc 1 408 3 is_stmt 1 view .LVU467
 408:Middlewares/ST/STM32_USB_Host_Library/Core/Src/usbh_core.c **** 
 1291              		.loc 1 408 9 is_stmt 0 view .LVU468
 1292 0008 0121     		movs	r1, #1
 1293 000a 2046     		mov	r0, r4
 1294 000c FFF7FEFF 		bl	USBH_LL_DriverVBUS
ARM GAS  /tmp/ccBJZy1z.s 			page 52


 1295              	.LVL98:
 410:Middlewares/ST/STM32_USB_Host_Library/Core/Src/usbh_core.c **** }
 1296              		.loc 1 410 3 is_stmt 1 view .LVU469
 411:Middlewares/ST/STM32_USB_Host_Library/Core/Src/usbh_core.c **** 
 1297              		.loc 1 411 1 is_stmt 0 view .LVU470
 1298 0010 0020     		movs	r0, #0
 1299 0012 10BD     		pop	{r4, pc}
 411:Middlewares/ST/STM32_USB_Host_Library/Core/Src/usbh_core.c **** 
 1300              		.loc 1 411 1 view .LVU471
 1301              		.cfi_endproc
 1302              	.LFE141:
 1304              		.section	.text.USBH_Stop,"ax",%progbits
 1305              		.align	1
 1306              		.global	USBH_Stop
 1307              		.syntax unified
 1308              		.thumb
 1309              		.thumb_func
 1310              		.fpu fpv4-sp-d16
 1312              	USBH_Stop:
 1313              	.LVL99:
 1314              	.LFB142:
 421:Middlewares/ST/STM32_USB_Host_Library/Core/Src/usbh_core.c ****   /* DeActivate VBUS on the port */
 1315              		.loc 1 421 1 is_stmt 1 view -0
 1316              		.cfi_startproc
 1317              		@ args = 0, pretend = 0, frame = 0
 1318              		@ frame_needed = 0, uses_anonymous_args = 0
 421:Middlewares/ST/STM32_USB_Host_Library/Core/Src/usbh_core.c ****   /* DeActivate VBUS on the port */
 1319              		.loc 1 421 1 is_stmt 0 view .LVU473
 1320 0000 10B5     		push	{r4, lr}
 1321              		.cfi_def_cfa_offset 8
 1322              		.cfi_offset 4, -8
 1323              		.cfi_offset 14, -4
 1324 0002 0446     		mov	r4, r0
 423:Middlewares/ST/STM32_USB_Host_Library/Core/Src/usbh_core.c **** 
 1325              		.loc 1 423 3 is_stmt 1 view .LVU474
 423:Middlewares/ST/STM32_USB_Host_Library/Core/Src/usbh_core.c **** 
 1326              		.loc 1 423 9 is_stmt 0 view .LVU475
 1327 0004 0021     		movs	r1, #0
 1328 0006 FFF7FEFF 		bl	USBH_LL_DriverVBUS
 1329              	.LVL100:
 426:Middlewares/ST/STM32_USB_Host_Library/Core/Src/usbh_core.c **** 
 1330              		.loc 1 426 3 is_stmt 1 view .LVU476
 426:Middlewares/ST/STM32_USB_Host_Library/Core/Src/usbh_core.c **** 
 1331              		.loc 1 426 9 is_stmt 0 view .LVU477
 1332 000a 2046     		mov	r0, r4
 1333 000c FFF7FEFF 		bl	USBH_LL_Stop
 1334              	.LVL101:
 429:Middlewares/ST/STM32_USB_Host_Library/Core/Src/usbh_core.c ****   (void)USBH_FreePipe(phost, phost->Control.pipe_out);
 1335              		.loc 1 429 3 is_stmt 1 view .LVU478
 429:Middlewares/ST/STM32_USB_Host_Library/Core/Src/usbh_core.c ****   (void)USBH_FreePipe(phost, phost->Control.pipe_out);
 1336              		.loc 1 429 9 is_stmt 0 view .LVU479
 1337 0010 2179     		ldrb	r1, [r4, #4]	@ zero_extendqisi2
 1338 0012 2046     		mov	r0, r4
 1339 0014 FFF7FEFF 		bl	USBH_FreePipe
 1340              	.LVL102:
 430:Middlewares/ST/STM32_USB_Host_Library/Core/Src/usbh_core.c **** 
 1341              		.loc 1 430 3 is_stmt 1 view .LVU480
ARM GAS  /tmp/ccBJZy1z.s 			page 53


 430:Middlewares/ST/STM32_USB_Host_Library/Core/Src/usbh_core.c **** 
 1342              		.loc 1 430 9 is_stmt 0 view .LVU481
 1343 0018 6179     		ldrb	r1, [r4, #5]	@ zero_extendqisi2
 1344 001a 2046     		mov	r0, r4
 1345 001c FFF7FEFF 		bl	USBH_FreePipe
 1346              	.LVL103:
 432:Middlewares/ST/STM32_USB_Host_Library/Core/Src/usbh_core.c **** }
 1347              		.loc 1 432 3 is_stmt 1 view .LVU482
 433:Middlewares/ST/STM32_USB_Host_Library/Core/Src/usbh_core.c **** 
 1348              		.loc 1 433 1 is_stmt 0 view .LVU483
 1349 0020 0020     		movs	r0, #0
 1350 0022 10BD     		pop	{r4, pc}
 433:Middlewares/ST/STM32_USB_Host_Library/Core/Src/usbh_core.c **** 
 1351              		.loc 1 433 1 view .LVU484
 1352              		.cfi_endproc
 1353              	.LFE142:
 1355              		.section	.text.USBH_Process,"ax",%progbits
 1356              		.align	1
 1357              		.global	USBH_Process
 1358              		.syntax unified
 1359              		.thumb
 1360              		.thumb_func
 1361              		.fpu fpv4-sp-d16
 1363              	USBH_Process:
 1364              	.LVL104:
 1365              	.LFB144:
 474:Middlewares/ST/STM32_USB_Host_Library/Core/Src/usbh_core.c ****   __IO USBH_StatusTypeDef status = USBH_FAIL;
 1366              		.loc 1 474 1 is_stmt 1 view -0
 1367              		.cfi_startproc
 1368              		@ args = 0, pretend = 0, frame = 8
 1369              		@ frame_needed = 0, uses_anonymous_args = 0
 474:Middlewares/ST/STM32_USB_Host_Library/Core/Src/usbh_core.c ****   __IO USBH_StatusTypeDef status = USBH_FAIL;
 1370              		.loc 1 474 1 is_stmt 0 view .LVU486
 1371 0000 30B5     		push	{r4, r5, lr}
 1372              		.cfi_def_cfa_offset 12
 1373              		.cfi_offset 4, -12
 1374              		.cfi_offset 5, -8
 1375              		.cfi_offset 14, -4
 1376 0002 87B0     		sub	sp, sp, #28
 1377              		.cfi_def_cfa_offset 40
 1378 0004 0446     		mov	r4, r0
 475:Middlewares/ST/STM32_USB_Host_Library/Core/Src/usbh_core.c ****   uint8_t idx = 0U;
 1379              		.loc 1 475 3 is_stmt 1 view .LVU487
 475:Middlewares/ST/STM32_USB_Host_Library/Core/Src/usbh_core.c ****   uint8_t idx = 0U;
 1380              		.loc 1 475 27 is_stmt 0 view .LVU488
 1381 0006 0223     		movs	r3, #2
 1382 0008 8DF81730 		strb	r3, [sp, #23]
 476:Middlewares/ST/STM32_USB_Host_Library/Core/Src/usbh_core.c **** 
 1383              		.loc 1 476 3 is_stmt 1 view .LVU489
 1384              	.LVL105:
 479:Middlewares/ST/STM32_USB_Host_Library/Core/Src/usbh_core.c ****   {
 1385              		.loc 1 479 3 view .LVU490
 479:Middlewares/ST/STM32_USB_Host_Library/Core/Src/usbh_core.c ****   {
 1386              		.loc 1 479 20 is_stmt 0 view .LVU491
 1387 000c 90F82133 		ldrb	r3, [r0, #801]	@ zero_extendqisi2
 1388 0010 DBB2     		uxtb	r3, r3
 479:Middlewares/ST/STM32_USB_Host_Library/Core/Src/usbh_core.c ****   {
ARM GAS  /tmp/ccBJZy1z.s 			page 54


 1389              		.loc 1 479 6 view .LVU492
 1390 0012 012B     		cmp	r3, #1
 1391 0014 11D0     		beq	.L130
 1392              	.L97:
 484:Middlewares/ST/STM32_USB_Host_Library/Core/Src/usbh_core.c ****   {
 1393              		.loc 1 484 3 is_stmt 1 view .LVU493
 484:Middlewares/ST/STM32_USB_Host_Library/Core/Src/usbh_core.c ****   {
 1394              		.loc 1 484 16 is_stmt 0 view .LVU494
 1395 0016 2378     		ldrb	r3, [r4]	@ zero_extendqisi2
 1396 0018 DBB2     		uxtb	r3, r3
 1397 001a 0B2B     		cmp	r3, #11
 1398 001c 7BD8     		bhi	.L98
 1399 001e DFE813F0 		tbh	[pc, r3, lsl #1]
 1400              	.L100:
 1401 0022 0F00     		.2byte	(.L110-.L100)/2
 1402 0024 2100     		.2byte	(.L109-.L100)/2
 1403 0026 4500     		.2byte	(.L108-.L100)/2
 1404 0028 1501     		.2byte	(.L107-.L100)/2
 1405 002a 7A00     		.2byte	(.L98-.L100)/2
 1406 002c 7D00     		.2byte	(.L106-.L100)/2
 1407 002e F200     		.2byte	(.L105-.L100)/2
 1408 0030 9200     		.2byte	(.L104-.L100)/2
 1409 0032 9C00     		.2byte	(.L103-.L100)/2
 1410 0034 A600     		.2byte	(.L102-.L100)/2
 1411 0036 C200     		.2byte	(.L101-.L100)/2
 1412 0038 0C01     		.2byte	(.L99-.L100)/2
 1413              		.p2align 1
 1414              	.L130:
 481:Middlewares/ST/STM32_USB_Host_Library/Core/Src/usbh_core.c ****   }
 1415              		.loc 1 481 5 is_stmt 1 view .LVU495
 481:Middlewares/ST/STM32_USB_Host_Library/Core/Src/usbh_core.c ****   }
 1416              		.loc 1 481 19 is_stmt 0 view .LVU496
 1417 003a 0323     		movs	r3, #3
 1418 003c 0370     		strb	r3, [r0]
 1419 003e EAE7     		b	.L97
 1420              	.L110:
 488:Middlewares/ST/STM32_USB_Host_Library/Core/Src/usbh_core.c ****       {
 1421              		.loc 1 488 7 is_stmt 1 view .LVU497
 488:Middlewares/ST/STM32_USB_Host_Library/Core/Src/usbh_core.c ****       {
 1422              		.loc 1 488 25 is_stmt 0 view .LVU498
 1423 0040 94F82033 		ldrb	r3, [r4, #800]	@ zero_extendqisi2
 488:Middlewares/ST/STM32_USB_Host_Library/Core/Src/usbh_core.c ****       {
 1424              		.loc 1 488 10 view .LVU499
 1425 0044 002B     		cmp	r3, #0
 1426 0046 66D0     		beq	.L98
 490:Middlewares/ST/STM32_USB_Host_Library/Core/Src/usbh_core.c **** 
 1427              		.loc 1 490 9 is_stmt 1 view .LVU500
 490:Middlewares/ST/STM32_USB_Host_Library/Core/Src/usbh_core.c **** 
 1428              		.loc 1 490 9 view .LVU501
 490:Middlewares/ST/STM32_USB_Host_Library/Core/Src/usbh_core.c **** 
 1429              		.loc 1 490 9 view .LVU502
 493:Middlewares/ST/STM32_USB_Host_Library/Core/Src/usbh_core.c ****         USBH_Delay(200U);
 1430              		.loc 1 493 9 view .LVU503
 493:Middlewares/ST/STM32_USB_Host_Library/Core/Src/usbh_core.c ****         USBH_Delay(200U);
 1431              		.loc 1 493 23 is_stmt 0 view .LVU504
 1432 0048 0123     		movs	r3, #1
 1433 004a 2370     		strb	r3, [r4]
ARM GAS  /tmp/ccBJZy1z.s 			page 55


 494:Middlewares/ST/STM32_USB_Host_Library/Core/Src/usbh_core.c ****         (void)USBH_LL_ResetPort(phost);
 1434              		.loc 1 494 9 is_stmt 1 view .LVU505
 1435 004c C820     		movs	r0, #200
 1436              	.LVL106:
 494:Middlewares/ST/STM32_USB_Host_Library/Core/Src/usbh_core.c ****         (void)USBH_LL_ResetPort(phost);
 1437              		.loc 1 494 9 is_stmt 0 view .LVU506
 1438 004e FFF7FEFF 		bl	USBH_Delay
 1439              	.LVL107:
 495:Middlewares/ST/STM32_USB_Host_Library/Core/Src/usbh_core.c **** 
 1440              		.loc 1 495 9 is_stmt 1 view .LVU507
 495:Middlewares/ST/STM32_USB_Host_Library/Core/Src/usbh_core.c **** 
 1441              		.loc 1 495 15 is_stmt 0 view .LVU508
 1442 0052 2046     		mov	r0, r4
 1443 0054 FFF7FEFF 		bl	USBH_LL_ResetPort
 1444              	.LVL108:
 498:Middlewares/ST/STM32_USB_Host_Library/Core/Src/usbh_core.c ****         phost->Timeout = 0U;
 1445              		.loc 1 498 9 is_stmt 1 view .LVU509
 498:Middlewares/ST/STM32_USB_Host_Library/Core/Src/usbh_core.c ****         phost->Timeout = 0U;
 1446              		.loc 1 498 31 is_stmt 0 view .LVU510
 1447 0058 0023     		movs	r3, #0
 1448 005a 84F81C33 		strb	r3, [r4, #796]
 499:Middlewares/ST/STM32_USB_Host_Library/Core/Src/usbh_core.c **** 
 1449              		.loc 1 499 9 is_stmt 1 view .LVU511
 499:Middlewares/ST/STM32_USB_Host_Library/Core/Src/usbh_core.c **** 
 1450              		.loc 1 499 24 is_stmt 0 view .LVU512
 1451 005e C4F8C833 		str	r3, [r4, #968]
 1452 0062 58E0     		b	.L98
 1453              	.LVL109:
 1454              	.L109:
 514:Middlewares/ST/STM32_USB_Host_Library/Core/Src/usbh_core.c ****       {
 1455              		.loc 1 514 7 is_stmt 1 view .LVU513
 514:Middlewares/ST/STM32_USB_Host_Library/Core/Src/usbh_core.c ****       {
 1456              		.loc 1 514 24 is_stmt 0 view .LVU514
 1457 0064 94F82333 		ldrb	r3, [r4, #803]	@ zero_extendqisi2
 514:Middlewares/ST/STM32_USB_Host_Library/Core/Src/usbh_core.c ****       {
 1458              		.loc 1 514 10 view .LVU515
 1459 0068 012B     		cmp	r3, #1
 1460 006a 0FD0     		beq	.L131
 522:Middlewares/ST/STM32_USB_Host_Library/Core/Src/usbh_core.c ****         {
 1461              		.loc 1 522 9 is_stmt 1 view .LVU516
 522:Middlewares/ST/STM32_USB_Host_Library/Core/Src/usbh_core.c ****         {
 1462              		.loc 1 522 18 is_stmt 0 view .LVU517
 1463 006c D4F8C833 		ldr	r3, [r4, #968]
 522:Middlewares/ST/STM32_USB_Host_Library/Core/Src/usbh_core.c ****         {
 1464              		.loc 1 522 12 view .LVU518
 1465 0070 B3F57A7F 		cmp	r3, #1000
 1466 0074 13D9     		bls	.L112
 524:Middlewares/ST/STM32_USB_Host_Library/Core/Src/usbh_core.c ****           if (phost->device.RstCnt > 3U)
 1467              		.loc 1 524 11 is_stmt 1 view .LVU519
 524:Middlewares/ST/STM32_USB_Host_Library/Core/Src/usbh_core.c ****           if (phost->device.RstCnt > 3U)
 1468              		.loc 1 524 24 is_stmt 0 view .LVU520
 1469 0076 94F81F33 		ldrb	r3, [r4, #799]	@ zero_extendqisi2
 524:Middlewares/ST/STM32_USB_Host_Library/Core/Src/usbh_core.c ****           if (phost->device.RstCnt > 3U)
 1470              		.loc 1 524 31 view .LVU521
 1471 007a 0133     		adds	r3, r3, #1
 1472 007c DBB2     		uxtb	r3, r3
 1473 007e 84F81F33 		strb	r3, [r4, #799]
ARM GAS  /tmp/ccBJZy1z.s 			page 56


 525:Middlewares/ST/STM32_USB_Host_Library/Core/Src/usbh_core.c ****           {
 1474              		.loc 1 525 11 is_stmt 1 view .LVU522
 525:Middlewares/ST/STM32_USB_Host_Library/Core/Src/usbh_core.c ****           {
 1475              		.loc 1 525 14 is_stmt 0 view .LVU523
 1476 0082 032B     		cmp	r3, #3
 1477 0084 08D9     		bls	.L113
 528:Middlewares/ST/STM32_USB_Host_Library/Core/Src/usbh_core.c ****             phost->gState = HOST_ABORT_STATE;
 1478              		.loc 1 528 13 is_stmt 1 view .LVU524
 528:Middlewares/ST/STM32_USB_Host_Library/Core/Src/usbh_core.c ****             phost->gState = HOST_ABORT_STATE;
 1479              		.loc 1 528 13 view .LVU525
 528:Middlewares/ST/STM32_USB_Host_Library/Core/Src/usbh_core.c ****             phost->gState = HOST_ABORT_STATE;
 1480              		.loc 1 528 13 view .LVU526
 529:Middlewares/ST/STM32_USB_Host_Library/Core/Src/usbh_core.c ****           }
 1481              		.loc 1 529 13 view .LVU527
 529:Middlewares/ST/STM32_USB_Host_Library/Core/Src/usbh_core.c ****           }
 1482              		.loc 1 529 27 is_stmt 0 view .LVU528
 1483 0086 0D23     		movs	r3, #13
 1484 0088 2370     		strb	r3, [r4]
 1485 008a 44E0     		b	.L98
 1486              	.L131:
 516:Middlewares/ST/STM32_USB_Host_Library/Core/Src/usbh_core.c ****         phost->device.RstCnt = 0U;
 1487              		.loc 1 516 9 is_stmt 1 view .LVU529
 516:Middlewares/ST/STM32_USB_Host_Library/Core/Src/usbh_core.c ****         phost->device.RstCnt = 0U;
 1488              		.loc 1 516 9 view .LVU530
 516:Middlewares/ST/STM32_USB_Host_Library/Core/Src/usbh_core.c ****         phost->device.RstCnt = 0U;
 1489              		.loc 1 516 9 view .LVU531
 517:Middlewares/ST/STM32_USB_Host_Library/Core/Src/usbh_core.c ****         phost->gState = HOST_DEV_ATTACHED;
 1490              		.loc 1 517 9 view .LVU532
 517:Middlewares/ST/STM32_USB_Host_Library/Core/Src/usbh_core.c ****         phost->gState = HOST_DEV_ATTACHED;
 1491              		.loc 1 517 30 is_stmt 0 view .LVU533
 1492 008c 0023     		movs	r3, #0
 1493 008e 84F81F33 		strb	r3, [r4, #799]
 518:Middlewares/ST/STM32_USB_Host_Library/Core/Src/usbh_core.c ****       }
 1494              		.loc 1 518 9 is_stmt 1 view .LVU534
 518:Middlewares/ST/STM32_USB_Host_Library/Core/Src/usbh_core.c ****       }
 1495              		.loc 1 518 23 is_stmt 0 view .LVU535
 1496 0092 0223     		movs	r3, #2
 1497 0094 2370     		strb	r3, [r4]
 1498 0096 3EE0     		b	.L98
 1499              	.L113:
 533:Middlewares/ST/STM32_USB_Host_Library/Core/Src/usbh_core.c ****           }
 1500              		.loc 1 533 13 is_stmt 1 view .LVU536
 533:Middlewares/ST/STM32_USB_Host_Library/Core/Src/usbh_core.c ****           }
 1501              		.loc 1 533 27 is_stmt 0 view .LVU537
 1502 0098 0023     		movs	r3, #0
 1503 009a 2370     		strb	r3, [r4]
 1504 009c 3BE0     		b	.L98
 1505              	.L112:
 538:Middlewares/ST/STM32_USB_Host_Library/Core/Src/usbh_core.c ****           USBH_Delay(10U);
 1506              		.loc 1 538 11 is_stmt 1 view .LVU538
 538:Middlewares/ST/STM32_USB_Host_Library/Core/Src/usbh_core.c ****           USBH_Delay(10U);
 1507              		.loc 1 538 26 is_stmt 0 view .LVU539
 1508 009e 0A33     		adds	r3, r3, #10
 1509 00a0 C4F8C833 		str	r3, [r4, #968]
 539:Middlewares/ST/STM32_USB_Host_Library/Core/Src/usbh_core.c ****         }
 1510              		.loc 1 539 11 is_stmt 1 view .LVU540
 1511 00a4 0A20     		movs	r0, #10
ARM GAS  /tmp/ccBJZy1z.s 			page 57


 1512              	.LVL110:
 539:Middlewares/ST/STM32_USB_Host_Library/Core/Src/usbh_core.c ****         }
 1513              		.loc 1 539 11 is_stmt 0 view .LVU541
 1514 00a6 FFF7FEFF 		bl	USBH_Delay
 1515              	.LVL111:
 1516 00aa 34E0     		b	.L98
 1517              	.LVL112:
 1518              	.L108:
 554:Middlewares/ST/STM32_USB_Host_Library/Core/Src/usbh_core.c ****       {
 1519              		.loc 1 554 7 is_stmt 1 view .LVU542
 554:Middlewares/ST/STM32_USB_Host_Library/Core/Src/usbh_core.c ****       {
 1520              		.loc 1 554 16 is_stmt 0 view .LVU543
 1521 00ac D4F8D433 		ldr	r3, [r4, #980]
 554:Middlewares/ST/STM32_USB_Host_Library/Core/Src/usbh_core.c ****       {
 1522              		.loc 1 554 10 view .LVU544
 1523 00b0 13B1     		cbz	r3, .L114
 556:Middlewares/ST/STM32_USB_Host_Library/Core/Src/usbh_core.c ****       }
 1524              		.loc 1 556 9 is_stmt 1 view .LVU545
 1525 00b2 0421     		movs	r1, #4
 1526 00b4 2046     		mov	r0, r4
 1527              	.LVL113:
 556:Middlewares/ST/STM32_USB_Host_Library/Core/Src/usbh_core.c ****       }
 1528              		.loc 1 556 9 is_stmt 0 view .LVU546
 1529 00b6 9847     		blx	r3
 1530              	.LVL114:
 1531              	.L114:
 560:Middlewares/ST/STM32_USB_Host_Library/Core/Src/usbh_core.c **** 
 1532              		.loc 1 560 7 is_stmt 1 view .LVU547
 1533 00b8 6420     		movs	r0, #100
 1534 00ba FFF7FEFF 		bl	USBH_Delay
 1535              	.LVL115:
 562:Middlewares/ST/STM32_USB_Host_Library/Core/Src/usbh_core.c **** 
 1536              		.loc 1 562 7 view .LVU548
 562:Middlewares/ST/STM32_USB_Host_Library/Core/Src/usbh_core.c **** 
 1537              		.loc 1 562 38 is_stmt 0 view .LVU549
 1538 00be 2046     		mov	r0, r4
 1539 00c0 FFF7FEFF 		bl	USBH_LL_GetSpeed
 1540              	.LVL116:
 562:Middlewares/ST/STM32_USB_Host_Library/Core/Src/usbh_core.c **** 
 1541              		.loc 1 562 27 view .LVU550
 1542 00c4 84F81D03 		strb	r0, [r4, #797]
 564:Middlewares/ST/STM32_USB_Host_Library/Core/Src/usbh_core.c **** 
 1543              		.loc 1 564 7 is_stmt 1 view .LVU551
 564:Middlewares/ST/STM32_USB_Host_Library/Core/Src/usbh_core.c **** 
 1544              		.loc 1 564 21 is_stmt 0 view .LVU552
 1545 00c8 0523     		movs	r3, #5
 1546 00ca 2370     		strb	r3, [r4]
 566:Middlewares/ST/STM32_USB_Host_Library/Core/Src/usbh_core.c ****       phost->Control.pipe_in  = USBH_AllocPipe(phost, 0x80U);
 1547              		.loc 1 566 7 is_stmt 1 view .LVU553
 566:Middlewares/ST/STM32_USB_Host_Library/Core/Src/usbh_core.c ****       phost->Control.pipe_in  = USBH_AllocPipe(phost, 0x80U);
 1548              		.loc 1 566 33 is_stmt 0 view .LVU554
 1549 00cc 0021     		movs	r1, #0
 1550 00ce 2046     		mov	r0, r4
 1551 00d0 FFF7FEFF 		bl	USBH_AllocPipe
 1552              	.LVL117:
 566:Middlewares/ST/STM32_USB_Host_Library/Core/Src/usbh_core.c ****       phost->Control.pipe_in  = USBH_AllocPipe(phost, 0x80U);
 1553              		.loc 1 566 31 view .LVU555
ARM GAS  /tmp/ccBJZy1z.s 			page 58


 1554 00d4 6071     		strb	r0, [r4, #5]
 567:Middlewares/ST/STM32_USB_Host_Library/Core/Src/usbh_core.c **** 
 1555              		.loc 1 567 7 is_stmt 1 view .LVU556
 567:Middlewares/ST/STM32_USB_Host_Library/Core/Src/usbh_core.c **** 
 1556              		.loc 1 567 33 is_stmt 0 view .LVU557
 1557 00d6 8021     		movs	r1, #128
 1558 00d8 2046     		mov	r0, r4
 1559 00da FFF7FEFF 		bl	USBH_AllocPipe
 1560              	.LVL118:
 1561 00de 0146     		mov	r1, r0
 567:Middlewares/ST/STM32_USB_Host_Library/Core/Src/usbh_core.c **** 
 1562              		.loc 1 567 31 view .LVU558
 1563 00e0 2071     		strb	r0, [r4, #4]
 570:Middlewares/ST/STM32_USB_Host_Library/Core/Src/usbh_core.c ****                           phost->device.address, phost->device.speed,
 1564              		.loc 1 570 7 is_stmt 1 view .LVU559
 570:Middlewares/ST/STM32_USB_Host_Library/Core/Src/usbh_core.c ****                           phost->device.address, phost->device.speed,
 1565              		.loc 1 570 13 is_stmt 0 view .LVU560
 1566 00e2 A379     		ldrb	r3, [r4, #6]	@ zero_extendqisi2
 1567 00e4 0293     		str	r3, [sp, #8]
 1568 00e6 0025     		movs	r5, #0
 1569 00e8 0195     		str	r5, [sp, #4]
 1570 00ea 94F81D33 		ldrb	r3, [r4, #797]	@ zero_extendqisi2
 1571 00ee 0093     		str	r3, [sp]
 1572 00f0 94F81C33 		ldrb	r3, [r4, #796]	@ zero_extendqisi2
 1573 00f4 8022     		movs	r2, #128
 1574 00f6 2046     		mov	r0, r4
 1575 00f8 FFF7FEFF 		bl	USBH_OpenPipe
 1576              	.LVL119:
 575:Middlewares/ST/STM32_USB_Host_Library/Core/Src/usbh_core.c ****                           phost->device.address, phost->device.speed,
 1577              		.loc 1 575 7 is_stmt 1 view .LVU561
 575:Middlewares/ST/STM32_USB_Host_Library/Core/Src/usbh_core.c ****                           phost->device.address, phost->device.speed,
 1578              		.loc 1 575 13 is_stmt 0 view .LVU562
 1579 00fc A379     		ldrb	r3, [r4, #6]	@ zero_extendqisi2
 1580 00fe 0293     		str	r3, [sp, #8]
 1581 0100 0195     		str	r5, [sp, #4]
 1582 0102 94F81D33 		ldrb	r3, [r4, #797]	@ zero_extendqisi2
 1583 0106 0093     		str	r3, [sp]
 1584 0108 94F81C33 		ldrb	r3, [r4, #796]	@ zero_extendqisi2
 1585 010c 2A46     		mov	r2, r5
 1586 010e 6179     		ldrb	r1, [r4, #5]	@ zero_extendqisi2
 1587 0110 2046     		mov	r0, r4
 1588 0112 FFF7FEFF 		bl	USBH_OpenPipe
 1589              	.LVL120:
 587:Middlewares/ST/STM32_USB_Host_Library/Core/Src/usbh_core.c **** 
 1590              		.loc 1 587 7 is_stmt 1 view .LVU563
 1591              	.L98:
 833:Middlewares/ST/STM32_USB_Host_Library/Core/Src/usbh_core.c **** }
 1592              		.loc 1 833 3 view .LVU564
 834:Middlewares/ST/STM32_USB_Host_Library/Core/Src/usbh_core.c **** 
 1593              		.loc 1 834 1 is_stmt 0 view .LVU565
 1594 0116 0020     		movs	r0, #0
 1595 0118 07B0     		add	sp, sp, #28
 1596              		.cfi_remember_state
 1597              		.cfi_def_cfa_offset 12
 1598              		@ sp needed
 1599 011a 30BD     		pop	{r4, r5, pc}
 1600              	.LVL121:
ARM GAS  /tmp/ccBJZy1z.s 			page 59


 1601              	.L106:
 1602              		.cfi_restore_state
 591:Middlewares/ST/STM32_USB_Host_Library/Core/Src/usbh_core.c ****       if (status == USBH_OK)
 1603              		.loc 1 591 7 is_stmt 1 view .LVU566
 591:Middlewares/ST/STM32_USB_Host_Library/Core/Src/usbh_core.c ****       if (status == USBH_OK)
 1604              		.loc 1 591 16 is_stmt 0 view .LVU567
 1605 011c 2046     		mov	r0, r4
 1606              	.LVL122:
 591:Middlewares/ST/STM32_USB_Host_Library/Core/Src/usbh_core.c ****       if (status == USBH_OK)
 1607              		.loc 1 591 16 view .LVU568
 1608 011e FFF7FEFF 		bl	USBH_HandleEnum
 1609              	.LVL123:
 591:Middlewares/ST/STM32_USB_Host_Library/Core/Src/usbh_core.c ****       if (status == USBH_OK)
 1610              		.loc 1 591 14 view .LVU569
 1611 0122 8DF81700 		strb	r0, [sp, #23]
 592:Middlewares/ST/STM32_USB_Host_Library/Core/Src/usbh_core.c ****       {
 1612              		.loc 1 592 7 is_stmt 1 view .LVU570
 592:Middlewares/ST/STM32_USB_Host_Library/Core/Src/usbh_core.c ****       {
 1613              		.loc 1 592 18 is_stmt 0 view .LVU571
 1614 0126 9DF81730 		ldrb	r3, [sp, #23]	@ zero_extendqisi2
 592:Middlewares/ST/STM32_USB_Host_Library/Core/Src/usbh_core.c ****       {
 1615              		.loc 1 592 10 view .LVU572
 1616 012a 002B     		cmp	r3, #0
 1617 012c F3D1     		bne	.L98
 595:Middlewares/ST/STM32_USB_Host_Library/Core/Src/usbh_core.c **** 
 1618              		.loc 1 595 9 is_stmt 1 view .LVU573
 595:Middlewares/ST/STM32_USB_Host_Library/Core/Src/usbh_core.c **** 
 1619              		.loc 1 595 9 view .LVU574
 595:Middlewares/ST/STM32_USB_Host_Library/Core/Src/usbh_core.c **** 
 1620              		.loc 1 595 9 view .LVU575
 597:Middlewares/ST/STM32_USB_Host_Library/Core/Src/usbh_core.c **** 
 1621              		.loc 1 597 9 view .LVU576
 597:Middlewares/ST/STM32_USB_Host_Library/Core/Src/usbh_core.c **** 
 1622              		.loc 1 597 41 is_stmt 0 view .LVU577
 1623 012e 84F82433 		strb	r3, [r4, #804]
 599:Middlewares/ST/STM32_USB_Host_Library/Core/Src/usbh_core.c ****         {
 1624              		.loc 1 599 9 is_stmt 1 view .LVU578
 599:Middlewares/ST/STM32_USB_Host_Library/Core/Src/usbh_core.c ****         {
 1625              		.loc 1 599 34 is_stmt 0 view .LVU579
 1626 0132 94F83733 		ldrb	r3, [r4, #823]	@ zero_extendqisi2
 599:Middlewares/ST/STM32_USB_Host_Library/Core/Src/usbh_core.c ****         {
 1627              		.loc 1 599 12 view .LVU580
 1628 0136 012B     		cmp	r3, #1
 1629 0138 02D0     		beq	.L132
 606:Middlewares/ST/STM32_USB_Host_Library/Core/Src/usbh_core.c ****         }
 1630              		.loc 1 606 11 is_stmt 1 view .LVU581
 606:Middlewares/ST/STM32_USB_Host_Library/Core/Src/usbh_core.c ****         }
 1631              		.loc 1 606 25 is_stmt 0 view .LVU582
 1632 013a 0723     		movs	r3, #7
 1633 013c 2370     		strb	r3, [r4]
 1634 013e EAE7     		b	.L98
 1635              	.L132:
 601:Middlewares/ST/STM32_USB_Host_Library/Core/Src/usbh_core.c ****           phost->gState = HOST_SET_CONFIGURATION;
 1636              		.loc 1 601 11 is_stmt 1 view .LVU583
 601:Middlewares/ST/STM32_USB_Host_Library/Core/Src/usbh_core.c ****           phost->gState = HOST_SET_CONFIGURATION;
 1637              		.loc 1 601 11 view .LVU584
 601:Middlewares/ST/STM32_USB_Host_Library/Core/Src/usbh_core.c ****           phost->gState = HOST_SET_CONFIGURATION;
ARM GAS  /tmp/ccBJZy1z.s 			page 60


 1638              		.loc 1 601 11 view .LVU585
 602:Middlewares/ST/STM32_USB_Host_Library/Core/Src/usbh_core.c ****         }
 1639              		.loc 1 602 11 view .LVU586
 602:Middlewares/ST/STM32_USB_Host_Library/Core/Src/usbh_core.c ****         }
 1640              		.loc 1 602 25 is_stmt 0 view .LVU587
 1641 0140 0823     		movs	r3, #8
 1642 0142 2370     		strb	r3, [r4]
 1643 0144 E7E7     		b	.L98
 1644              	.LVL124:
 1645              	.L104:
 622:Middlewares/ST/STM32_USB_Host_Library/Core/Src/usbh_core.c ****       {
 1646              		.loc 1 622 7 is_stmt 1 view .LVU588
 622:Middlewares/ST/STM32_USB_Host_Library/Core/Src/usbh_core.c ****       {
 1647              		.loc 1 622 16 is_stmt 0 view .LVU589
 1648 0146 D4F8D433 		ldr	r3, [r4, #980]
 622:Middlewares/ST/STM32_USB_Host_Library/Core/Src/usbh_core.c ****       {
 1649              		.loc 1 622 10 view .LVU590
 1650 014a 002B     		cmp	r3, #0
 1651 014c E3D0     		beq	.L98
 624:Middlewares/ST/STM32_USB_Host_Library/Core/Src/usbh_core.c ****         phost->gState = HOST_SET_CONFIGURATION;
 1652              		.loc 1 624 9 is_stmt 1 view .LVU591
 1653 014e 0121     		movs	r1, #1
 1654 0150 2046     		mov	r0, r4
 1655              	.LVL125:
 624:Middlewares/ST/STM32_USB_Host_Library/Core/Src/usbh_core.c ****         phost->gState = HOST_SET_CONFIGURATION;
 1656              		.loc 1 624 9 is_stmt 0 view .LVU592
 1657 0152 9847     		blx	r3
 1658              	.LVL126:
 625:Middlewares/ST/STM32_USB_Host_Library/Core/Src/usbh_core.c **** 
 1659              		.loc 1 625 9 is_stmt 1 view .LVU593
 625:Middlewares/ST/STM32_USB_Host_Library/Core/Src/usbh_core.c **** 
 1660              		.loc 1 625 23 is_stmt 0 view .LVU594
 1661 0154 0823     		movs	r3, #8
 1662 0156 2370     		strb	r3, [r4]
 1663 0158 DDE7     		b	.L98
 1664              	.LVL127:
 1665              	.L103:
 641:Middlewares/ST/STM32_USB_Host_Library/Core/Src/usbh_core.c ****       {
 1666              		.loc 1 641 7 is_stmt 1 view .LVU595
 641:Middlewares/ST/STM32_USB_Host_Library/Core/Src/usbh_core.c ****       {
 1667              		.loc 1 641 11 is_stmt 0 view .LVU596
 1668 015a 94F83D13 		ldrb	r1, [r4, #829]	@ zero_extendqisi2
 1669 015e 2046     		mov	r0, r4
 1670              	.LVL128:
 641:Middlewares/ST/STM32_USB_Host_Library/Core/Src/usbh_core.c ****       {
 1671              		.loc 1 641 11 view .LVU597
 1672 0160 FFF7FEFF 		bl	USBH_SetCfg
 1673              	.LVL129:
 641:Middlewares/ST/STM32_USB_Host_Library/Core/Src/usbh_core.c ****       {
 1674              		.loc 1 641 10 view .LVU598
 1675 0164 0028     		cmp	r0, #0
 1676 0166 D6D1     		bne	.L98
 643:Middlewares/ST/STM32_USB_Host_Library/Core/Src/usbh_core.c ****         USBH_UsrLog("Default configuration set.");
 1677              		.loc 1 643 9 is_stmt 1 view .LVU599
 643:Middlewares/ST/STM32_USB_Host_Library/Core/Src/usbh_core.c ****         USBH_UsrLog("Default configuration set.");
 1678              		.loc 1 643 23 is_stmt 0 view .LVU600
 1679 0168 0923     		movs	r3, #9
ARM GAS  /tmp/ccBJZy1z.s 			page 61


 1680 016a 2370     		strb	r3, [r4]
 1681 016c D3E7     		b	.L98
 1682              	.LVL130:
 1683              	.L102:
 659:Middlewares/ST/STM32_USB_Host_Library/Core/Src/usbh_core.c ****       {
 1684              		.loc 1 659 7 is_stmt 1 view .LVU601
 659:Middlewares/ST/STM32_USB_Host_Library/Core/Src/usbh_core.c ****       {
 1685              		.loc 1 659 34 is_stmt 0 view .LVU602
 1686 016e 94F83F33 		ldrb	r3, [r4, #831]	@ zero_extendqisi2
 659:Middlewares/ST/STM32_USB_Host_Library/Core/Src/usbh_core.c ****       {
 1687              		.loc 1 659 10 view .LVU603
 1688 0172 13F0200F 		tst	r3, #32
 1689 0176 02D1     		bne	.L133
 680:Middlewares/ST/STM32_USB_Host_Library/Core/Src/usbh_core.c ****       }
 1690              		.loc 1 680 9 is_stmt 1 view .LVU604
 680:Middlewares/ST/STM32_USB_Host_Library/Core/Src/usbh_core.c ****       }
 1691              		.loc 1 680 23 is_stmt 0 view .LVU605
 1692 0178 0A23     		movs	r3, #10
 1693 017a 2370     		strb	r3, [r4]
 1694 017c CBE7     		b	.L98
 1695              	.L133:
 661:Middlewares/ST/STM32_USB_Host_Library/Core/Src/usbh_core.c **** 
 1696              		.loc 1 661 9 is_stmt 1 view .LVU606
 661:Middlewares/ST/STM32_USB_Host_Library/Core/Src/usbh_core.c **** 
 1697              		.loc 1 661 18 is_stmt 0 view .LVU607
 1698 017e 0121     		movs	r1, #1
 1699 0180 2046     		mov	r0, r4
 1700              	.LVL131:
 661:Middlewares/ST/STM32_USB_Host_Library/Core/Src/usbh_core.c **** 
 1701              		.loc 1 661 18 view .LVU608
 1702 0182 FFF7FEFF 		bl	USBH_SetFeature
 1703              	.LVL132:
 661:Middlewares/ST/STM32_USB_Host_Library/Core/Src/usbh_core.c **** 
 1704              		.loc 1 661 16 view .LVU609
 1705 0186 8DF81700 		strb	r0, [sp, #23]
 663:Middlewares/ST/STM32_USB_Host_Library/Core/Src/usbh_core.c ****         {
 1706              		.loc 1 663 9 is_stmt 1 view .LVU610
 663:Middlewares/ST/STM32_USB_Host_Library/Core/Src/usbh_core.c ****         {
 1707              		.loc 1 663 20 is_stmt 0 view .LVU611
 1708 018a 9DF81730 		ldrb	r3, [sp, #23]	@ zero_extendqisi2
 663:Middlewares/ST/STM32_USB_Host_Library/Core/Src/usbh_core.c ****         {
 1709              		.loc 1 663 12 view .LVU612
 1710 018e 13B9     		cbnz	r3, .L117
 665:Middlewares/ST/STM32_USB_Host_Library/Core/Src/usbh_core.c ****           phost->gState = HOST_CHECK_CLASS;
 1711              		.loc 1 665 11 is_stmt 1 view .LVU613
 665:Middlewares/ST/STM32_USB_Host_Library/Core/Src/usbh_core.c ****           phost->gState = HOST_CHECK_CLASS;
 1712              		.loc 1 665 11 view .LVU614
 665:Middlewares/ST/STM32_USB_Host_Library/Core/Src/usbh_core.c ****           phost->gState = HOST_CHECK_CLASS;
 1713              		.loc 1 665 11 view .LVU615
 666:Middlewares/ST/STM32_USB_Host_Library/Core/Src/usbh_core.c ****         }
 1714              		.loc 1 666 11 view .LVU616
 666:Middlewares/ST/STM32_USB_Host_Library/Core/Src/usbh_core.c ****         }
 1715              		.loc 1 666 25 is_stmt 0 view .LVU617
 1716 0190 0A23     		movs	r3, #10
 1717 0192 2370     		strb	r3, [r4]
 1718 0194 BFE7     		b	.L98
 1719              	.L117:
ARM GAS  /tmp/ccBJZy1z.s 			page 62


 668:Middlewares/ST/STM32_USB_Host_Library/Core/Src/usbh_core.c ****         {
 1720              		.loc 1 668 14 is_stmt 1 view .LVU618
 668:Middlewares/ST/STM32_USB_Host_Library/Core/Src/usbh_core.c ****         {
 1721              		.loc 1 668 25 is_stmt 0 view .LVU619
 1722 0196 9DF81730 		ldrb	r3, [sp, #23]	@ zero_extendqisi2
 1723 019a DBB2     		uxtb	r3, r3
 668:Middlewares/ST/STM32_USB_Host_Library/Core/Src/usbh_core.c ****         {
 1724              		.loc 1 668 17 view .LVU620
 1725 019c 032B     		cmp	r3, #3
 1726 019e BAD1     		bne	.L98
 670:Middlewares/ST/STM32_USB_Host_Library/Core/Src/usbh_core.c ****           phost->gState = HOST_CHECK_CLASS;
 1727              		.loc 1 670 11 is_stmt 1 view .LVU621
 670:Middlewares/ST/STM32_USB_Host_Library/Core/Src/usbh_core.c ****           phost->gState = HOST_CHECK_CLASS;
 1728              		.loc 1 670 11 view .LVU622
 670:Middlewares/ST/STM32_USB_Host_Library/Core/Src/usbh_core.c ****           phost->gState = HOST_CHECK_CLASS;
 1729              		.loc 1 670 11 view .LVU623
 671:Middlewares/ST/STM32_USB_Host_Library/Core/Src/usbh_core.c ****         }
 1730              		.loc 1 671 11 view .LVU624
 671:Middlewares/ST/STM32_USB_Host_Library/Core/Src/usbh_core.c ****         }
 1731              		.loc 1 671 25 is_stmt 0 view .LVU625
 1732 01a0 0A23     		movs	r3, #10
 1733 01a2 2370     		strb	r3, [r4]
 1734 01a4 B7E7     		b	.L98
 1735              	.LVL133:
 1736              	.L101:
 695:Middlewares/ST/STM32_USB_Host_Library/Core/Src/usbh_core.c ****       {
 1737              		.loc 1 695 7 is_stmt 1 view .LVU626
 695:Middlewares/ST/STM32_USB_Host_Library/Core/Src/usbh_core.c ****       {
 1738              		.loc 1 695 16 is_stmt 0 view .LVU627
 1739 01a6 D4F88033 		ldr	r3, [r4, #896]
 695:Middlewares/ST/STM32_USB_Host_Library/Core/Src/usbh_core.c ****       {
 1740              		.loc 1 695 10 view .LVU628
 1741 01aa 002B     		cmp	r3, #0
 1742 01ac B3D0     		beq	.L98
 701:Middlewares/ST/STM32_USB_Host_Library/Core/Src/usbh_core.c **** 
 1743              		.loc 1 701 9 is_stmt 1 view .LVU629
 701:Middlewares/ST/STM32_USB_Host_Library/Core/Src/usbh_core.c **** 
 1744              		.loc 1 701 29 is_stmt 0 view .LVU630
 1745 01ae 0023     		movs	r3, #0
 1746 01b0 C4F87C33 		str	r3, [r4, #892]
 703:Middlewares/ST/STM32_USB_Host_Library/Core/Src/usbh_core.c ****         {
 1747              		.loc 1 703 9 is_stmt 1 view .LVU631
 1748              	.LVL134:
 1749              	.L118:
 703:Middlewares/ST/STM32_USB_Host_Library/Core/Src/usbh_core.c ****         {
 1750              		.loc 1 703 24 discriminator 1 view .LVU632
 703:Middlewares/ST/STM32_USB_Host_Library/Core/Src/usbh_core.c ****         {
 1751              		.loc 1 703 9 is_stmt 0 discriminator 1 view .LVU633
 1752 01b4 73B1     		cbz	r3, .L121
 1753              	.LVL135:
 1754              	.L120:
 712:Middlewares/ST/STM32_USB_Host_Library/Core/Src/usbh_core.c ****         {
 1755              		.loc 1 712 9 is_stmt 1 view .LVU634
 712:Middlewares/ST/STM32_USB_Host_Library/Core/Src/usbh_core.c ****         {
 1756              		.loc 1 712 18 is_stmt 0 view .LVU635
 1757 01b6 D4F87C33 		ldr	r3, [r4, #892]
 712:Middlewares/ST/STM32_USB_Host_Library/Core/Src/usbh_core.c ****         {
ARM GAS  /tmp/ccBJZy1z.s 			page 63


 1758              		.loc 1 712 12 view .LVU636
 1759 01ba 0BB3     		cbz	r3, .L122
 714:Middlewares/ST/STM32_USB_Host_Library/Core/Src/usbh_core.c ****           {
 1760              		.loc 1 714 11 is_stmt 1 view .LVU637
 714:Middlewares/ST/STM32_USB_Host_Library/Core/Src/usbh_core.c ****           {
 1761              		.loc 1 714 34 is_stmt 0 view .LVU638
 1762 01bc 9B68     		ldr	r3, [r3, #8]
 714:Middlewares/ST/STM32_USB_Host_Library/Core/Src/usbh_core.c ****           {
 1763              		.loc 1 714 15 view .LVU639
 1764 01be 2046     		mov	r0, r4
 1765 01c0 9847     		blx	r3
 1766              	.LVL136:
 714:Middlewares/ST/STM32_USB_Host_Library/Core/Src/usbh_core.c ****           {
 1767              		.loc 1 714 14 view .LVU640
 1768 01c2 D0B9     		cbnz	r0, .L123
 716:Middlewares/ST/STM32_USB_Host_Library/Core/Src/usbh_core.c ****             USBH_UsrLog("%s class started.", phost->pActiveClass->Name);
 1769              		.loc 1 716 13 is_stmt 1 view .LVU641
 716:Middlewares/ST/STM32_USB_Host_Library/Core/Src/usbh_core.c ****             USBH_UsrLog("%s class started.", phost->pActiveClass->Name);
 1770              		.loc 1 716 27 is_stmt 0 view .LVU642
 1771 01c4 0623     		movs	r3, #6
 1772 01c6 2370     		strb	r3, [r4]
 717:Middlewares/ST/STM32_USB_Host_Library/Core/Src/usbh_core.c **** 
 1773              		.loc 1 717 13 is_stmt 1 view .LVU643
 717:Middlewares/ST/STM32_USB_Host_Library/Core/Src/usbh_core.c **** 
 1774              		.loc 1 717 13 view .LVU644
 717:Middlewares/ST/STM32_USB_Host_Library/Core/Src/usbh_core.c **** 
 1775              		.loc 1 717 13 view .LVU645
 720:Middlewares/ST/STM32_USB_Host_Library/Core/Src/usbh_core.c ****           }
 1776              		.loc 1 720 13 view .LVU646
 720:Middlewares/ST/STM32_USB_Host_Library/Core/Src/usbh_core.c ****           }
 1777              		.loc 1 720 18 is_stmt 0 view .LVU647
 1778 01c8 D4F8D433 		ldr	r3, [r4, #980]
 720:Middlewares/ST/STM32_USB_Host_Library/Core/Src/usbh_core.c ****           }
 1779              		.loc 1 720 13 view .LVU648
 1780 01cc 0321     		movs	r1, #3
 1781 01ce 2046     		mov	r0, r4
 1782 01d0 9847     		blx	r3
 1783              	.LVL137:
 1784 01d2 A0E7     		b	.L98
 1785              	.LVL138:
 1786              	.L121:
 705:Middlewares/ST/STM32_USB_Host_Library/Core/Src/usbh_core.c ****           {
 1787              		.loc 1 705 11 is_stmt 1 view .LVU649
 705:Middlewares/ST/STM32_USB_Host_Library/Core/Src/usbh_core.c ****           {
 1788              		.loc 1 705 28 is_stmt 0 view .LVU650
 1789 01d4 1846     		mov	r0, r3
 1790 01d6 03F1DE02 		add	r2, r3, #222
 1791 01da 54F82220 		ldr	r2, [r4, r2, lsl #2]
 705:Middlewares/ST/STM32_USB_Host_Library/Core/Src/usbh_core.c ****           {
 1792              		.loc 1 705 33 view .LVU651
 1793 01de 1179     		ldrb	r1, [r2, #4]	@ zero_extendqisi2
 705:Middlewares/ST/STM32_USB_Host_Library/Core/Src/usbh_core.c ****           {
 1794              		.loc 1 705 81 view .LVU652
 1795 01e0 94F84723 		ldrb	r2, [r4, #839]	@ zero_extendqisi2
 705:Middlewares/ST/STM32_USB_Host_Library/Core/Src/usbh_core.c ****           {
 1796              		.loc 1 705 14 view .LVU653
 1797 01e4 9142     		cmp	r1, r2
ARM GAS  /tmp/ccBJZy1z.s 			page 64


 1798 01e6 02D0     		beq	.L134
 703:Middlewares/ST/STM32_USB_Host_Library/Core/Src/usbh_core.c ****         {
 1799              		.loc 1 703 60 is_stmt 1 discriminator 2 view .LVU654
 703:Middlewares/ST/STM32_USB_Host_Library/Core/Src/usbh_core.c ****         {
 1800              		.loc 1 703 63 is_stmt 0 discriminator 2 view .LVU655
 1801 01e8 0133     		adds	r3, r3, #1
 1802              	.LVL139:
 703:Middlewares/ST/STM32_USB_Host_Library/Core/Src/usbh_core.c ****         {
 1803              		.loc 1 703 63 discriminator 2 view .LVU656
 1804 01ea DBB2     		uxtb	r3, r3
 1805              	.LVL140:
 703:Middlewares/ST/STM32_USB_Host_Library/Core/Src/usbh_core.c ****         {
 1806              		.loc 1 703 63 discriminator 2 view .LVU657
 1807 01ec E2E7     		b	.L118
 1808              	.L134:
 707:Middlewares/ST/STM32_USB_Host_Library/Core/Src/usbh_core.c ****             break;
 1809              		.loc 1 707 13 is_stmt 1 view .LVU658
 707:Middlewares/ST/STM32_USB_Host_Library/Core/Src/usbh_core.c ****             break;
 1810              		.loc 1 707 48 is_stmt 0 view .LVU659
 1811 01ee DE30     		adds	r0, r0, #222
 1812 01f0 54F82030 		ldr	r3, [r4, r0, lsl #2]
 1813              	.LVL141:
 707:Middlewares/ST/STM32_USB_Host_Library/Core/Src/usbh_core.c ****             break;
 1814              		.loc 1 707 33 view .LVU660
 1815 01f4 C4F87C33 		str	r3, [r4, #892]
 708:Middlewares/ST/STM32_USB_Host_Library/Core/Src/usbh_core.c ****           }
 1816              		.loc 1 708 13 is_stmt 1 view .LVU661
 1817 01f8 DDE7     		b	.L120
 1818              	.L123:
 724:Middlewares/ST/STM32_USB_Host_Library/Core/Src/usbh_core.c ****             USBH_UsrLog("Device not supporting %s class.", phost->pActiveClass->Name);
 1819              		.loc 1 724 13 view .LVU662
 724:Middlewares/ST/STM32_USB_Host_Library/Core/Src/usbh_core.c ****             USBH_UsrLog("Device not supporting %s class.", phost->pActiveClass->Name);
 1820              		.loc 1 724 27 is_stmt 0 view .LVU663
 1821 01fa 0D23     		movs	r3, #13
 1822 01fc 2370     		strb	r3, [r4]
 1823 01fe 8AE7     		b	.L98
 1824              	.L122:
 730:Middlewares/ST/STM32_USB_Host_Library/Core/Src/usbh_core.c ****           USBH_UsrLog("No registered class for this device.");
 1825              		.loc 1 730 11 is_stmt 1 view .LVU664
 730:Middlewares/ST/STM32_USB_Host_Library/Core/Src/usbh_core.c ****           USBH_UsrLog("No registered class for this device.");
 1826              		.loc 1 730 25 is_stmt 0 view .LVU665
 1827 0200 0D23     		movs	r3, #13
 1828 0202 2370     		strb	r3, [r4]
 1829 0204 87E7     		b	.L98
 1830              	.LVL142:
 1831              	.L105:
 747:Middlewares/ST/STM32_USB_Host_Library/Core/Src/usbh_core.c ****       {
 1832              		.loc 1 747 7 is_stmt 1 view .LVU666
 747:Middlewares/ST/STM32_USB_Host_Library/Core/Src/usbh_core.c ****       {
 1833              		.loc 1 747 16 is_stmt 0 view .LVU667
 1834 0206 D4F87C33 		ldr	r3, [r4, #892]
 747:Middlewares/ST/STM32_USB_Host_Library/Core/Src/usbh_core.c ****       {
 1835              		.loc 1 747 10 view .LVU668
 1836 020a 9BB1     		cbz	r3, .L124
 749:Middlewares/ST/STM32_USB_Host_Library/Core/Src/usbh_core.c **** 
 1837              		.loc 1 749 9 is_stmt 1 view .LVU669
 749:Middlewares/ST/STM32_USB_Host_Library/Core/Src/usbh_core.c **** 
ARM GAS  /tmp/ccBJZy1z.s 			page 65


 1838              		.loc 1 749 37 is_stmt 0 view .LVU670
 1839 020c 1B69     		ldr	r3, [r3, #16]
 749:Middlewares/ST/STM32_USB_Host_Library/Core/Src/usbh_core.c **** 
 1840              		.loc 1 749 18 view .LVU671
 1841 020e 2046     		mov	r0, r4
 1842              	.LVL143:
 749:Middlewares/ST/STM32_USB_Host_Library/Core/Src/usbh_core.c **** 
 1843              		.loc 1 749 18 view .LVU672
 1844 0210 9847     		blx	r3
 1845              	.LVL144:
 749:Middlewares/ST/STM32_USB_Host_Library/Core/Src/usbh_core.c **** 
 1846              		.loc 1 749 16 view .LVU673
 1847 0212 8DF81700 		strb	r0, [sp, #23]
 751:Middlewares/ST/STM32_USB_Host_Library/Core/Src/usbh_core.c ****         {
 1848              		.loc 1 751 9 is_stmt 1 view .LVU674
 751:Middlewares/ST/STM32_USB_Host_Library/Core/Src/usbh_core.c ****         {
 1849              		.loc 1 751 20 is_stmt 0 view .LVU675
 1850 0216 9DF81730 		ldrb	r3, [sp, #23]	@ zero_extendqisi2
 751:Middlewares/ST/STM32_USB_Host_Library/Core/Src/usbh_core.c ****         {
 1851              		.loc 1 751 12 view .LVU676
 1852 021a 13B9     		cbnz	r3, .L125
 753:Middlewares/ST/STM32_USB_Host_Library/Core/Src/usbh_core.c ****         }
 1853              		.loc 1 753 11 is_stmt 1 view .LVU677
 753:Middlewares/ST/STM32_USB_Host_Library/Core/Src/usbh_core.c ****         }
 1854              		.loc 1 753 25 is_stmt 0 view .LVU678
 1855 021c 0B23     		movs	r3, #11
 1856 021e 2370     		strb	r3, [r4]
 1857 0220 79E7     		b	.L98
 1858              	.L125:
 755:Middlewares/ST/STM32_USB_Host_Library/Core/Src/usbh_core.c ****         {
 1859              		.loc 1 755 14 is_stmt 1 view .LVU679
 755:Middlewares/ST/STM32_USB_Host_Library/Core/Src/usbh_core.c ****         {
 1860              		.loc 1 755 25 is_stmt 0 view .LVU680
 1861 0222 9DF81730 		ldrb	r3, [sp, #23]	@ zero_extendqisi2
 1862 0226 DBB2     		uxtb	r3, r3
 755:Middlewares/ST/STM32_USB_Host_Library/Core/Src/usbh_core.c ****         {
 1863              		.loc 1 755 17 view .LVU681
 1864 0228 022B     		cmp	r3, #2
 1865 022a 7FF474AF 		bne	.L98
 757:Middlewares/ST/STM32_USB_Host_Library/Core/Src/usbh_core.c ****           USBH_ErrLog("Device not responding Please Unplug.");
 1866              		.loc 1 757 11 is_stmt 1 view .LVU682
 757:Middlewares/ST/STM32_USB_Host_Library/Core/Src/usbh_core.c ****           USBH_ErrLog("Device not responding Please Unplug.");
 1867              		.loc 1 757 25 is_stmt 0 view .LVU683
 1868 022e 0D23     		movs	r3, #13
 1869 0230 2370     		strb	r3, [r4]
 758:Middlewares/ST/STM32_USB_Host_Library/Core/Src/usbh_core.c ****         }
 1870              		.loc 1 758 11 is_stmt 1 view .LVU684
 758:Middlewares/ST/STM32_USB_Host_Library/Core/Src/usbh_core.c ****         }
 1871              		.loc 1 758 11 view .LVU685
 758:Middlewares/ST/STM32_USB_Host_Library/Core/Src/usbh_core.c ****         }
 1872              		.loc 1 758 11 view .LVU686
 1873 0232 70E7     		b	.L98
 1874              	.LVL145:
 1875              	.L124:
 767:Middlewares/ST/STM32_USB_Host_Library/Core/Src/usbh_core.c ****         USBH_ErrLog("Invalid Class Driver.");
 1876              		.loc 1 767 9 view .LVU687
 767:Middlewares/ST/STM32_USB_Host_Library/Core/Src/usbh_core.c ****         USBH_ErrLog("Invalid Class Driver.");
ARM GAS  /tmp/ccBJZy1z.s 			page 66


 1877              		.loc 1 767 23 is_stmt 0 view .LVU688
 1878 0234 0D23     		movs	r3, #13
 1879 0236 2370     		strb	r3, [r4]
 1880 0238 6DE7     		b	.L98
 1881              	.L99:
 782:Middlewares/ST/STM32_USB_Host_Library/Core/Src/usbh_core.c ****       {
 1882              		.loc 1 782 7 is_stmt 1 view .LVU689
 782:Middlewares/ST/STM32_USB_Host_Library/Core/Src/usbh_core.c ****       {
 1883              		.loc 1 782 16 is_stmt 0 view .LVU690
 1884 023a D4F87C33 		ldr	r3, [r4, #892]
 782:Middlewares/ST/STM32_USB_Host_Library/Core/Src/usbh_core.c ****       {
 1885              		.loc 1 782 10 view .LVU691
 1886 023e 002B     		cmp	r3, #0
 1887 0240 3FF469AF 		beq	.L98
 784:Middlewares/ST/STM32_USB_Host_Library/Core/Src/usbh_core.c ****       }
 1888              		.loc 1 784 9 is_stmt 1 view .LVU692
 784:Middlewares/ST/STM32_USB_Host_Library/Core/Src/usbh_core.c ****       }
 1889              		.loc 1 784 28 is_stmt 0 view .LVU693
 1890 0244 5B69     		ldr	r3, [r3, #20]
 784:Middlewares/ST/STM32_USB_Host_Library/Core/Src/usbh_core.c ****       }
 1891              		.loc 1 784 9 view .LVU694
 1892 0246 2046     		mov	r0, r4
 1893              	.LVL146:
 784:Middlewares/ST/STM32_USB_Host_Library/Core/Src/usbh_core.c ****       }
 1894              		.loc 1 784 9 view .LVU695
 1895 0248 9847     		blx	r3
 1896              	.LVL147:
 1897 024a 64E7     		b	.L98
 1898              	.LVL148:
 1899              	.L107:
 789:Middlewares/ST/STM32_USB_Host_Library/Core/Src/usbh_core.c **** 
 1900              		.loc 1 789 7 is_stmt 1 view .LVU696
 789:Middlewares/ST/STM32_USB_Host_Library/Core/Src/usbh_core.c **** 
 1901              		.loc 1 789 37 is_stmt 0 view .LVU697
 1902 024c 0023     		movs	r3, #0
 1903 024e 84F82133 		strb	r3, [r4, #801]
 791:Middlewares/ST/STM32_USB_Host_Library/Core/Src/usbh_core.c **** 
 1904              		.loc 1 791 7 is_stmt 1 view .LVU698
 791:Middlewares/ST/STM32_USB_Host_Library/Core/Src/usbh_core.c **** 
 1905              		.loc 1 791 13 is_stmt 0 view .LVU699
 1906 0252 2046     		mov	r0, r4
 1907              	.LVL149:
 791:Middlewares/ST/STM32_USB_Host_Library/Core/Src/usbh_core.c **** 
 1908              		.loc 1 791 13 view .LVU700
 1909 0254 FFF7FEFF 		bl	DeInitStateMachine
 1910              	.LVL150:
 794:Middlewares/ST/STM32_USB_Host_Library/Core/Src/usbh_core.c ****       {
 1911              		.loc 1 794 7 is_stmt 1 view .LVU701
 794:Middlewares/ST/STM32_USB_Host_Library/Core/Src/usbh_core.c ****       {
 1912              		.loc 1 794 16 is_stmt 0 view .LVU702
 1913 0258 D4F87C33 		ldr	r3, [r4, #892]
 794:Middlewares/ST/STM32_USB_Host_Library/Core/Src/usbh_core.c ****       {
 1914              		.loc 1 794 10 view .LVU703
 1915 025c 2BB1     		cbz	r3, .L126
 796:Middlewares/ST/STM32_USB_Host_Library/Core/Src/usbh_core.c ****         phost->pActiveClass = NULL;
 1916              		.loc 1 796 9 is_stmt 1 view .LVU704
 796:Middlewares/ST/STM32_USB_Host_Library/Core/Src/usbh_core.c ****         phost->pActiveClass = NULL;
ARM GAS  /tmp/ccBJZy1z.s 			page 67


 1917              		.loc 1 796 28 is_stmt 0 view .LVU705
 1918 025e DB68     		ldr	r3, [r3, #12]
 796:Middlewares/ST/STM32_USB_Host_Library/Core/Src/usbh_core.c ****         phost->pActiveClass = NULL;
 1919              		.loc 1 796 9 view .LVU706
 1920 0260 2046     		mov	r0, r4
 1921 0262 9847     		blx	r3
 1922              	.LVL151:
 797:Middlewares/ST/STM32_USB_Host_Library/Core/Src/usbh_core.c ****       }
 1923              		.loc 1 797 9 is_stmt 1 view .LVU707
 797:Middlewares/ST/STM32_USB_Host_Library/Core/Src/usbh_core.c ****       }
 1924              		.loc 1 797 29 is_stmt 0 view .LVU708
 1925 0264 0023     		movs	r3, #0
 1926 0266 C4F87C33 		str	r3, [r4, #892]
 1927              	.L126:
 800:Middlewares/ST/STM32_USB_Host_Library/Core/Src/usbh_core.c ****       {
 1928              		.loc 1 800 7 is_stmt 1 view .LVU709
 800:Middlewares/ST/STM32_USB_Host_Library/Core/Src/usbh_core.c ****       {
 1929              		.loc 1 800 16 is_stmt 0 view .LVU710
 1930 026a D4F8D433 		ldr	r3, [r4, #980]
 800:Middlewares/ST/STM32_USB_Host_Library/Core/Src/usbh_core.c ****       {
 1931              		.loc 1 800 10 view .LVU711
 1932 026e 13B1     		cbz	r3, .L127
 802:Middlewares/ST/STM32_USB_Host_Library/Core/Src/usbh_core.c ****       }
 1933              		.loc 1 802 9 is_stmt 1 view .LVU712
 1934 0270 0521     		movs	r1, #5
 1935 0272 2046     		mov	r0, r4
 1936 0274 9847     		blx	r3
 1937              	.LVL152:
 1938              	.L127:
 804:Middlewares/ST/STM32_USB_Host_Library/Core/Src/usbh_core.c **** 
 1939              		.loc 1 804 7 view .LVU713
 804:Middlewares/ST/STM32_USB_Host_Library/Core/Src/usbh_core.c **** 
 1940              		.loc 1 804 7 view .LVU714
 804:Middlewares/ST/STM32_USB_Host_Library/Core/Src/usbh_core.c **** 
 1941              		.loc 1 804 7 view .LVU715
 806:Middlewares/ST/STM32_USB_Host_Library/Core/Src/usbh_core.c ****       {
 1942              		.loc 1 806 7 view .LVU716
 806:Middlewares/ST/STM32_USB_Host_Library/Core/Src/usbh_core.c ****       {
 1943              		.loc 1 806 24 is_stmt 0 view .LVU717
 1944 0276 94F82233 		ldrb	r3, [r4, #802]	@ zero_extendqisi2
 1945 027a DBB2     		uxtb	r3, r3
 806:Middlewares/ST/STM32_USB_Host_Library/Core/Src/usbh_core.c ****       {
 1946              		.loc 1 806 10 view .LVU718
 1947 027c 012B     		cmp	r3, #1
 1948 027e 03D0     		beq	.L135
 816:Middlewares/ST/STM32_USB_Host_Library/Core/Src/usbh_core.c ****       }
 1949              		.loc 1 816 9 is_stmt 1 view .LVU719
 816:Middlewares/ST/STM32_USB_Host_Library/Core/Src/usbh_core.c ****       }
 1950              		.loc 1 816 15 is_stmt 0 view .LVU720
 1951 0280 2046     		mov	r0, r4
 1952 0282 FFF7FEFF 		bl	USBH_LL_Start
 1953              	.LVL153:
 1954 0286 46E7     		b	.L98
 1955              	.L135:
 808:Middlewares/ST/STM32_USB_Host_Library/Core/Src/usbh_core.c **** 
 1956              		.loc 1 808 9 is_stmt 1 view .LVU721
 808:Middlewares/ST/STM32_USB_Host_Library/Core/Src/usbh_core.c **** 
ARM GAS  /tmp/ccBJZy1z.s 			page 68


 1957              		.loc 1 808 39 is_stmt 0 view .LVU722
 1958 0288 0023     		movs	r3, #0
 1959 028a 84F82233 		strb	r3, [r4, #802]
 811:Middlewares/ST/STM32_USB_Host_Library/Core/Src/usbh_core.c ****       }
 1960              		.loc 1 811 9 is_stmt 1 view .LVU723
 811:Middlewares/ST/STM32_USB_Host_Library/Core/Src/usbh_core.c ****       }
 1961              		.loc 1 811 15 is_stmt 0 view .LVU724
 1962 028e 2046     		mov	r0, r4
 1963 0290 FFF7FEFF 		bl	USBH_Start
 1964              	.LVL154:
 1965 0294 3FE7     		b	.L98
 1966              		.cfi_endproc
 1967              	.LFE144:
 1969              		.section	.text.USBH_LL_SetTimer,"ax",%progbits
 1970              		.align	1
 1971              		.global	USBH_LL_SetTimer
 1972              		.syntax unified
 1973              		.thumb
 1974              		.thumb_func
 1975              		.fpu fpv4-sp-d16
 1977              	USBH_LL_SetTimer:
 1978              	.LVL155:
 1979              	.LFB146:
1183:Middlewares/ST/STM32_USB_Host_Library/Core/Src/usbh_core.c ****   phost->Timer = time;
 1980              		.loc 1 1183 1 is_stmt 1 view -0
 1981              		.cfi_startproc
 1982              		@ args = 0, pretend = 0, frame = 0
 1983              		@ frame_needed = 0, uses_anonymous_args = 0
 1984              		@ link register save eliminated.
1184:Middlewares/ST/STM32_USB_Host_Library/Core/Src/usbh_core.c **** }
 1985              		.loc 1 1184 3 view .LVU726
1184:Middlewares/ST/STM32_USB_Host_Library/Core/Src/usbh_core.c **** }
 1986              		.loc 1 1184 16 is_stmt 0 view .LVU727
 1987 0000 C0F8C413 		str	r1, [r0, #964]
1185:Middlewares/ST/STM32_USB_Host_Library/Core/Src/usbh_core.c **** 
 1988              		.loc 1 1185 1 view .LVU728
 1989 0004 7047     		bx	lr
 1990              		.cfi_endproc
 1991              	.LFE146:
 1993              		.section	.text.USBH_LL_IncTimer,"ax",%progbits
 1994              		.align	1
 1995              		.global	USBH_LL_IncTimer
 1996              		.syntax unified
 1997              		.thumb
 1998              		.thumb_func
 1999              		.fpu fpv4-sp-d16
 2001              	USBH_LL_IncTimer:
 2002              	.LVL156:
 2003              	.LFB147:
1195:Middlewares/ST/STM32_USB_Host_Library/Core/Src/usbh_core.c ****   phost->Timer++;
 2004              		.loc 1 1195 1 is_stmt 1 view -0
 2005              		.cfi_startproc
 2006              		@ args = 0, pretend = 0, frame = 0
 2007              		@ frame_needed = 0, uses_anonymous_args = 0
1195:Middlewares/ST/STM32_USB_Host_Library/Core/Src/usbh_core.c ****   phost->Timer++;
 2008              		.loc 1 1195 1 is_stmt 0 view .LVU730
 2009 0000 08B5     		push	{r3, lr}
ARM GAS  /tmp/ccBJZy1z.s 			page 69


 2010              		.cfi_def_cfa_offset 8
 2011              		.cfi_offset 3, -8
 2012              		.cfi_offset 14, -4
1196:Middlewares/ST/STM32_USB_Host_Library/Core/Src/usbh_core.c ****   USBH_HandleSof(phost);
 2013              		.loc 1 1196 3 is_stmt 1 view .LVU731
1196:Middlewares/ST/STM32_USB_Host_Library/Core/Src/usbh_core.c ****   USBH_HandleSof(phost);
 2014              		.loc 1 1196 8 is_stmt 0 view .LVU732
 2015 0002 D0F8C423 		ldr	r2, [r0, #964]
1196:Middlewares/ST/STM32_USB_Host_Library/Core/Src/usbh_core.c ****   USBH_HandleSof(phost);
 2016              		.loc 1 1196 15 view .LVU733
 2017 0006 0132     		adds	r2, r2, #1
 2018 0008 C0F8C423 		str	r2, [r0, #964]
1197:Middlewares/ST/STM32_USB_Host_Library/Core/Src/usbh_core.c **** }
 2019              		.loc 1 1197 3 is_stmt 1 view .LVU734
 2020 000c FFF7FEFF 		bl	USBH_HandleSof
 2021              	.LVL157:
1198:Middlewares/ST/STM32_USB_Host_Library/Core/Src/usbh_core.c **** 
 2022              		.loc 1 1198 1 is_stmt 0 view .LVU735
 2023 0010 08BD     		pop	{r3, pc}
 2024              		.cfi_endproc
 2025              	.LFE147:
 2027              		.section	.text.USBH_LL_PortEnabled,"ax",%progbits
 2028              		.align	1
 2029              		.global	USBH_LL_PortEnabled
 2030              		.syntax unified
 2031              		.thumb
 2032              		.thumb_func
 2033              		.fpu fpv4-sp-d16
 2035              	USBH_LL_PortEnabled:
 2036              	.LVL158:
 2037              	.LFB149:
1214:Middlewares/ST/STM32_USB_Host_Library/Core/Src/usbh_core.c **** 
1215:Middlewares/ST/STM32_USB_Host_Library/Core/Src/usbh_core.c **** 
1216:Middlewares/ST/STM32_USB_Host_Library/Core/Src/usbh_core.c **** /**
1217:Middlewares/ST/STM32_USB_Host_Library/Core/Src/usbh_core.c ****   * @brief  USBH_PortEnabled
1218:Middlewares/ST/STM32_USB_Host_Library/Core/Src/usbh_core.c ****   *         Port Enabled
1219:Middlewares/ST/STM32_USB_Host_Library/Core/Src/usbh_core.c ****   * @param  phost: Host Handle
1220:Middlewares/ST/STM32_USB_Host_Library/Core/Src/usbh_core.c ****   * @retval None
1221:Middlewares/ST/STM32_USB_Host_Library/Core/Src/usbh_core.c ****   */
1222:Middlewares/ST/STM32_USB_Host_Library/Core/Src/usbh_core.c **** void USBH_LL_PortEnabled(USBH_HandleTypeDef *phost)
1223:Middlewares/ST/STM32_USB_Host_Library/Core/Src/usbh_core.c **** {
 2038              		.loc 1 1223 1 is_stmt 1 view -0
 2039              		.cfi_startproc
 2040              		@ args = 0, pretend = 0, frame = 0
 2041              		@ frame_needed = 0, uses_anonymous_args = 0
 2042              		@ link register save eliminated.
1224:Middlewares/ST/STM32_USB_Host_Library/Core/Src/usbh_core.c ****   phost->device.PortEnabled = 1U;
 2043              		.loc 1 1224 3 view .LVU737
 2044              		.loc 1 1224 29 is_stmt 0 view .LVU738
 2045 0000 0123     		movs	r3, #1
 2046 0002 80F82333 		strb	r3, [r0, #803]
1225:Middlewares/ST/STM32_USB_Host_Library/Core/Src/usbh_core.c **** 
1226:Middlewares/ST/STM32_USB_Host_Library/Core/Src/usbh_core.c **** #if (USBH_USE_OS == 1U)
1227:Middlewares/ST/STM32_USB_Host_Library/Core/Src/usbh_core.c ****   phost->os_msg = (uint32_t)USBH_PORT_EVENT;
1228:Middlewares/ST/STM32_USB_Host_Library/Core/Src/usbh_core.c **** #if (osCMSIS < 0x20000U)
1229:Middlewares/ST/STM32_USB_Host_Library/Core/Src/usbh_core.c ****   (void)osMessagePut(phost->os_event, phost->os_msg, 0U);
1230:Middlewares/ST/STM32_USB_Host_Library/Core/Src/usbh_core.c **** #else
ARM GAS  /tmp/ccBJZy1z.s 			page 70


1231:Middlewares/ST/STM32_USB_Host_Library/Core/Src/usbh_core.c ****   (void)osMessageQueuePut(phost->os_event, &phost->os_msg, 0U, 0U);
1232:Middlewares/ST/STM32_USB_Host_Library/Core/Src/usbh_core.c **** #endif
1233:Middlewares/ST/STM32_USB_Host_Library/Core/Src/usbh_core.c **** #endif
1234:Middlewares/ST/STM32_USB_Host_Library/Core/Src/usbh_core.c **** 
1235:Middlewares/ST/STM32_USB_Host_Library/Core/Src/usbh_core.c ****   return;
 2047              		.loc 1 1235 3 is_stmt 1 view .LVU739
1236:Middlewares/ST/STM32_USB_Host_Library/Core/Src/usbh_core.c **** }
 2048              		.loc 1 1236 1 is_stmt 0 view .LVU740
 2049 0006 7047     		bx	lr
 2050              		.cfi_endproc
 2051              	.LFE149:
 2053              		.section	.text.USBH_LL_PortDisabled,"ax",%progbits
 2054              		.align	1
 2055              		.global	USBH_LL_PortDisabled
 2056              		.syntax unified
 2057              		.thumb
 2058              		.thumb_func
 2059              		.fpu fpv4-sp-d16
 2061              	USBH_LL_PortDisabled:
 2062              	.LVL159:
 2063              	.LFB150:
1237:Middlewares/ST/STM32_USB_Host_Library/Core/Src/usbh_core.c **** 
1238:Middlewares/ST/STM32_USB_Host_Library/Core/Src/usbh_core.c **** 
1239:Middlewares/ST/STM32_USB_Host_Library/Core/Src/usbh_core.c **** /**
1240:Middlewares/ST/STM32_USB_Host_Library/Core/Src/usbh_core.c ****   * @brief  USBH_LL_PortDisabled
1241:Middlewares/ST/STM32_USB_Host_Library/Core/Src/usbh_core.c ****   *         Port Disabled
1242:Middlewares/ST/STM32_USB_Host_Library/Core/Src/usbh_core.c ****   * @param  phost: Host Handle
1243:Middlewares/ST/STM32_USB_Host_Library/Core/Src/usbh_core.c ****   * @retval None
1244:Middlewares/ST/STM32_USB_Host_Library/Core/Src/usbh_core.c ****   */
1245:Middlewares/ST/STM32_USB_Host_Library/Core/Src/usbh_core.c **** void USBH_LL_PortDisabled(USBH_HandleTypeDef *phost)
1246:Middlewares/ST/STM32_USB_Host_Library/Core/Src/usbh_core.c **** {
 2064              		.loc 1 1246 1 is_stmt 1 view -0
 2065              		.cfi_startproc
 2066              		@ args = 0, pretend = 0, frame = 0
 2067              		@ frame_needed = 0, uses_anonymous_args = 0
 2068              		@ link register save eliminated.
1247:Middlewares/ST/STM32_USB_Host_Library/Core/Src/usbh_core.c ****   phost->device.PortEnabled = 0U;
 2069              		.loc 1 1247 3 view .LVU742
 2070              		.loc 1 1247 29 is_stmt 0 view .LVU743
 2071 0000 0023     		movs	r3, #0
 2072 0002 80F82333 		strb	r3, [r0, #803]
1248:Middlewares/ST/STM32_USB_Host_Library/Core/Src/usbh_core.c **** 
1249:Middlewares/ST/STM32_USB_Host_Library/Core/Src/usbh_core.c ****   return;
 2073              		.loc 1 1249 3 is_stmt 1 view .LVU744
1250:Middlewares/ST/STM32_USB_Host_Library/Core/Src/usbh_core.c **** }
 2074              		.loc 1 1250 1 is_stmt 0 view .LVU745
 2075 0006 7047     		bx	lr
 2076              		.cfi_endproc
 2077              	.LFE150:
 2079              		.section	.text.USBH_IsPortEnabled,"ax",%progbits
 2080              		.align	1
 2081              		.global	USBH_IsPortEnabled
 2082              		.syntax unified
 2083              		.thumb
 2084              		.thumb_func
 2085              		.fpu fpv4-sp-d16
 2087              	USBH_IsPortEnabled:
ARM GAS  /tmp/ccBJZy1z.s 			page 71


 2088              	.LVL160:
 2089              	.LFB151:
1251:Middlewares/ST/STM32_USB_Host_Library/Core/Src/usbh_core.c **** 
1252:Middlewares/ST/STM32_USB_Host_Library/Core/Src/usbh_core.c **** 
1253:Middlewares/ST/STM32_USB_Host_Library/Core/Src/usbh_core.c **** /**
1254:Middlewares/ST/STM32_USB_Host_Library/Core/Src/usbh_core.c ****   * @brief  HCD_IsPortEnabled
1255:Middlewares/ST/STM32_USB_Host_Library/Core/Src/usbh_core.c ****   *         Is Port Enabled
1256:Middlewares/ST/STM32_USB_Host_Library/Core/Src/usbh_core.c ****   * @param  phost: Host Handle
1257:Middlewares/ST/STM32_USB_Host_Library/Core/Src/usbh_core.c ****   * @retval None
1258:Middlewares/ST/STM32_USB_Host_Library/Core/Src/usbh_core.c ****   */
1259:Middlewares/ST/STM32_USB_Host_Library/Core/Src/usbh_core.c **** uint8_t USBH_IsPortEnabled(USBH_HandleTypeDef *phost)
1260:Middlewares/ST/STM32_USB_Host_Library/Core/Src/usbh_core.c **** {
 2090              		.loc 1 1260 1 is_stmt 1 view -0
 2091              		.cfi_startproc
 2092              		@ args = 0, pretend = 0, frame = 0
 2093              		@ frame_needed = 0, uses_anonymous_args = 0
 2094              		@ link register save eliminated.
1261:Middlewares/ST/STM32_USB_Host_Library/Core/Src/usbh_core.c ****   return (phost->device.PortEnabled);
 2095              		.loc 1 1261 3 view .LVU747
1262:Middlewares/ST/STM32_USB_Host_Library/Core/Src/usbh_core.c **** }
 2096              		.loc 1 1262 1 is_stmt 0 view .LVU748
 2097 0000 90F82303 		ldrb	r0, [r0, #803]	@ zero_extendqisi2
 2098              	.LVL161:
 2099              		.loc 1 1262 1 view .LVU749
 2100 0004 7047     		bx	lr
 2101              		.cfi_endproc
 2102              	.LFE151:
 2104              		.section	.text.USBH_ReEnumerate,"ax",%progbits
 2105              		.align	1
 2106              		.global	USBH_ReEnumerate
 2107              		.syntax unified
 2108              		.thumb
 2109              		.thumb_func
 2110              		.fpu fpv4-sp-d16
 2112              	USBH_ReEnumerate:
 2113              	.LVL162:
 2114              	.LFB143:
 443:Middlewares/ST/STM32_USB_Host_Library/Core/Src/usbh_core.c ****   if (USBH_IsPortEnabled(phost) != 0U)
 2115              		.loc 1 443 1 is_stmt 1 view -0
 2116              		.cfi_startproc
 2117              		@ args = 0, pretend = 0, frame = 0
 2118              		@ frame_needed = 0, uses_anonymous_args = 0
 443:Middlewares/ST/STM32_USB_Host_Library/Core/Src/usbh_core.c ****   if (USBH_IsPortEnabled(phost) != 0U)
 2119              		.loc 1 443 1 is_stmt 0 view .LVU751
 2120 0000 38B5     		push	{r3, r4, r5, lr}
 2121              		.cfi_def_cfa_offset 16
 2122              		.cfi_offset 3, -16
 2123              		.cfi_offset 4, -12
 2124              		.cfi_offset 5, -8
 2125              		.cfi_offset 14, -4
 2126 0002 0446     		mov	r4, r0
 444:Middlewares/ST/STM32_USB_Host_Library/Core/Src/usbh_core.c ****   {
 2127              		.loc 1 444 3 is_stmt 1 view .LVU752
 444:Middlewares/ST/STM32_USB_Host_Library/Core/Src/usbh_core.c ****   {
 2128              		.loc 1 444 7 is_stmt 0 view .LVU753
 2129 0004 FFF7FEFF 		bl	USBH_IsPortEnabled
 2130              	.LVL163:
ARM GAS  /tmp/ccBJZy1z.s 			page 72


 444:Middlewares/ST/STM32_USB_Host_Library/Core/Src/usbh_core.c ****   {
 2131              		.loc 1 444 6 view .LVU754
 2132 0008 08B9     		cbnz	r0, .L145
 2133              	.L143:
 463:Middlewares/ST/STM32_USB_Host_Library/Core/Src/usbh_core.c **** }
 2134              		.loc 1 463 3 is_stmt 1 view .LVU755
 464:Middlewares/ST/STM32_USB_Host_Library/Core/Src/usbh_core.c **** 
 2135              		.loc 1 464 1 is_stmt 0 view .LVU756
 2136 000a 0020     		movs	r0, #0
 2137 000c 38BD     		pop	{r3, r4, r5, pc}
 2138              	.LVL164:
 2139              	.L145:
 446:Middlewares/ST/STM32_USB_Host_Library/Core/Src/usbh_core.c **** 
 2140              		.loc 1 446 5 is_stmt 1 view .LVU757
 446:Middlewares/ST/STM32_USB_Host_Library/Core/Src/usbh_core.c **** 
 2141              		.loc 1 446 35 is_stmt 0 view .LVU758
 2142 000e 0125     		movs	r5, #1
 2143 0010 84F82253 		strb	r5, [r4, #802]
 449:Middlewares/ST/STM32_USB_Host_Library/Core/Src/usbh_core.c **** 
 2144              		.loc 1 449 5 is_stmt 1 view .LVU759
 449:Middlewares/ST/STM32_USB_Host_Library/Core/Src/usbh_core.c **** 
 2145              		.loc 1 449 11 is_stmt 0 view .LVU760
 2146 0014 2046     		mov	r0, r4
 2147 0016 FFF7FEFF 		bl	USBH_Stop
 2148              	.LVL165:
 451:Middlewares/ST/STM32_USB_Host_Library/Core/Src/usbh_core.c ****   }
 2149              		.loc 1 451 5 is_stmt 1 view .LVU761
 451:Middlewares/ST/STM32_USB_Host_Library/Core/Src/usbh_core.c ****   }
 2150              		.loc 1 451 35 is_stmt 0 view .LVU762
 2151 001a 84F82153 		strb	r5, [r4, #801]
 2152 001e F4E7     		b	.L143
 2153              		.cfi_endproc
 2154              	.LFE143:
 2156              		.section	.text.USBH_LL_Connect,"ax",%progbits
 2157              		.align	1
 2158              		.global	USBH_LL_Connect
 2159              		.syntax unified
 2160              		.thumb
 2161              		.thumb_func
 2162              		.fpu fpv4-sp-d16
 2164              	USBH_LL_Connect:
 2165              	.LVL166:
 2166              	.LFB152:
1263:Middlewares/ST/STM32_USB_Host_Library/Core/Src/usbh_core.c **** 
1264:Middlewares/ST/STM32_USB_Host_Library/Core/Src/usbh_core.c **** 
1265:Middlewares/ST/STM32_USB_Host_Library/Core/Src/usbh_core.c **** /**
1266:Middlewares/ST/STM32_USB_Host_Library/Core/Src/usbh_core.c ****   * @brief  USBH_LL_Connect
1267:Middlewares/ST/STM32_USB_Host_Library/Core/Src/usbh_core.c ****   *         Handle USB Host connexion event
1268:Middlewares/ST/STM32_USB_Host_Library/Core/Src/usbh_core.c ****   * @param  phost: Host Handle
1269:Middlewares/ST/STM32_USB_Host_Library/Core/Src/usbh_core.c ****   * @retval USBH_Status
1270:Middlewares/ST/STM32_USB_Host_Library/Core/Src/usbh_core.c ****   */
1271:Middlewares/ST/STM32_USB_Host_Library/Core/Src/usbh_core.c **** USBH_StatusTypeDef  USBH_LL_Connect(USBH_HandleTypeDef *phost)
1272:Middlewares/ST/STM32_USB_Host_Library/Core/Src/usbh_core.c **** {
 2167              		.loc 1 1272 1 is_stmt 1 view -0
 2168              		.cfi_startproc
 2169              		@ args = 0, pretend = 0, frame = 0
 2170              		@ frame_needed = 0, uses_anonymous_args = 0
ARM GAS  /tmp/ccBJZy1z.s 			page 73


 2171              		@ link register save eliminated.
 2172              		.loc 1 1272 1 is_stmt 0 view .LVU764
 2173 0000 0346     		mov	r3, r0
1273:Middlewares/ST/STM32_USB_Host_Library/Core/Src/usbh_core.c ****   phost->device.is_connected = 1U;
 2174              		.loc 1 1273 3 is_stmt 1 view .LVU765
 2175              		.loc 1 1273 30 is_stmt 0 view .LVU766
 2176 0002 0122     		movs	r2, #1
 2177 0004 80F82023 		strb	r2, [r0, #800]
1274:Middlewares/ST/STM32_USB_Host_Library/Core/Src/usbh_core.c ****   phost->device.is_disconnected = 0U;
 2178              		.loc 1 1274 3 is_stmt 1 view .LVU767
 2179              		.loc 1 1274 33 is_stmt 0 view .LVU768
 2180 0008 0020     		movs	r0, #0
 2181              	.LVL167:
 2182              		.loc 1 1274 33 view .LVU769
 2183 000a 83F82103 		strb	r0, [r3, #801]
1275:Middlewares/ST/STM32_USB_Host_Library/Core/Src/usbh_core.c ****   phost->device.is_ReEnumerated = 0U;
 2184              		.loc 1 1275 3 is_stmt 1 view .LVU770
 2185              		.loc 1 1275 33 is_stmt 0 view .LVU771
 2186 000e 83F82203 		strb	r0, [r3, #802]
1276:Middlewares/ST/STM32_USB_Host_Library/Core/Src/usbh_core.c **** 
1277:Middlewares/ST/STM32_USB_Host_Library/Core/Src/usbh_core.c **** 
1278:Middlewares/ST/STM32_USB_Host_Library/Core/Src/usbh_core.c **** #if (USBH_USE_OS == 1U)
1279:Middlewares/ST/STM32_USB_Host_Library/Core/Src/usbh_core.c ****   phost->os_msg = (uint32_t)USBH_PORT_EVENT;
1280:Middlewares/ST/STM32_USB_Host_Library/Core/Src/usbh_core.c **** #if (osCMSIS < 0x20000U)
1281:Middlewares/ST/STM32_USB_Host_Library/Core/Src/usbh_core.c ****   (void)osMessagePut(phost->os_event, phost->os_msg, 0U);
1282:Middlewares/ST/STM32_USB_Host_Library/Core/Src/usbh_core.c **** #else
1283:Middlewares/ST/STM32_USB_Host_Library/Core/Src/usbh_core.c ****   (void)osMessageQueuePut(phost->os_event, &phost->os_msg, 0U, 0U);
1284:Middlewares/ST/STM32_USB_Host_Library/Core/Src/usbh_core.c **** #endif
1285:Middlewares/ST/STM32_USB_Host_Library/Core/Src/usbh_core.c **** #endif
1286:Middlewares/ST/STM32_USB_Host_Library/Core/Src/usbh_core.c **** 
1287:Middlewares/ST/STM32_USB_Host_Library/Core/Src/usbh_core.c ****   return USBH_OK;
 2187              		.loc 1 1287 3 is_stmt 1 view .LVU772
1288:Middlewares/ST/STM32_USB_Host_Library/Core/Src/usbh_core.c **** }
 2188              		.loc 1 1288 1 is_stmt 0 view .LVU773
 2189 0012 7047     		bx	lr
 2190              		.cfi_endproc
 2191              	.LFE152:
 2193              		.section	.text.USBH_LL_Disconnect,"ax",%progbits
 2194              		.align	1
 2195              		.global	USBH_LL_Disconnect
 2196              		.syntax unified
 2197              		.thumb
 2198              		.thumb_func
 2199              		.fpu fpv4-sp-d16
 2201              	USBH_LL_Disconnect:
 2202              	.LVL168:
 2203              	.LFB153:
1289:Middlewares/ST/STM32_USB_Host_Library/Core/Src/usbh_core.c **** 
1290:Middlewares/ST/STM32_USB_Host_Library/Core/Src/usbh_core.c **** 
1291:Middlewares/ST/STM32_USB_Host_Library/Core/Src/usbh_core.c **** /**
1292:Middlewares/ST/STM32_USB_Host_Library/Core/Src/usbh_core.c ****   * @brief  USBH_LL_Disconnect
1293:Middlewares/ST/STM32_USB_Host_Library/Core/Src/usbh_core.c ****   *         Handle USB Host disconnection event
1294:Middlewares/ST/STM32_USB_Host_Library/Core/Src/usbh_core.c ****   * @param  phost: Host Handle
1295:Middlewares/ST/STM32_USB_Host_Library/Core/Src/usbh_core.c ****   * @retval USBH_Status
1296:Middlewares/ST/STM32_USB_Host_Library/Core/Src/usbh_core.c ****   */
1297:Middlewares/ST/STM32_USB_Host_Library/Core/Src/usbh_core.c **** USBH_StatusTypeDef  USBH_LL_Disconnect(USBH_HandleTypeDef *phost)
1298:Middlewares/ST/STM32_USB_Host_Library/Core/Src/usbh_core.c **** {
ARM GAS  /tmp/ccBJZy1z.s 			page 74


 2204              		.loc 1 1298 1 is_stmt 1 view -0
 2205              		.cfi_startproc
 2206              		@ args = 0, pretend = 0, frame = 0
 2207              		@ frame_needed = 0, uses_anonymous_args = 0
 2208              		.loc 1 1298 1 is_stmt 0 view .LVU775
 2209 0000 38B5     		push	{r3, r4, r5, lr}
 2210              		.cfi_def_cfa_offset 16
 2211              		.cfi_offset 3, -16
 2212              		.cfi_offset 4, -12
 2213              		.cfi_offset 5, -8
 2214              		.cfi_offset 14, -4
 2215 0002 0446     		mov	r4, r0
1299:Middlewares/ST/STM32_USB_Host_Library/Core/Src/usbh_core.c ****   /* update device connection states */
1300:Middlewares/ST/STM32_USB_Host_Library/Core/Src/usbh_core.c ****   phost->device.is_disconnected = 1U;
 2216              		.loc 1 1300 3 is_stmt 1 view .LVU776
 2217              		.loc 1 1300 33 is_stmt 0 view .LVU777
 2218 0004 0123     		movs	r3, #1
 2219 0006 80F82133 		strb	r3, [r0, #801]
1301:Middlewares/ST/STM32_USB_Host_Library/Core/Src/usbh_core.c ****   phost->device.is_connected = 0U;
 2220              		.loc 1 1301 3 is_stmt 1 view .LVU778
 2221              		.loc 1 1301 30 is_stmt 0 view .LVU779
 2222 000a 0025     		movs	r5, #0
 2223 000c 80F82053 		strb	r5, [r0, #800]
1302:Middlewares/ST/STM32_USB_Host_Library/Core/Src/usbh_core.c ****   phost->device.PortEnabled = 0U;
 2224              		.loc 1 1302 3 is_stmt 1 view .LVU780
 2225              		.loc 1 1302 29 is_stmt 0 view .LVU781
 2226 0010 80F82353 		strb	r5, [r0, #803]
1303:Middlewares/ST/STM32_USB_Host_Library/Core/Src/usbh_core.c **** 
1304:Middlewares/ST/STM32_USB_Host_Library/Core/Src/usbh_core.c ****   /* Stop Host */
1305:Middlewares/ST/STM32_USB_Host_Library/Core/Src/usbh_core.c ****   (void)USBH_LL_Stop(phost);
 2227              		.loc 1 1305 3 is_stmt 1 view .LVU782
 2228              		.loc 1 1305 9 is_stmt 0 view .LVU783
 2229 0014 FFF7FEFF 		bl	USBH_LL_Stop
 2230              	.LVL169:
1306:Middlewares/ST/STM32_USB_Host_Library/Core/Src/usbh_core.c **** 
1307:Middlewares/ST/STM32_USB_Host_Library/Core/Src/usbh_core.c ****   /* FRee Control Pipes */
1308:Middlewares/ST/STM32_USB_Host_Library/Core/Src/usbh_core.c ****   (void)USBH_FreePipe(phost, phost->Control.pipe_in);
 2231              		.loc 1 1308 3 is_stmt 1 view .LVU784
 2232              		.loc 1 1308 9 is_stmt 0 view .LVU785
 2233 0018 2179     		ldrb	r1, [r4, #4]	@ zero_extendqisi2
 2234 001a 2046     		mov	r0, r4
 2235 001c FFF7FEFF 		bl	USBH_FreePipe
 2236              	.LVL170:
1309:Middlewares/ST/STM32_USB_Host_Library/Core/Src/usbh_core.c ****   (void)USBH_FreePipe(phost, phost->Control.pipe_out);
 2237              		.loc 1 1309 3 is_stmt 1 view .LVU786
 2238              		.loc 1 1309 9 is_stmt 0 view .LVU787
 2239 0020 6179     		ldrb	r1, [r4, #5]	@ zero_extendqisi2
 2240 0022 2046     		mov	r0, r4
 2241 0024 FFF7FEFF 		bl	USBH_FreePipe
 2242              	.LVL171:
1310:Middlewares/ST/STM32_USB_Host_Library/Core/Src/usbh_core.c **** #if (USBH_USE_OS == 1U)
1311:Middlewares/ST/STM32_USB_Host_Library/Core/Src/usbh_core.c ****   phost->os_msg = (uint32_t)USBH_PORT_EVENT;
1312:Middlewares/ST/STM32_USB_Host_Library/Core/Src/usbh_core.c **** #if (osCMSIS < 0x20000U)
1313:Middlewares/ST/STM32_USB_Host_Library/Core/Src/usbh_core.c ****   (void)osMessagePut(phost->os_event, phost->os_msg, 0U);
1314:Middlewares/ST/STM32_USB_Host_Library/Core/Src/usbh_core.c **** #else
1315:Middlewares/ST/STM32_USB_Host_Library/Core/Src/usbh_core.c ****   (void)osMessageQueuePut(phost->os_event, &phost->os_msg, 0U, 0U);
1316:Middlewares/ST/STM32_USB_Host_Library/Core/Src/usbh_core.c **** #endif
ARM GAS  /tmp/ccBJZy1z.s 			page 75


1317:Middlewares/ST/STM32_USB_Host_Library/Core/Src/usbh_core.c **** #endif
1318:Middlewares/ST/STM32_USB_Host_Library/Core/Src/usbh_core.c **** 
1319:Middlewares/ST/STM32_USB_Host_Library/Core/Src/usbh_core.c ****   return USBH_OK;
 2243              		.loc 1 1319 3 is_stmt 1 view .LVU788
1320:Middlewares/ST/STM32_USB_Host_Library/Core/Src/usbh_core.c **** }
 2244              		.loc 1 1320 1 is_stmt 0 view .LVU789
 2245 0028 2846     		mov	r0, r5
 2246 002a 38BD     		pop	{r3, r4, r5, pc}
 2247              		.loc 1 1320 1 view .LVU790
 2248              		.cfi_endproc
 2249              	.LFE153:
 2251              		.text
 2252              	.Letext0:
 2253              		.file 2 "/usr/include/newlib/machine/_default_types.h"
 2254              		.file 3 "/usr/lib/gcc/arm-none-eabi/9.2.1/include/stddef.h"
 2255              		.file 4 "/usr/include/newlib/sys/_types.h"
 2256              		.file 5 "/usr/include/newlib/sys/reent.h"
 2257              		.file 6 "/usr/include/newlib/sys/lock.h"
 2258              		.file 7 "/usr/include/newlib/sys/_stdint.h"
 2259              		.file 8 "/usr/include/newlib/stdlib.h"
 2260              		.file 9 "Drivers/CMSIS/Include/core_cm4.h"
 2261              		.file 10 "Drivers/CMSIS/Device/ST/STM32F4xx/Include/system_stm32f4xx.h"
 2262              		.file 11 "Drivers/STM32F4xx_HAL_Driver/Inc/stm32f4xx_hal.h"
 2263              		.file 12 "Middlewares/ST/STM32_USB_Host_Library/Core/Inc/usbh_def.h"
 2264              		.file 13 "Middlewares/ST/STM32_USB_Host_Library/Core/Inc/usbh_ctlreq.h"
 2265              		.file 14 "Middlewares/ST/STM32_USB_Host_Library/Core/Inc/usbh_core.h"
 2266              		.file 15 "Middlewares/ST/STM32_USB_Host_Library/Core/Inc/usbh_pipes.h"
ARM GAS  /tmp/ccBJZy1z.s 			page 76


DEFINED SYMBOLS
                            *ABS*:0000000000000000 usbh_core.c
     /tmp/ccBJZy1z.s:18     .text.DeInitStateMachine:0000000000000000 $t
     /tmp/ccBJZy1z.s:25     .text.DeInitStateMachine:0000000000000000 DeInitStateMachine
     /tmp/ccBJZy1z.s:135    .text.USBH_HandleSof:0000000000000000 $t
     /tmp/ccBJZy1z.s:141    .text.USBH_HandleSof:0000000000000000 USBH_HandleSof
     /tmp/ccBJZy1z.s:183    .text.USBH_HandleEnum:0000000000000000 $t
     /tmp/ccBJZy1z.s:189    .text.USBH_HandleEnum:0000000000000000 USBH_HandleEnum
     /tmp/ccBJZy1z.s:216    .text.USBH_HandleEnum:0000000000000012 $d
     /tmp/ccBJZy1z.s:224    .text.USBH_HandleEnum:0000000000000022 $t
     /tmp/ccBJZy1z.s:796    .text.USBH_Init:0000000000000000 $t
     /tmp/ccBJZy1z.s:803    .text.USBH_Init:0000000000000000 USBH_Init
     /tmp/ccBJZy1z.s:881    .text.USBH_DeInit:0000000000000000 $t
     /tmp/ccBJZy1z.s:888    .text.USBH_DeInit:0000000000000000 USBH_DeInit
     /tmp/ccBJZy1z.s:944    .text.USBH_RegisterClass:0000000000000000 $t
     /tmp/ccBJZy1z.s:951    .text.USBH_RegisterClass:0000000000000000 USBH_RegisterClass
     /tmp/ccBJZy1z.s:1003   .text.USBH_SelectInterface:0000000000000000 $t
     /tmp/ccBJZy1z.s:1010   .text.USBH_SelectInterface:0000000000000000 USBH_SelectInterface
     /tmp/ccBJZy1z.s:1057   .text.USBH_GetActiveClass:0000000000000000 $t
     /tmp/ccBJZy1z.s:1064   .text.USBH_GetActiveClass:0000000000000000 USBH_GetActiveClass
     /tmp/ccBJZy1z.s:1082   .text.USBH_FindInterface:0000000000000000 $t
     /tmp/ccBJZy1z.s:1089   .text.USBH_FindInterface:0000000000000000 USBH_FindInterface
     /tmp/ccBJZy1z.s:1186   .text.USBH_FindInterfaceIndex:0000000000000000 $t
     /tmp/ccBJZy1z.s:1193   .text.USBH_FindInterfaceIndex:0000000000000000 USBH_FindInterfaceIndex
     /tmp/ccBJZy1z.s:1266   .text.USBH_Start:0000000000000000 $t
     /tmp/ccBJZy1z.s:1273   .text.USBH_Start:0000000000000000 USBH_Start
     /tmp/ccBJZy1z.s:1305   .text.USBH_Stop:0000000000000000 $t
     /tmp/ccBJZy1z.s:1312   .text.USBH_Stop:0000000000000000 USBH_Stop
     /tmp/ccBJZy1z.s:1356   .text.USBH_Process:0000000000000000 $t
     /tmp/ccBJZy1z.s:1363   .text.USBH_Process:0000000000000000 USBH_Process
     /tmp/ccBJZy1z.s:1401   .text.USBH_Process:0000000000000022 $d
     /tmp/ccBJZy1z.s:1413   .text.USBH_Process:000000000000003a $t
     /tmp/ccBJZy1z.s:1970   .text.USBH_LL_SetTimer:0000000000000000 $t
     /tmp/ccBJZy1z.s:1977   .text.USBH_LL_SetTimer:0000000000000000 USBH_LL_SetTimer
     /tmp/ccBJZy1z.s:1994   .text.USBH_LL_IncTimer:0000000000000000 $t
     /tmp/ccBJZy1z.s:2001   .text.USBH_LL_IncTimer:0000000000000000 USBH_LL_IncTimer
     /tmp/ccBJZy1z.s:2028   .text.USBH_LL_PortEnabled:0000000000000000 $t
     /tmp/ccBJZy1z.s:2035   .text.USBH_LL_PortEnabled:0000000000000000 USBH_LL_PortEnabled
     /tmp/ccBJZy1z.s:2054   .text.USBH_LL_PortDisabled:0000000000000000 $t
     /tmp/ccBJZy1z.s:2061   .text.USBH_LL_PortDisabled:0000000000000000 USBH_LL_PortDisabled
     /tmp/ccBJZy1z.s:2080   .text.USBH_IsPortEnabled:0000000000000000 $t
     /tmp/ccBJZy1z.s:2087   .text.USBH_IsPortEnabled:0000000000000000 USBH_IsPortEnabled
     /tmp/ccBJZy1z.s:2105   .text.USBH_ReEnumerate:0000000000000000 $t
     /tmp/ccBJZy1z.s:2112   .text.USBH_ReEnumerate:0000000000000000 USBH_ReEnumerate
     /tmp/ccBJZy1z.s:2157   .text.USBH_LL_Connect:0000000000000000 $t
     /tmp/ccBJZy1z.s:2164   .text.USBH_LL_Connect:0000000000000000 USBH_LL_Connect
     /tmp/ccBJZy1z.s:2194   .text.USBH_LL_Disconnect:0000000000000000 $t
     /tmp/ccBJZy1z.s:2201   .text.USBH_LL_Disconnect:0000000000000000 USBH_LL_Disconnect

UNDEFINED SYMBOLS
USBH_Get_DevDesc
USBH_OpenPipe
USBH_FreePipe
USBH_SetAddress
USBH_Delay
USBH_Get_CfgDesc
USBH_Get_StringDesc
ARM GAS  /tmp/ccBJZy1z.s 			page 77


USBH_LL_Init
USBH_LL_Stop
USBH_LL_Start
USBH_LL_DriverVBUS
USBH_LL_ResetPort
USBH_LL_GetSpeed
USBH_AllocPipe
USBH_SetCfg
USBH_SetFeature
