ARM GAS  /tmp/cct9D8fn.s 			page 1


   1              		.cpu cortex-m4
   2              		.eabi_attribute 27, 1
   3              		.eabi_attribute 28, 1
   4              		.eabi_attribute 20, 1
   5              		.eabi_attribute 21, 1
   6              		.eabi_attribute 23, 3
   7              		.eabi_attribute 24, 1
   8              		.eabi_attribute 25, 1
   9              		.eabi_attribute 26, 1
  10              		.eabi_attribute 30, 1
  11              		.eabi_attribute 34, 1
  12              		.eabi_attribute 18, 4
  13              		.file	"usbh_conf.c"
  14              		.text
  15              	.Ltext0:
  16              		.cfi_sections	.debug_frame
  17              		.section	.text.HAL_HCD_MspInit,"ax",%progbits
  18              		.align	1
  19              		.global	HAL_HCD_MspInit
  20              		.arch armv7e-m
  21              		.syntax unified
  22              		.thumb
  23              		.thumb_func
  24              		.fpu fpv4-sp-d16
  26              	HAL_HCD_MspInit:
  27              	.LVL0:
  28              	.LFB133:
  29              		.file 1 "USB_HOST/Target/usbh_conf.c"
   1:USB_HOST/Target/usbh_conf.c **** /* USER CODE BEGIN Header */
   2:USB_HOST/Target/usbh_conf.c **** /**
   3:USB_HOST/Target/usbh_conf.c ****   ******************************************************************************
   4:USB_HOST/Target/usbh_conf.c ****   * @file           : Target/usbh_conf.c
   5:USB_HOST/Target/usbh_conf.c ****   * @version        : v1.0_Cube
   6:USB_HOST/Target/usbh_conf.c ****   * @brief          : This file implements the board support package for the USB host library
   7:USB_HOST/Target/usbh_conf.c ****   ******************************************************************************
   8:USB_HOST/Target/usbh_conf.c ****   * @attention
   9:USB_HOST/Target/usbh_conf.c ****   *
  10:USB_HOST/Target/usbh_conf.c ****   * Copyright (c) 2023 STMicroelectronics.
  11:USB_HOST/Target/usbh_conf.c ****   * All rights reserved.
  12:USB_HOST/Target/usbh_conf.c ****   *
  13:USB_HOST/Target/usbh_conf.c ****   * This software is licensed under terms that can be found in the LICENSE file
  14:USB_HOST/Target/usbh_conf.c ****   * in the root directory of this software component.
  15:USB_HOST/Target/usbh_conf.c ****   * If no LICENSE file comes with this software, it is provided AS-IS.
  16:USB_HOST/Target/usbh_conf.c ****   *
  17:USB_HOST/Target/usbh_conf.c ****   ******************************************************************************
  18:USB_HOST/Target/usbh_conf.c ****   */
  19:USB_HOST/Target/usbh_conf.c **** /* USER CODE END Header */
  20:USB_HOST/Target/usbh_conf.c **** 
  21:USB_HOST/Target/usbh_conf.c **** /* Includes ------------------------------------------------------------------*/
  22:USB_HOST/Target/usbh_conf.c **** #include "usbh_core.h"
  23:USB_HOST/Target/usbh_conf.c **** #include "usbh_platform.h"
  24:USB_HOST/Target/usbh_conf.c **** 
  25:USB_HOST/Target/usbh_conf.c **** /* USER CODE BEGIN Includes */
  26:USB_HOST/Target/usbh_conf.c **** 
  27:USB_HOST/Target/usbh_conf.c **** /* USER CODE END Includes */
  28:USB_HOST/Target/usbh_conf.c **** 
  29:USB_HOST/Target/usbh_conf.c **** /* Private typedef -----------------------------------------------------------*/
ARM GAS  /tmp/cct9D8fn.s 			page 2


  30:USB_HOST/Target/usbh_conf.c **** /* Private define ------------------------------------------------------------*/
  31:USB_HOST/Target/usbh_conf.c **** /* Private macro -------------------------------------------------------------*/
  32:USB_HOST/Target/usbh_conf.c **** 
  33:USB_HOST/Target/usbh_conf.c **** /* USER CODE BEGIN PV */
  34:USB_HOST/Target/usbh_conf.c **** /* Private variables ---------------------------------------------------------*/
  35:USB_HOST/Target/usbh_conf.c **** 
  36:USB_HOST/Target/usbh_conf.c **** /* USER CODE END PV */
  37:USB_HOST/Target/usbh_conf.c **** 
  38:USB_HOST/Target/usbh_conf.c **** HCD_HandleTypeDef hhcd_USB_OTG_FS;
  39:USB_HOST/Target/usbh_conf.c **** void Error_Handler(void);
  40:USB_HOST/Target/usbh_conf.c **** 
  41:USB_HOST/Target/usbh_conf.c **** /* USER CODE BEGIN 0 */
  42:USB_HOST/Target/usbh_conf.c **** 
  43:USB_HOST/Target/usbh_conf.c **** /* USER CODE END 0 */
  44:USB_HOST/Target/usbh_conf.c **** 
  45:USB_HOST/Target/usbh_conf.c **** /* USER CODE BEGIN PFP */
  46:USB_HOST/Target/usbh_conf.c **** /* Private function prototypes -----------------------------------------------*/
  47:USB_HOST/Target/usbh_conf.c **** USBH_StatusTypeDef USBH_Get_USB_Status(HAL_StatusTypeDef hal_status);
  48:USB_HOST/Target/usbh_conf.c **** 
  49:USB_HOST/Target/usbh_conf.c **** /* USER CODE END PFP */
  50:USB_HOST/Target/usbh_conf.c **** 
  51:USB_HOST/Target/usbh_conf.c **** /* Private functions ---------------------------------------------------------*/
  52:USB_HOST/Target/usbh_conf.c **** 
  53:USB_HOST/Target/usbh_conf.c **** /* USER CODE BEGIN 1 */
  54:USB_HOST/Target/usbh_conf.c **** 
  55:USB_HOST/Target/usbh_conf.c **** /* USER CODE END 1 */
  56:USB_HOST/Target/usbh_conf.c **** 
  57:USB_HOST/Target/usbh_conf.c **** /*******************************************************************************
  58:USB_HOST/Target/usbh_conf.c ****                        LL Driver Callbacks (HCD -> USB Host Library)
  59:USB_HOST/Target/usbh_conf.c **** *******************************************************************************/
  60:USB_HOST/Target/usbh_conf.c **** /* MSP Init */
  61:USB_HOST/Target/usbh_conf.c **** 
  62:USB_HOST/Target/usbh_conf.c **** void HAL_HCD_MspInit(HCD_HandleTypeDef* hcdHandle)
  63:USB_HOST/Target/usbh_conf.c **** {
  30              		.loc 1 63 1 view -0
  31              		.cfi_startproc
  32              		@ args = 0, pretend = 0, frame = 32
  33              		@ frame_needed = 0, uses_anonymous_args = 0
  34              		.loc 1 63 1 is_stmt 0 view .LVU1
  35 0000 70B5     		push	{r4, r5, r6, lr}
  36              		.cfi_def_cfa_offset 16
  37              		.cfi_offset 4, -16
  38              		.cfi_offset 5, -12
  39              		.cfi_offset 6, -8
  40              		.cfi_offset 14, -4
  41 0002 88B0     		sub	sp, sp, #32
  42              		.cfi_def_cfa_offset 48
  64:USB_HOST/Target/usbh_conf.c ****   GPIO_InitTypeDef GPIO_InitStruct = {0};
  43              		.loc 1 64 3 is_stmt 1 view .LVU2
  44              		.loc 1 64 20 is_stmt 0 view .LVU3
  45 0004 0023     		movs	r3, #0
  46 0006 0393     		str	r3, [sp, #12]
  47 0008 0493     		str	r3, [sp, #16]
  48 000a 0593     		str	r3, [sp, #20]
  49 000c 0693     		str	r3, [sp, #24]
  50 000e 0793     		str	r3, [sp, #28]
  65:USB_HOST/Target/usbh_conf.c ****   if(hcdHandle->Instance==USB_OTG_FS)
ARM GAS  /tmp/cct9D8fn.s 			page 3


  51              		.loc 1 65 3 is_stmt 1 view .LVU4
  52              		.loc 1 65 15 is_stmt 0 view .LVU5
  53 0010 0368     		ldr	r3, [r0]
  54              		.loc 1 65 5 view .LVU6
  55 0012 B3F1A04F 		cmp	r3, #1342177280
  56 0016 01D0     		beq	.L4
  57              	.LVL1:
  58              	.L1:
  66:USB_HOST/Target/usbh_conf.c ****   {
  67:USB_HOST/Target/usbh_conf.c ****   /* USER CODE BEGIN USB_OTG_FS_MspInit 0 */
  68:USB_HOST/Target/usbh_conf.c **** 
  69:USB_HOST/Target/usbh_conf.c ****   /* USER CODE END USB_OTG_FS_MspInit 0 */
  70:USB_HOST/Target/usbh_conf.c **** 
  71:USB_HOST/Target/usbh_conf.c ****     __HAL_RCC_GPIOA_CLK_ENABLE();
  72:USB_HOST/Target/usbh_conf.c ****     /**USB_OTG_FS GPIO Configuration
  73:USB_HOST/Target/usbh_conf.c ****     PA9     ------> USB_OTG_FS_VBUS
  74:USB_HOST/Target/usbh_conf.c ****     PA10     ------> USB_OTG_FS_ID
  75:USB_HOST/Target/usbh_conf.c ****     PA11     ------> USB_OTG_FS_DM
  76:USB_HOST/Target/usbh_conf.c ****     PA12     ------> USB_OTG_FS_DP
  77:USB_HOST/Target/usbh_conf.c ****     */
  78:USB_HOST/Target/usbh_conf.c ****     GPIO_InitStruct.Pin = VBUS_FS_Pin;
  79:USB_HOST/Target/usbh_conf.c ****     GPIO_InitStruct.Mode = GPIO_MODE_INPUT;
  80:USB_HOST/Target/usbh_conf.c ****     GPIO_InitStruct.Pull = GPIO_NOPULL;
  81:USB_HOST/Target/usbh_conf.c ****     HAL_GPIO_Init(VBUS_FS_GPIO_Port, &GPIO_InitStruct);
  82:USB_HOST/Target/usbh_conf.c **** 
  83:USB_HOST/Target/usbh_conf.c ****     GPIO_InitStruct.Pin = OTG_FS_ID_Pin|OTG_FS_DM_Pin|OTG_FS_DP_Pin;
  84:USB_HOST/Target/usbh_conf.c ****     GPIO_InitStruct.Mode = GPIO_MODE_AF_PP;
  85:USB_HOST/Target/usbh_conf.c ****     GPIO_InitStruct.Pull = GPIO_NOPULL;
  86:USB_HOST/Target/usbh_conf.c ****     GPIO_InitStruct.Speed = GPIO_SPEED_FREQ_LOW;
  87:USB_HOST/Target/usbh_conf.c ****     GPIO_InitStruct.Alternate = GPIO_AF10_OTG_FS;
  88:USB_HOST/Target/usbh_conf.c ****     HAL_GPIO_Init(GPIOA, &GPIO_InitStruct);
  89:USB_HOST/Target/usbh_conf.c **** 
  90:USB_HOST/Target/usbh_conf.c ****     /* Peripheral clock enable */
  91:USB_HOST/Target/usbh_conf.c ****     __HAL_RCC_USB_OTG_FS_CLK_ENABLE();
  92:USB_HOST/Target/usbh_conf.c **** 
  93:USB_HOST/Target/usbh_conf.c ****     /* Peripheral interrupt init */
  94:USB_HOST/Target/usbh_conf.c ****     HAL_NVIC_SetPriority(OTG_FS_IRQn, 0, 0);
  95:USB_HOST/Target/usbh_conf.c ****     HAL_NVIC_EnableIRQ(OTG_FS_IRQn);
  96:USB_HOST/Target/usbh_conf.c ****   /* USER CODE BEGIN USB_OTG_FS_MspInit 1 */
  97:USB_HOST/Target/usbh_conf.c **** 
  98:USB_HOST/Target/usbh_conf.c ****   /* USER CODE END USB_OTG_FS_MspInit 1 */
  99:USB_HOST/Target/usbh_conf.c ****   }
 100:USB_HOST/Target/usbh_conf.c **** }
  59              		.loc 1 100 1 view .LVU7
  60 0018 08B0     		add	sp, sp, #32
  61              		.cfi_remember_state
  62              		.cfi_def_cfa_offset 16
  63              		@ sp needed
  64 001a 70BD     		pop	{r4, r5, r6, pc}
  65              	.LVL2:
  66              	.L4:
  67              		.cfi_restore_state
  71:USB_HOST/Target/usbh_conf.c ****     /**USB_OTG_FS GPIO Configuration
  68              		.loc 1 71 5 is_stmt 1 view .LVU8
  69              	.LBB2:
  71:USB_HOST/Target/usbh_conf.c ****     /**USB_OTG_FS GPIO Configuration
  70              		.loc 1 71 5 view .LVU9
ARM GAS  /tmp/cct9D8fn.s 			page 4


  71 001c 0024     		movs	r4, #0
  72 001e 0194     		str	r4, [sp, #4]
  71:USB_HOST/Target/usbh_conf.c ****     /**USB_OTG_FS GPIO Configuration
  73              		.loc 1 71 5 view .LVU10
  74 0020 1B4D     		ldr	r5, .L5
  75 0022 2B6B     		ldr	r3, [r5, #48]
  76 0024 43F00103 		orr	r3, r3, #1
  77 0028 2B63     		str	r3, [r5, #48]
  71:USB_HOST/Target/usbh_conf.c ****     /**USB_OTG_FS GPIO Configuration
  78              		.loc 1 71 5 view .LVU11
  79 002a 2B6B     		ldr	r3, [r5, #48]
  80 002c 03F00103 		and	r3, r3, #1
  81 0030 0193     		str	r3, [sp, #4]
  71:USB_HOST/Target/usbh_conf.c ****     /**USB_OTG_FS GPIO Configuration
  82              		.loc 1 71 5 view .LVU12
  83 0032 019B     		ldr	r3, [sp, #4]
  84              	.LBE2:
  71:USB_HOST/Target/usbh_conf.c ****     /**USB_OTG_FS GPIO Configuration
  85              		.loc 1 71 5 view .LVU13
  78:USB_HOST/Target/usbh_conf.c ****     GPIO_InitStruct.Mode = GPIO_MODE_INPUT;
  86              		.loc 1 78 5 view .LVU14
  78:USB_HOST/Target/usbh_conf.c ****     GPIO_InitStruct.Mode = GPIO_MODE_INPUT;
  87              		.loc 1 78 25 is_stmt 0 view .LVU15
  88 0034 4FF40073 		mov	r3, #512
  89 0038 0393     		str	r3, [sp, #12]
  79:USB_HOST/Target/usbh_conf.c ****     GPIO_InitStruct.Pull = GPIO_NOPULL;
  90              		.loc 1 79 5 is_stmt 1 view .LVU16
  79:USB_HOST/Target/usbh_conf.c ****     GPIO_InitStruct.Pull = GPIO_NOPULL;
  91              		.loc 1 79 26 is_stmt 0 view .LVU17
  92 003a 0494     		str	r4, [sp, #16]
  80:USB_HOST/Target/usbh_conf.c ****     HAL_GPIO_Init(VBUS_FS_GPIO_Port, &GPIO_InitStruct);
  93              		.loc 1 80 5 is_stmt 1 view .LVU18
  80:USB_HOST/Target/usbh_conf.c ****     HAL_GPIO_Init(VBUS_FS_GPIO_Port, &GPIO_InitStruct);
  94              		.loc 1 80 26 is_stmt 0 view .LVU19
  95 003c 0594     		str	r4, [sp, #20]
  81:USB_HOST/Target/usbh_conf.c **** 
  96              		.loc 1 81 5 is_stmt 1 view .LVU20
  97 003e 154E     		ldr	r6, .L5+4
  98 0040 03A9     		add	r1, sp, #12
  99 0042 3046     		mov	r0, r6
 100              	.LVL3:
  81:USB_HOST/Target/usbh_conf.c **** 
 101              		.loc 1 81 5 is_stmt 0 view .LVU21
 102 0044 FFF7FEFF 		bl	HAL_GPIO_Init
 103              	.LVL4:
  83:USB_HOST/Target/usbh_conf.c ****     GPIO_InitStruct.Mode = GPIO_MODE_AF_PP;
 104              		.loc 1 83 5 is_stmt 1 view .LVU22
  83:USB_HOST/Target/usbh_conf.c ****     GPIO_InitStruct.Mode = GPIO_MODE_AF_PP;
 105              		.loc 1 83 25 is_stmt 0 view .LVU23
 106 0048 4FF4E053 		mov	r3, #7168
 107 004c 0393     		str	r3, [sp, #12]
  84:USB_HOST/Target/usbh_conf.c ****     GPIO_InitStruct.Pull = GPIO_NOPULL;
 108              		.loc 1 84 5 is_stmt 1 view .LVU24
  84:USB_HOST/Target/usbh_conf.c ****     GPIO_InitStruct.Pull = GPIO_NOPULL;
 109              		.loc 1 84 26 is_stmt 0 view .LVU25
 110 004e 0223     		movs	r3, #2
 111 0050 0493     		str	r3, [sp, #16]
ARM GAS  /tmp/cct9D8fn.s 			page 5


  85:USB_HOST/Target/usbh_conf.c ****     GPIO_InitStruct.Speed = GPIO_SPEED_FREQ_LOW;
 112              		.loc 1 85 5 is_stmt 1 view .LVU26
  85:USB_HOST/Target/usbh_conf.c ****     GPIO_InitStruct.Speed = GPIO_SPEED_FREQ_LOW;
 113              		.loc 1 85 26 is_stmt 0 view .LVU27
 114 0052 0594     		str	r4, [sp, #20]
  86:USB_HOST/Target/usbh_conf.c ****     GPIO_InitStruct.Alternate = GPIO_AF10_OTG_FS;
 115              		.loc 1 86 5 is_stmt 1 view .LVU28
  86:USB_HOST/Target/usbh_conf.c ****     GPIO_InitStruct.Alternate = GPIO_AF10_OTG_FS;
 116              		.loc 1 86 27 is_stmt 0 view .LVU29
 117 0054 0694     		str	r4, [sp, #24]
  87:USB_HOST/Target/usbh_conf.c ****     HAL_GPIO_Init(GPIOA, &GPIO_InitStruct);
 118              		.loc 1 87 5 is_stmt 1 view .LVU30
  87:USB_HOST/Target/usbh_conf.c ****     HAL_GPIO_Init(GPIOA, &GPIO_InitStruct);
 119              		.loc 1 87 31 is_stmt 0 view .LVU31
 120 0056 0A23     		movs	r3, #10
 121 0058 0793     		str	r3, [sp, #28]
  88:USB_HOST/Target/usbh_conf.c **** 
 122              		.loc 1 88 5 is_stmt 1 view .LVU32
 123 005a 03A9     		add	r1, sp, #12
 124 005c 3046     		mov	r0, r6
 125 005e FFF7FEFF 		bl	HAL_GPIO_Init
 126              	.LVL5:
  91:USB_HOST/Target/usbh_conf.c **** 
 127              		.loc 1 91 5 view .LVU33
  91:USB_HOST/Target/usbh_conf.c **** 
 128              		.loc 1 91 5 view .LVU34
 129 0062 6B6B     		ldr	r3, [r5, #52]
 130 0064 43F08003 		orr	r3, r3, #128
 131 0068 6B63     		str	r3, [r5, #52]
  91:USB_HOST/Target/usbh_conf.c **** 
 132              		.loc 1 91 5 view .LVU35
 133              	.LBB3:
  91:USB_HOST/Target/usbh_conf.c **** 
 134              		.loc 1 91 5 view .LVU36
 135 006a 0294     		str	r4, [sp, #8]
  91:USB_HOST/Target/usbh_conf.c **** 
 136              		.loc 1 91 5 view .LVU37
 137 006c 6B6C     		ldr	r3, [r5, #68]
 138 006e 43F48043 		orr	r3, r3, #16384
 139 0072 6B64     		str	r3, [r5, #68]
  91:USB_HOST/Target/usbh_conf.c **** 
 140              		.loc 1 91 5 view .LVU38
 141 0074 6B6C     		ldr	r3, [r5, #68]
 142 0076 03F48043 		and	r3, r3, #16384
 143 007a 0293     		str	r3, [sp, #8]
  91:USB_HOST/Target/usbh_conf.c **** 
 144              		.loc 1 91 5 view .LVU39
 145 007c 029B     		ldr	r3, [sp, #8]
 146              	.LBE3:
  91:USB_HOST/Target/usbh_conf.c **** 
 147              		.loc 1 91 5 view .LVU40
  91:USB_HOST/Target/usbh_conf.c **** 
 148              		.loc 1 91 5 view .LVU41
  94:USB_HOST/Target/usbh_conf.c ****     HAL_NVIC_EnableIRQ(OTG_FS_IRQn);
 149              		.loc 1 94 5 view .LVU42
 150 007e 2246     		mov	r2, r4
 151 0080 2146     		mov	r1, r4
ARM GAS  /tmp/cct9D8fn.s 			page 6


 152 0082 4320     		movs	r0, #67
 153 0084 FFF7FEFF 		bl	HAL_NVIC_SetPriority
 154              	.LVL6:
  95:USB_HOST/Target/usbh_conf.c ****   /* USER CODE BEGIN USB_OTG_FS_MspInit 1 */
 155              		.loc 1 95 5 view .LVU43
 156 0088 4320     		movs	r0, #67
 157 008a FFF7FEFF 		bl	HAL_NVIC_EnableIRQ
 158              	.LVL7:
 159              		.loc 1 100 1 is_stmt 0 view .LVU44
 160 008e C3E7     		b	.L1
 161              	.L6:
 162              		.align	2
 163              	.L5:
 164 0090 00380240 		.word	1073887232
 165 0094 00000240 		.word	1073872896
 166              		.cfi_endproc
 167              	.LFE133:
 169              		.section	.text.HAL_HCD_MspDeInit,"ax",%progbits
 170              		.align	1
 171              		.global	HAL_HCD_MspDeInit
 172              		.syntax unified
 173              		.thumb
 174              		.thumb_func
 175              		.fpu fpv4-sp-d16
 177              	HAL_HCD_MspDeInit:
 178              	.LVL8:
 179              	.LFB134:
 101:USB_HOST/Target/usbh_conf.c **** 
 102:USB_HOST/Target/usbh_conf.c **** void HAL_HCD_MspDeInit(HCD_HandleTypeDef* hcdHandle)
 103:USB_HOST/Target/usbh_conf.c **** {
 180              		.loc 1 103 1 is_stmt 1 view -0
 181              		.cfi_startproc
 182              		@ args = 0, pretend = 0, frame = 0
 183              		@ frame_needed = 0, uses_anonymous_args = 0
 184              		.loc 1 103 1 is_stmt 0 view .LVU46
 185 0000 08B5     		push	{r3, lr}
 186              		.cfi_def_cfa_offset 8
 187              		.cfi_offset 3, -8
 188              		.cfi_offset 14, -4
 104:USB_HOST/Target/usbh_conf.c ****   if(hcdHandle->Instance==USB_OTG_FS)
 189              		.loc 1 104 3 is_stmt 1 view .LVU47
 190              		.loc 1 104 15 is_stmt 0 view .LVU48
 191 0002 0368     		ldr	r3, [r0]
 192              		.loc 1 104 5 view .LVU49
 193 0004 B3F1A04F 		cmp	r3, #1342177280
 194 0008 00D0     		beq	.L10
 195              	.LVL9:
 196              	.L7:
 105:USB_HOST/Target/usbh_conf.c ****   {
 106:USB_HOST/Target/usbh_conf.c ****   /* USER CODE BEGIN USB_OTG_FS_MspDeInit 0 */
 107:USB_HOST/Target/usbh_conf.c **** 
 108:USB_HOST/Target/usbh_conf.c ****   /* USER CODE END USB_OTG_FS_MspDeInit 0 */
 109:USB_HOST/Target/usbh_conf.c ****     /* Peripheral clock disable */
 110:USB_HOST/Target/usbh_conf.c ****     __HAL_RCC_USB_OTG_FS_CLK_DISABLE();
 111:USB_HOST/Target/usbh_conf.c **** 
 112:USB_HOST/Target/usbh_conf.c ****     /**USB_OTG_FS GPIO Configuration
 113:USB_HOST/Target/usbh_conf.c ****     PA9     ------> USB_OTG_FS_VBUS
ARM GAS  /tmp/cct9D8fn.s 			page 7


 114:USB_HOST/Target/usbh_conf.c ****     PA10     ------> USB_OTG_FS_ID
 115:USB_HOST/Target/usbh_conf.c ****     PA11     ------> USB_OTG_FS_DM
 116:USB_HOST/Target/usbh_conf.c ****     PA12     ------> USB_OTG_FS_DP
 117:USB_HOST/Target/usbh_conf.c ****     */
 118:USB_HOST/Target/usbh_conf.c ****     HAL_GPIO_DeInit(GPIOA, VBUS_FS_Pin|OTG_FS_ID_Pin|OTG_FS_DM_Pin|OTG_FS_DP_Pin);
 119:USB_HOST/Target/usbh_conf.c **** 
 120:USB_HOST/Target/usbh_conf.c ****     /* Peripheral interrupt Deinit*/
 121:USB_HOST/Target/usbh_conf.c ****     HAL_NVIC_DisableIRQ(OTG_FS_IRQn);
 122:USB_HOST/Target/usbh_conf.c **** 
 123:USB_HOST/Target/usbh_conf.c ****   /* USER CODE BEGIN USB_OTG_FS_MspDeInit 1 */
 124:USB_HOST/Target/usbh_conf.c **** 
 125:USB_HOST/Target/usbh_conf.c ****   /* USER CODE END USB_OTG_FS_MspDeInit 1 */
 126:USB_HOST/Target/usbh_conf.c ****   }
 127:USB_HOST/Target/usbh_conf.c **** }
 197              		.loc 1 127 1 view .LVU50
 198 000a 08BD     		pop	{r3, pc}
 199              	.LVL10:
 200              	.L10:
 110:USB_HOST/Target/usbh_conf.c **** 
 201              		.loc 1 110 5 is_stmt 1 view .LVU51
 202 000c 064A     		ldr	r2, .L11
 203 000e 536B     		ldr	r3, [r2, #52]
 204 0010 23F08003 		bic	r3, r3, #128
 205 0014 5363     		str	r3, [r2, #52]
 118:USB_HOST/Target/usbh_conf.c **** 
 206              		.loc 1 118 5 view .LVU52
 207 0016 4FF4F051 		mov	r1, #7680
 208 001a 0448     		ldr	r0, .L11+4
 209              	.LVL11:
 118:USB_HOST/Target/usbh_conf.c **** 
 210              		.loc 1 118 5 is_stmt 0 view .LVU53
 211 001c FFF7FEFF 		bl	HAL_GPIO_DeInit
 212              	.LVL12:
 121:USB_HOST/Target/usbh_conf.c **** 
 213              		.loc 1 121 5 is_stmt 1 view .LVU54
 214 0020 4320     		movs	r0, #67
 215 0022 FFF7FEFF 		bl	HAL_NVIC_DisableIRQ
 216              	.LVL13:
 217              		.loc 1 127 1 is_stmt 0 view .LVU55
 218 0026 F0E7     		b	.L7
 219              	.L12:
 220              		.align	2
 221              	.L11:
 222 0028 00380240 		.word	1073887232
 223 002c 00000240 		.word	1073872896
 224              		.cfi_endproc
 225              	.LFE134:
 227              		.section	.text.HAL_HCD_SOF_Callback,"ax",%progbits
 228              		.align	1
 229              		.global	HAL_HCD_SOF_Callback
 230              		.syntax unified
 231              		.thumb
 232              		.thumb_func
 233              		.fpu fpv4-sp-d16
 235              	HAL_HCD_SOF_Callback:
 236              	.LVL14:
 237              	.LFB135:
ARM GAS  /tmp/cct9D8fn.s 			page 8


 128:USB_HOST/Target/usbh_conf.c **** 
 129:USB_HOST/Target/usbh_conf.c **** /**
 130:USB_HOST/Target/usbh_conf.c ****   * @brief  SOF callback.
 131:USB_HOST/Target/usbh_conf.c ****   * @param  hhcd: HCD handle
 132:USB_HOST/Target/usbh_conf.c ****   * @retval None
 133:USB_HOST/Target/usbh_conf.c ****   */
 134:USB_HOST/Target/usbh_conf.c **** void HAL_HCD_SOF_Callback(HCD_HandleTypeDef *hhcd)
 135:USB_HOST/Target/usbh_conf.c **** {
 238              		.loc 1 135 1 is_stmt 1 view -0
 239              		.cfi_startproc
 240              		@ args = 0, pretend = 0, frame = 0
 241              		@ frame_needed = 0, uses_anonymous_args = 0
 242              		.loc 1 135 1 is_stmt 0 view .LVU57
 243 0000 08B5     		push	{r3, lr}
 244              		.cfi_def_cfa_offset 8
 245              		.cfi_offset 3, -8
 246              		.cfi_offset 14, -4
 136:USB_HOST/Target/usbh_conf.c ****   USBH_LL_IncTimer(hhcd->pData);
 247              		.loc 1 136 3 is_stmt 1 view .LVU58
 248 0002 D0F80003 		ldr	r0, [r0, #768]
 249              	.LVL15:
 250              		.loc 1 136 3 is_stmt 0 view .LVU59
 251 0006 FFF7FEFF 		bl	USBH_LL_IncTimer
 252              	.LVL16:
 137:USB_HOST/Target/usbh_conf.c **** }
 253              		.loc 1 137 1 view .LVU60
 254 000a 08BD     		pop	{r3, pc}
 255              		.cfi_endproc
 256              	.LFE135:
 258              		.section	.text.HAL_HCD_Connect_Callback,"ax",%progbits
 259              		.align	1
 260              		.global	HAL_HCD_Connect_Callback
 261              		.syntax unified
 262              		.thumb
 263              		.thumb_func
 264              		.fpu fpv4-sp-d16
 266              	HAL_HCD_Connect_Callback:
 267              	.LVL17:
 268              	.LFB136:
 138:USB_HOST/Target/usbh_conf.c **** 
 139:USB_HOST/Target/usbh_conf.c **** /**
 140:USB_HOST/Target/usbh_conf.c ****   * @brief  SOF callback.
 141:USB_HOST/Target/usbh_conf.c ****   * @param  hhcd: HCD handle
 142:USB_HOST/Target/usbh_conf.c ****   * @retval None
 143:USB_HOST/Target/usbh_conf.c ****   */
 144:USB_HOST/Target/usbh_conf.c **** void HAL_HCD_Connect_Callback(HCD_HandleTypeDef *hhcd)
 145:USB_HOST/Target/usbh_conf.c **** {
 269              		.loc 1 145 1 is_stmt 1 view -0
 270              		.cfi_startproc
 271              		@ args = 0, pretend = 0, frame = 0
 272              		@ frame_needed = 0, uses_anonymous_args = 0
 273              		.loc 1 145 1 is_stmt 0 view .LVU62
 274 0000 08B5     		push	{r3, lr}
 275              		.cfi_def_cfa_offset 8
 276              		.cfi_offset 3, -8
 277              		.cfi_offset 14, -4
 146:USB_HOST/Target/usbh_conf.c ****   USBH_LL_Connect(hhcd->pData);
ARM GAS  /tmp/cct9D8fn.s 			page 9


 278              		.loc 1 146 3 is_stmt 1 view .LVU63
 279 0002 D0F80003 		ldr	r0, [r0, #768]
 280              	.LVL18:
 281              		.loc 1 146 3 is_stmt 0 view .LVU64
 282 0006 FFF7FEFF 		bl	USBH_LL_Connect
 283              	.LVL19:
 147:USB_HOST/Target/usbh_conf.c **** }
 284              		.loc 1 147 1 view .LVU65
 285 000a 08BD     		pop	{r3, pc}
 286              		.cfi_endproc
 287              	.LFE136:
 289              		.section	.text.HAL_HCD_Disconnect_Callback,"ax",%progbits
 290              		.align	1
 291              		.global	HAL_HCD_Disconnect_Callback
 292              		.syntax unified
 293              		.thumb
 294              		.thumb_func
 295              		.fpu fpv4-sp-d16
 297              	HAL_HCD_Disconnect_Callback:
 298              	.LVL20:
 299              	.LFB137:
 148:USB_HOST/Target/usbh_conf.c **** 
 149:USB_HOST/Target/usbh_conf.c **** /**
 150:USB_HOST/Target/usbh_conf.c ****   * @brief  SOF callback.
 151:USB_HOST/Target/usbh_conf.c ****   * @param  hhcd: HCD handle
 152:USB_HOST/Target/usbh_conf.c ****   * @retval None
 153:USB_HOST/Target/usbh_conf.c ****   */
 154:USB_HOST/Target/usbh_conf.c **** void HAL_HCD_Disconnect_Callback(HCD_HandleTypeDef *hhcd)
 155:USB_HOST/Target/usbh_conf.c **** {
 300              		.loc 1 155 1 is_stmt 1 view -0
 301              		.cfi_startproc
 302              		@ args = 0, pretend = 0, frame = 0
 303              		@ frame_needed = 0, uses_anonymous_args = 0
 304              		.loc 1 155 1 is_stmt 0 view .LVU67
 305 0000 08B5     		push	{r3, lr}
 306              		.cfi_def_cfa_offset 8
 307              		.cfi_offset 3, -8
 308              		.cfi_offset 14, -4
 156:USB_HOST/Target/usbh_conf.c ****   USBH_LL_Disconnect(hhcd->pData);
 309              		.loc 1 156 3 is_stmt 1 view .LVU68
 310 0002 D0F80003 		ldr	r0, [r0, #768]
 311              	.LVL21:
 312              		.loc 1 156 3 is_stmt 0 view .LVU69
 313 0006 FFF7FEFF 		bl	USBH_LL_Disconnect
 314              	.LVL22:
 157:USB_HOST/Target/usbh_conf.c **** }
 315              		.loc 1 157 1 view .LVU70
 316 000a 08BD     		pop	{r3, pc}
 317              		.cfi_endproc
 318              	.LFE137:
 320              		.section	.text.HAL_HCD_HC_NotifyURBChange_Callback,"ax",%progbits
 321              		.align	1
 322              		.global	HAL_HCD_HC_NotifyURBChange_Callback
 323              		.syntax unified
 324              		.thumb
 325              		.thumb_func
 326              		.fpu fpv4-sp-d16
ARM GAS  /tmp/cct9D8fn.s 			page 10


 328              	HAL_HCD_HC_NotifyURBChange_Callback:
 329              	.LVL23:
 330              	.LFB138:
 158:USB_HOST/Target/usbh_conf.c **** 
 159:USB_HOST/Target/usbh_conf.c **** /**
 160:USB_HOST/Target/usbh_conf.c ****   * @brief  Notify URB state change callback.
 161:USB_HOST/Target/usbh_conf.c ****   * @param  hhcd: HCD handle
 162:USB_HOST/Target/usbh_conf.c ****   * @param  chnum: channel number
 163:USB_HOST/Target/usbh_conf.c ****   * @param  urb_state: state
 164:USB_HOST/Target/usbh_conf.c ****   * @retval None
 165:USB_HOST/Target/usbh_conf.c ****   */
 166:USB_HOST/Target/usbh_conf.c **** void HAL_HCD_HC_NotifyURBChange_Callback(HCD_HandleTypeDef *hhcd, uint8_t chnum, HCD_URBStateTypeDe
 167:USB_HOST/Target/usbh_conf.c **** {
 331              		.loc 1 167 1 is_stmt 1 view -0
 332              		.cfi_startproc
 333              		@ args = 0, pretend = 0, frame = 0
 334              		@ frame_needed = 0, uses_anonymous_args = 0
 335              		@ link register save eliminated.
 168:USB_HOST/Target/usbh_conf.c ****   /* To be used with OS to sync URB state with the global state machine */
 169:USB_HOST/Target/usbh_conf.c **** #if (USBH_USE_OS == 1)
 170:USB_HOST/Target/usbh_conf.c ****   USBH_LL_NotifyURBChange(hhcd->pData);
 171:USB_HOST/Target/usbh_conf.c **** #endif
 172:USB_HOST/Target/usbh_conf.c **** }
 336              		.loc 1 172 1 view .LVU72
 337 0000 7047     		bx	lr
 338              		.cfi_endproc
 339              	.LFE138:
 341              		.section	.text.HAL_HCD_PortEnabled_Callback,"ax",%progbits
 342              		.align	1
 343              		.global	HAL_HCD_PortEnabled_Callback
 344              		.syntax unified
 345              		.thumb
 346              		.thumb_func
 347              		.fpu fpv4-sp-d16
 349              	HAL_HCD_PortEnabled_Callback:
 350              	.LVL24:
 351              	.LFB139:
 173:USB_HOST/Target/usbh_conf.c **** /**
 174:USB_HOST/Target/usbh_conf.c **** * @brief  Port Port Enabled callback.
 175:USB_HOST/Target/usbh_conf.c ****   * @param  hhcd: HCD handle
 176:USB_HOST/Target/usbh_conf.c ****   * @retval None
 177:USB_HOST/Target/usbh_conf.c ****   */
 178:USB_HOST/Target/usbh_conf.c **** void HAL_HCD_PortEnabled_Callback(HCD_HandleTypeDef *hhcd)
 179:USB_HOST/Target/usbh_conf.c **** {
 352              		.loc 1 179 1 view -0
 353              		.cfi_startproc
 354              		@ args = 0, pretend = 0, frame = 0
 355              		@ frame_needed = 0, uses_anonymous_args = 0
 356              		.loc 1 179 1 is_stmt 0 view .LVU74
 357 0000 08B5     		push	{r3, lr}
 358              		.cfi_def_cfa_offset 8
 359              		.cfi_offset 3, -8
 360              		.cfi_offset 14, -4
 180:USB_HOST/Target/usbh_conf.c ****   USBH_LL_PortEnabled(hhcd->pData);
 361              		.loc 1 180 3 is_stmt 1 view .LVU75
 362 0002 D0F80003 		ldr	r0, [r0, #768]
 363              	.LVL25:
ARM GAS  /tmp/cct9D8fn.s 			page 11


 364              		.loc 1 180 3 is_stmt 0 view .LVU76
 365 0006 FFF7FEFF 		bl	USBH_LL_PortEnabled
 366              	.LVL26:
 181:USB_HOST/Target/usbh_conf.c **** }
 367              		.loc 1 181 1 view .LVU77
 368 000a 08BD     		pop	{r3, pc}
 369              		.cfi_endproc
 370              	.LFE139:
 372              		.section	.text.HAL_HCD_PortDisabled_Callback,"ax",%progbits
 373              		.align	1
 374              		.global	HAL_HCD_PortDisabled_Callback
 375              		.syntax unified
 376              		.thumb
 377              		.thumb_func
 378              		.fpu fpv4-sp-d16
 380              	HAL_HCD_PortDisabled_Callback:
 381              	.LVL27:
 382              	.LFB140:
 182:USB_HOST/Target/usbh_conf.c **** 
 183:USB_HOST/Target/usbh_conf.c **** /**
 184:USB_HOST/Target/usbh_conf.c ****   * @brief  Port Port Disabled callback.
 185:USB_HOST/Target/usbh_conf.c ****   * @param  hhcd: HCD handle
 186:USB_HOST/Target/usbh_conf.c ****   * @retval None
 187:USB_HOST/Target/usbh_conf.c ****   */
 188:USB_HOST/Target/usbh_conf.c **** void HAL_HCD_PortDisabled_Callback(HCD_HandleTypeDef *hhcd)
 189:USB_HOST/Target/usbh_conf.c **** {
 383              		.loc 1 189 1 is_stmt 1 view -0
 384              		.cfi_startproc
 385              		@ args = 0, pretend = 0, frame = 0
 386              		@ frame_needed = 0, uses_anonymous_args = 0
 387              		.loc 1 189 1 is_stmt 0 view .LVU79
 388 0000 08B5     		push	{r3, lr}
 389              		.cfi_def_cfa_offset 8
 390              		.cfi_offset 3, -8
 391              		.cfi_offset 14, -4
 190:USB_HOST/Target/usbh_conf.c ****   USBH_LL_PortDisabled(hhcd->pData);
 392              		.loc 1 190 3 is_stmt 1 view .LVU80
 393 0002 D0F80003 		ldr	r0, [r0, #768]
 394              	.LVL28:
 395              		.loc 1 190 3 is_stmt 0 view .LVU81
 396 0006 FFF7FEFF 		bl	USBH_LL_PortDisabled
 397              	.LVL29:
 191:USB_HOST/Target/usbh_conf.c **** }
 398              		.loc 1 191 1 view .LVU82
 399 000a 08BD     		pop	{r3, pc}
 400              		.cfi_endproc
 401              	.LFE140:
 403              		.section	.text.USBH_LL_Init,"ax",%progbits
 404              		.align	1
 405              		.global	USBH_LL_Init
 406              		.syntax unified
 407              		.thumb
 408              		.thumb_func
 409              		.fpu fpv4-sp-d16
 411              	USBH_LL_Init:
 412              	.LVL30:
 413              	.LFB141:
ARM GAS  /tmp/cct9D8fn.s 			page 12


 192:USB_HOST/Target/usbh_conf.c **** 
 193:USB_HOST/Target/usbh_conf.c **** /*******************************************************************************
 194:USB_HOST/Target/usbh_conf.c ****                        LL Driver Interface (USB Host Library --> HCD)
 195:USB_HOST/Target/usbh_conf.c **** *******************************************************************************/
 196:USB_HOST/Target/usbh_conf.c **** 
 197:USB_HOST/Target/usbh_conf.c **** /**
 198:USB_HOST/Target/usbh_conf.c ****   * @brief  Initialize the low level portion of the host driver.
 199:USB_HOST/Target/usbh_conf.c ****   * @param  phost: Host handle
 200:USB_HOST/Target/usbh_conf.c ****   * @retval USBH status
 201:USB_HOST/Target/usbh_conf.c ****   */
 202:USB_HOST/Target/usbh_conf.c **** USBH_StatusTypeDef USBH_LL_Init(USBH_HandleTypeDef *phost)
 203:USB_HOST/Target/usbh_conf.c **** {
 414              		.loc 1 203 1 is_stmt 1 view -0
 415              		.cfi_startproc
 416              		@ args = 0, pretend = 0, frame = 0
 417              		@ frame_needed = 0, uses_anonymous_args = 0
 204:USB_HOST/Target/usbh_conf.c ****   /* Init USB_IP */
 205:USB_HOST/Target/usbh_conf.c ****   if (phost->id == HOST_FS) {
 418              		.loc 1 205 3 view .LVU84
 419              		.loc 1 205 12 is_stmt 0 view .LVU85
 420 0000 90F8CC33 		ldrb	r3, [r0, #972]	@ zero_extendqisi2
 421              		.loc 1 205 6 view .LVU86
 422 0004 012B     		cmp	r3, #1
 423 0006 01D0     		beq	.L31
 206:USB_HOST/Target/usbh_conf.c ****   /* Link the driver to the stack. */
 207:USB_HOST/Target/usbh_conf.c ****   hhcd_USB_OTG_FS.pData = phost;
 208:USB_HOST/Target/usbh_conf.c ****   phost->pData = &hhcd_USB_OTG_FS;
 209:USB_HOST/Target/usbh_conf.c **** 
 210:USB_HOST/Target/usbh_conf.c ****   hhcd_USB_OTG_FS.Instance = USB_OTG_FS;
 211:USB_HOST/Target/usbh_conf.c ****   hhcd_USB_OTG_FS.Init.Host_channels = 8;
 212:USB_HOST/Target/usbh_conf.c ****   hhcd_USB_OTG_FS.Init.speed = HCD_SPEED_FULL;
 213:USB_HOST/Target/usbh_conf.c ****   hhcd_USB_OTG_FS.Init.dma_enable = DISABLE;
 214:USB_HOST/Target/usbh_conf.c ****   hhcd_USB_OTG_FS.Init.phy_itface = HCD_PHY_EMBEDDED;
 215:USB_HOST/Target/usbh_conf.c ****   hhcd_USB_OTG_FS.Init.Sof_enable = DISABLE;
 216:USB_HOST/Target/usbh_conf.c ****   if (HAL_HCD_Init(&hhcd_USB_OTG_FS) != HAL_OK)
 217:USB_HOST/Target/usbh_conf.c ****   {
 218:USB_HOST/Target/usbh_conf.c ****     Error_Handler( );
 219:USB_HOST/Target/usbh_conf.c ****   }
 220:USB_HOST/Target/usbh_conf.c **** 
 221:USB_HOST/Target/usbh_conf.c ****   USBH_LL_SetTimer(phost, HAL_HCD_GetCurrentFrame(&hhcd_USB_OTG_FS));
 222:USB_HOST/Target/usbh_conf.c ****   }
 223:USB_HOST/Target/usbh_conf.c ****   return USBH_OK;
 424              		.loc 1 223 3 is_stmt 1 view .LVU87
 224:USB_HOST/Target/usbh_conf.c **** }
 425              		.loc 1 224 1 is_stmt 0 view .LVU88
 426 0008 0020     		movs	r0, #0
 427              	.LVL31:
 428              		.loc 1 224 1 view .LVU89
 429 000a 7047     		bx	lr
 430              	.LVL32:
 431              	.L31:
 203:USB_HOST/Target/usbh_conf.c ****   /* Init USB_IP */
 432              		.loc 1 203 1 view .LVU90
 433 000c 10B5     		push	{r4, lr}
 434              		.cfi_def_cfa_offset 8
 435              		.cfi_offset 4, -8
 436              		.cfi_offset 14, -4
ARM GAS  /tmp/cct9D8fn.s 			page 13


 437 000e 0446     		mov	r4, r0
 207:USB_HOST/Target/usbh_conf.c ****   phost->pData = &hhcd_USB_OTG_FS;
 438              		.loc 1 207 3 is_stmt 1 view .LVU91
 207:USB_HOST/Target/usbh_conf.c ****   phost->pData = &hhcd_USB_OTG_FS;
 439              		.loc 1 207 25 is_stmt 0 view .LVU92
 440 0010 0F48     		ldr	r0, .L33
 441              	.LVL33:
 207:USB_HOST/Target/usbh_conf.c ****   phost->pData = &hhcd_USB_OTG_FS;
 442              		.loc 1 207 25 view .LVU93
 443 0012 C0F80043 		str	r4, [r0, #768]
 208:USB_HOST/Target/usbh_conf.c **** 
 444              		.loc 1 208 3 is_stmt 1 view .LVU94
 208:USB_HOST/Target/usbh_conf.c **** 
 445              		.loc 1 208 16 is_stmt 0 view .LVU95
 446 0016 C4F8D003 		str	r0, [r4, #976]
 210:USB_HOST/Target/usbh_conf.c ****   hhcd_USB_OTG_FS.Init.Host_channels = 8;
 447              		.loc 1 210 3 is_stmt 1 view .LVU96
 210:USB_HOST/Target/usbh_conf.c ****   hhcd_USB_OTG_FS.Init.Host_channels = 8;
 448              		.loc 1 210 28 is_stmt 0 view .LVU97
 449 001a 4FF0A043 		mov	r3, #1342177280
 450 001e 0360     		str	r3, [r0]
 211:USB_HOST/Target/usbh_conf.c ****   hhcd_USB_OTG_FS.Init.speed = HCD_SPEED_FULL;
 451              		.loc 1 211 3 is_stmt 1 view .LVU98
 211:USB_HOST/Target/usbh_conf.c ****   hhcd_USB_OTG_FS.Init.speed = HCD_SPEED_FULL;
 452              		.loc 1 211 38 is_stmt 0 view .LVU99
 453 0020 0823     		movs	r3, #8
 454 0022 8360     		str	r3, [r0, #8]
 212:USB_HOST/Target/usbh_conf.c ****   hhcd_USB_OTG_FS.Init.dma_enable = DISABLE;
 455              		.loc 1 212 3 is_stmt 1 view .LVU100
 212:USB_HOST/Target/usbh_conf.c ****   hhcd_USB_OTG_FS.Init.dma_enable = DISABLE;
 456              		.loc 1 212 30 is_stmt 0 view .LVU101
 457 0024 0123     		movs	r3, #1
 458 0026 C360     		str	r3, [r0, #12]
 213:USB_HOST/Target/usbh_conf.c ****   hhcd_USB_OTG_FS.Init.phy_itface = HCD_PHY_EMBEDDED;
 459              		.loc 1 213 3 is_stmt 1 view .LVU102
 213:USB_HOST/Target/usbh_conf.c ****   hhcd_USB_OTG_FS.Init.phy_itface = HCD_PHY_EMBEDDED;
 460              		.loc 1 213 35 is_stmt 0 view .LVU103
 461 0028 0023     		movs	r3, #0
 462 002a 0361     		str	r3, [r0, #16]
 214:USB_HOST/Target/usbh_conf.c ****   hhcd_USB_OTG_FS.Init.Sof_enable = DISABLE;
 463              		.loc 1 214 3 is_stmt 1 view .LVU104
 214:USB_HOST/Target/usbh_conf.c ****   hhcd_USB_OTG_FS.Init.Sof_enable = DISABLE;
 464              		.loc 1 214 35 is_stmt 0 view .LVU105
 465 002c 0222     		movs	r2, #2
 466 002e 8261     		str	r2, [r0, #24]
 215:USB_HOST/Target/usbh_conf.c ****   if (HAL_HCD_Init(&hhcd_USB_OTG_FS) != HAL_OK)
 467              		.loc 1 215 3 is_stmt 1 view .LVU106
 215:USB_HOST/Target/usbh_conf.c ****   if (HAL_HCD_Init(&hhcd_USB_OTG_FS) != HAL_OK)
 468              		.loc 1 215 35 is_stmt 0 view .LVU107
 469 0030 C361     		str	r3, [r0, #28]
 216:USB_HOST/Target/usbh_conf.c ****   {
 470              		.loc 1 216 3 is_stmt 1 view .LVU108
 216:USB_HOST/Target/usbh_conf.c ****   {
 471              		.loc 1 216 7 is_stmt 0 view .LVU109
 472 0032 FFF7FEFF 		bl	HAL_HCD_Init
 473              	.LVL34:
 216:USB_HOST/Target/usbh_conf.c ****   {
ARM GAS  /tmp/cct9D8fn.s 			page 14


 474              		.loc 1 216 6 view .LVU110
 475 0036 40B9     		cbnz	r0, .L32
 476              	.L26:
 221:USB_HOST/Target/usbh_conf.c ****   }
 477              		.loc 1 221 3 is_stmt 1 view .LVU111
 478 0038 0548     		ldr	r0, .L33
 479 003a FFF7FEFF 		bl	HAL_HCD_GetCurrentFrame
 480              	.LVL35:
 481 003e 0146     		mov	r1, r0
 482 0040 2046     		mov	r0, r4
 483 0042 FFF7FEFF 		bl	USBH_LL_SetTimer
 484              	.LVL36:
 223:USB_HOST/Target/usbh_conf.c **** }
 485              		.loc 1 223 3 view .LVU112
 486              		.loc 1 224 1 is_stmt 0 view .LVU113
 487 0046 0020     		movs	r0, #0
 488 0048 10BD     		pop	{r4, pc}
 489              	.LVL37:
 490              	.L32:
 218:USB_HOST/Target/usbh_conf.c ****   }
 491              		.loc 1 218 5 is_stmt 1 view .LVU114
 492 004a FFF7FEFF 		bl	Error_Handler
 493              	.LVL38:
 494 004e F3E7     		b	.L26
 495              	.L34:
 496              		.align	2
 497              	.L33:
 498 0050 00000000 		.word	hhcd_USB_OTG_FS
 499              		.cfi_endproc
 500              	.LFE141:
 502              		.section	.text.USBH_LL_GetSpeed,"ax",%progbits
 503              		.align	1
 504              		.global	USBH_LL_GetSpeed
 505              		.syntax unified
 506              		.thumb
 507              		.thumb_func
 508              		.fpu fpv4-sp-d16
 510              	USBH_LL_GetSpeed:
 511              	.LVL39:
 512              	.LFB145:
 225:USB_HOST/Target/usbh_conf.c **** 
 226:USB_HOST/Target/usbh_conf.c **** /**
 227:USB_HOST/Target/usbh_conf.c ****   * @brief  De-Initialize the low level portion of the host driver.
 228:USB_HOST/Target/usbh_conf.c ****   * @param  phost: Host handle
 229:USB_HOST/Target/usbh_conf.c ****   * @retval USBH status
 230:USB_HOST/Target/usbh_conf.c ****   */
 231:USB_HOST/Target/usbh_conf.c **** USBH_StatusTypeDef USBH_LL_DeInit(USBH_HandleTypeDef *phost)
 232:USB_HOST/Target/usbh_conf.c **** {
 233:USB_HOST/Target/usbh_conf.c ****   HAL_StatusTypeDef hal_status = HAL_OK;
 234:USB_HOST/Target/usbh_conf.c ****   USBH_StatusTypeDef usb_status = USBH_OK;
 235:USB_HOST/Target/usbh_conf.c **** 
 236:USB_HOST/Target/usbh_conf.c ****   hal_status = HAL_HCD_DeInit(phost->pData);
 237:USB_HOST/Target/usbh_conf.c **** 
 238:USB_HOST/Target/usbh_conf.c ****   usb_status = USBH_Get_USB_Status(hal_status);
 239:USB_HOST/Target/usbh_conf.c **** 
 240:USB_HOST/Target/usbh_conf.c ****   return usb_status;
 241:USB_HOST/Target/usbh_conf.c **** }
ARM GAS  /tmp/cct9D8fn.s 			page 15


 242:USB_HOST/Target/usbh_conf.c **** 
 243:USB_HOST/Target/usbh_conf.c **** /**
 244:USB_HOST/Target/usbh_conf.c ****   * @brief  Start the low level portion of the host driver.
 245:USB_HOST/Target/usbh_conf.c ****   * @param  phost: Host handle
 246:USB_HOST/Target/usbh_conf.c ****   * @retval USBH status
 247:USB_HOST/Target/usbh_conf.c ****   */
 248:USB_HOST/Target/usbh_conf.c **** USBH_StatusTypeDef USBH_LL_Start(USBH_HandleTypeDef *phost)
 249:USB_HOST/Target/usbh_conf.c **** {
 250:USB_HOST/Target/usbh_conf.c ****   HAL_StatusTypeDef hal_status = HAL_OK;
 251:USB_HOST/Target/usbh_conf.c ****   USBH_StatusTypeDef usb_status = USBH_OK;
 252:USB_HOST/Target/usbh_conf.c **** 
 253:USB_HOST/Target/usbh_conf.c ****   hal_status = HAL_HCD_Start(phost->pData);
 254:USB_HOST/Target/usbh_conf.c **** 
 255:USB_HOST/Target/usbh_conf.c ****   usb_status = USBH_Get_USB_Status(hal_status);
 256:USB_HOST/Target/usbh_conf.c **** 
 257:USB_HOST/Target/usbh_conf.c ****   return usb_status;
 258:USB_HOST/Target/usbh_conf.c **** }
 259:USB_HOST/Target/usbh_conf.c **** 
 260:USB_HOST/Target/usbh_conf.c **** /**
 261:USB_HOST/Target/usbh_conf.c ****   * @brief  Stop the low level portion of the host driver.
 262:USB_HOST/Target/usbh_conf.c ****   * @param  phost: Host handle
 263:USB_HOST/Target/usbh_conf.c ****   * @retval USBH status
 264:USB_HOST/Target/usbh_conf.c ****   */
 265:USB_HOST/Target/usbh_conf.c **** USBH_StatusTypeDef USBH_LL_Stop(USBH_HandleTypeDef *phost)
 266:USB_HOST/Target/usbh_conf.c **** {
 267:USB_HOST/Target/usbh_conf.c ****   HAL_StatusTypeDef hal_status = HAL_OK;
 268:USB_HOST/Target/usbh_conf.c ****   USBH_StatusTypeDef usb_status = USBH_OK;
 269:USB_HOST/Target/usbh_conf.c **** 
 270:USB_HOST/Target/usbh_conf.c ****   hal_status = HAL_HCD_Stop(phost->pData);
 271:USB_HOST/Target/usbh_conf.c **** 
 272:USB_HOST/Target/usbh_conf.c ****   usb_status = USBH_Get_USB_Status(hal_status);
 273:USB_HOST/Target/usbh_conf.c **** 
 274:USB_HOST/Target/usbh_conf.c ****   return usb_status;
 275:USB_HOST/Target/usbh_conf.c **** }
 276:USB_HOST/Target/usbh_conf.c **** 
 277:USB_HOST/Target/usbh_conf.c **** /**
 278:USB_HOST/Target/usbh_conf.c ****   * @brief  Return the USB host speed from the low level driver.
 279:USB_HOST/Target/usbh_conf.c ****   * @param  phost: Host handle
 280:USB_HOST/Target/usbh_conf.c ****   * @retval USBH speeds
 281:USB_HOST/Target/usbh_conf.c ****   */
 282:USB_HOST/Target/usbh_conf.c **** USBH_SpeedTypeDef USBH_LL_GetSpeed(USBH_HandleTypeDef *phost)
 283:USB_HOST/Target/usbh_conf.c **** {
 513              		.loc 1 283 1 view -0
 514              		.cfi_startproc
 515              		@ args = 0, pretend = 0, frame = 0
 516              		@ frame_needed = 0, uses_anonymous_args = 0
 517              		.loc 1 283 1 is_stmt 0 view .LVU116
 518 0000 08B5     		push	{r3, lr}
 519              		.cfi_def_cfa_offset 8
 520              		.cfi_offset 3, -8
 521              		.cfi_offset 14, -4
 284:USB_HOST/Target/usbh_conf.c ****   USBH_SpeedTypeDef speed = USBH_SPEED_FULL;
 522              		.loc 1 284 3 is_stmt 1 view .LVU117
 523              	.LVL40:
 285:USB_HOST/Target/usbh_conf.c **** 
 286:USB_HOST/Target/usbh_conf.c ****   switch (HAL_HCD_GetCurrentSpeed(phost->pData))
 524              		.loc 1 286 3 view .LVU118
ARM GAS  /tmp/cct9D8fn.s 			page 16


 525              		.loc 1 286 11 is_stmt 0 view .LVU119
 526 0002 D0F8D003 		ldr	r0, [r0, #976]
 527              	.LVL41:
 528              		.loc 1 286 11 view .LVU120
 529 0006 FFF7FEFF 		bl	HAL_HCD_GetCurrentSpeed
 530              	.LVL42:
 531              		.loc 1 286 3 view .LVU121
 532 000a 0128     		cmp	r0, #1
 533 000c 04D0     		beq	.L37
 534 000e 0228     		cmp	r0, #2
 535 0010 04D0     		beq	.L38
 536 0012 00B1     		cbz	r0, .L36
 287:USB_HOST/Target/usbh_conf.c ****   {
 288:USB_HOST/Target/usbh_conf.c ****   case 0 :
 289:USB_HOST/Target/usbh_conf.c ****     speed = USBH_SPEED_HIGH;
 290:USB_HOST/Target/usbh_conf.c ****     break;
 291:USB_HOST/Target/usbh_conf.c **** 
 292:USB_HOST/Target/usbh_conf.c ****   case 1 :
 293:USB_HOST/Target/usbh_conf.c ****     speed = USBH_SPEED_FULL;
 294:USB_HOST/Target/usbh_conf.c ****     break;
 295:USB_HOST/Target/usbh_conf.c **** 
 296:USB_HOST/Target/usbh_conf.c ****   case 2 :
 297:USB_HOST/Target/usbh_conf.c ****     speed = USBH_SPEED_LOW;
 298:USB_HOST/Target/usbh_conf.c ****     break;
 299:USB_HOST/Target/usbh_conf.c **** 
 300:USB_HOST/Target/usbh_conf.c ****   default:
 301:USB_HOST/Target/usbh_conf.c ****    speed = USBH_SPEED_FULL;
 537              		.loc 1 301 10 view .LVU122
 538 0014 0120     		movs	r0, #1
 539              	.L36:
 540              	.LVL43:
 302:USB_HOST/Target/usbh_conf.c ****     break;
 303:USB_HOST/Target/usbh_conf.c ****   }
 304:USB_HOST/Target/usbh_conf.c ****   return  speed;
 541              		.loc 1 304 3 is_stmt 1 view .LVU123
 305:USB_HOST/Target/usbh_conf.c **** }
 542              		.loc 1 305 1 is_stmt 0 view .LVU124
 543 0016 08BD     		pop	{r3, pc}
 544              	.LVL44:
 545              	.L37:
 293:USB_HOST/Target/usbh_conf.c ****     break;
 546              		.loc 1 293 11 view .LVU125
 547 0018 0120     		movs	r0, #1
 548 001a FCE7     		b	.L36
 549              	.L38:
 297:USB_HOST/Target/usbh_conf.c ****     break;
 550              		.loc 1 297 11 view .LVU126
 551 001c 0220     		movs	r0, #2
 552 001e FAE7     		b	.L36
 553              		.cfi_endproc
 554              	.LFE145:
 556              		.section	.text.USBH_LL_GetLastXferSize,"ax",%progbits
 557              		.align	1
 558              		.global	USBH_LL_GetLastXferSize
 559              		.syntax unified
 560              		.thumb
 561              		.thumb_func
ARM GAS  /tmp/cct9D8fn.s 			page 17


 562              		.fpu fpv4-sp-d16
 564              	USBH_LL_GetLastXferSize:
 565              	.LVL45:
 566              	.LFB147:
 306:USB_HOST/Target/usbh_conf.c **** 
 307:USB_HOST/Target/usbh_conf.c **** /**
 308:USB_HOST/Target/usbh_conf.c ****   * @brief  Reset the Host port of the low level driver.
 309:USB_HOST/Target/usbh_conf.c ****   * @param  phost: Host handle
 310:USB_HOST/Target/usbh_conf.c ****   * @retval USBH status
 311:USB_HOST/Target/usbh_conf.c ****   */
 312:USB_HOST/Target/usbh_conf.c **** USBH_StatusTypeDef USBH_LL_ResetPort(USBH_HandleTypeDef *phost)
 313:USB_HOST/Target/usbh_conf.c **** {
 314:USB_HOST/Target/usbh_conf.c ****   HAL_StatusTypeDef hal_status = HAL_OK;
 315:USB_HOST/Target/usbh_conf.c ****   USBH_StatusTypeDef usb_status = USBH_OK;
 316:USB_HOST/Target/usbh_conf.c **** 
 317:USB_HOST/Target/usbh_conf.c ****   hal_status = HAL_HCD_ResetPort(phost->pData);
 318:USB_HOST/Target/usbh_conf.c **** 
 319:USB_HOST/Target/usbh_conf.c ****   usb_status = USBH_Get_USB_Status(hal_status);
 320:USB_HOST/Target/usbh_conf.c **** 
 321:USB_HOST/Target/usbh_conf.c ****   return usb_status;
 322:USB_HOST/Target/usbh_conf.c **** }
 323:USB_HOST/Target/usbh_conf.c **** 
 324:USB_HOST/Target/usbh_conf.c **** /**
 325:USB_HOST/Target/usbh_conf.c ****   * @brief  Return the last transferred packet size.
 326:USB_HOST/Target/usbh_conf.c ****   * @param  phost: Host handle
 327:USB_HOST/Target/usbh_conf.c ****   * @param  pipe: Pipe index
 328:USB_HOST/Target/usbh_conf.c ****   * @retval Packet size
 329:USB_HOST/Target/usbh_conf.c ****   */
 330:USB_HOST/Target/usbh_conf.c **** uint32_t USBH_LL_GetLastXferSize(USBH_HandleTypeDef *phost, uint8_t pipe)
 331:USB_HOST/Target/usbh_conf.c **** {
 567              		.loc 1 331 1 is_stmt 1 view -0
 568              		.cfi_startproc
 569              		@ args = 0, pretend = 0, frame = 0
 570              		@ frame_needed = 0, uses_anonymous_args = 0
 571              		.loc 1 331 1 is_stmt 0 view .LVU128
 572 0000 08B5     		push	{r3, lr}
 573              		.cfi_def_cfa_offset 8
 574              		.cfi_offset 3, -8
 575              		.cfi_offset 14, -4
 332:USB_HOST/Target/usbh_conf.c ****   return HAL_HCD_HC_GetXferCount(phost->pData, pipe);
 576              		.loc 1 332 3 is_stmt 1 view .LVU129
 577              		.loc 1 332 10 is_stmt 0 view .LVU130
 578 0002 D0F8D003 		ldr	r0, [r0, #976]
 579              	.LVL46:
 580              		.loc 1 332 10 view .LVU131
 581 0006 FFF7FEFF 		bl	HAL_HCD_HC_GetXferCount
 582              	.LVL47:
 333:USB_HOST/Target/usbh_conf.c **** }
 583              		.loc 1 333 1 view .LVU132
 584 000a 08BD     		pop	{r3, pc}
 585              		.cfi_endproc
 586              	.LFE147:
 588              		.section	.text.USBH_LL_GetURBState,"ax",%progbits
 589              		.align	1
 590              		.global	USBH_LL_GetURBState
 591              		.syntax unified
 592              		.thumb
ARM GAS  /tmp/cct9D8fn.s 			page 18


 593              		.thumb_func
 594              		.fpu fpv4-sp-d16
 596              	USBH_LL_GetURBState:
 597              	.LVL48:
 598              	.LFB151:
 334:USB_HOST/Target/usbh_conf.c **** 
 335:USB_HOST/Target/usbh_conf.c **** /**
 336:USB_HOST/Target/usbh_conf.c ****   * @brief  Open a pipe of the low level driver.
 337:USB_HOST/Target/usbh_conf.c ****   * @param  phost: Host handle
 338:USB_HOST/Target/usbh_conf.c ****   * @param  pipe_num: Pipe index
 339:USB_HOST/Target/usbh_conf.c ****   * @param  epnum: Endpoint number
 340:USB_HOST/Target/usbh_conf.c ****   * @param  dev_address: Device USB address
 341:USB_HOST/Target/usbh_conf.c ****   * @param  speed: Device Speed
 342:USB_HOST/Target/usbh_conf.c ****   * @param  ep_type: Endpoint type
 343:USB_HOST/Target/usbh_conf.c ****   * @param  mps: Endpoint max packet size
 344:USB_HOST/Target/usbh_conf.c ****   * @retval USBH status
 345:USB_HOST/Target/usbh_conf.c ****   */
 346:USB_HOST/Target/usbh_conf.c **** USBH_StatusTypeDef USBH_LL_OpenPipe(USBH_HandleTypeDef *phost, uint8_t pipe_num, uint8_t epnum,
 347:USB_HOST/Target/usbh_conf.c ****                                     uint8_t dev_address, uint8_t speed, uint8_t ep_type, uint16_t m
 348:USB_HOST/Target/usbh_conf.c **** {
 349:USB_HOST/Target/usbh_conf.c ****   HAL_StatusTypeDef hal_status = HAL_OK;
 350:USB_HOST/Target/usbh_conf.c ****   USBH_StatusTypeDef usb_status = USBH_OK;
 351:USB_HOST/Target/usbh_conf.c **** 
 352:USB_HOST/Target/usbh_conf.c ****   hal_status = HAL_HCD_HC_Init(phost->pData, pipe_num, epnum,
 353:USB_HOST/Target/usbh_conf.c ****                                dev_address, speed, ep_type, mps);
 354:USB_HOST/Target/usbh_conf.c **** 
 355:USB_HOST/Target/usbh_conf.c ****   usb_status = USBH_Get_USB_Status(hal_status);
 356:USB_HOST/Target/usbh_conf.c **** 
 357:USB_HOST/Target/usbh_conf.c ****   return usb_status;
 358:USB_HOST/Target/usbh_conf.c **** }
 359:USB_HOST/Target/usbh_conf.c **** 
 360:USB_HOST/Target/usbh_conf.c **** /**
 361:USB_HOST/Target/usbh_conf.c ****   * @brief  Close a pipe of the low level driver.
 362:USB_HOST/Target/usbh_conf.c ****   * @param  phost: Host handle
 363:USB_HOST/Target/usbh_conf.c ****   * @param  pipe: Pipe index
 364:USB_HOST/Target/usbh_conf.c ****   * @retval USBH status
 365:USB_HOST/Target/usbh_conf.c ****   */
 366:USB_HOST/Target/usbh_conf.c **** USBH_StatusTypeDef USBH_LL_ClosePipe(USBH_HandleTypeDef *phost, uint8_t pipe)
 367:USB_HOST/Target/usbh_conf.c **** {
 368:USB_HOST/Target/usbh_conf.c ****   HAL_StatusTypeDef hal_status = HAL_OK;
 369:USB_HOST/Target/usbh_conf.c ****   USBH_StatusTypeDef usb_status = USBH_OK;
 370:USB_HOST/Target/usbh_conf.c **** 
 371:USB_HOST/Target/usbh_conf.c ****   hal_status = HAL_HCD_HC_Halt(phost->pData, pipe);
 372:USB_HOST/Target/usbh_conf.c **** 
 373:USB_HOST/Target/usbh_conf.c ****   usb_status = USBH_Get_USB_Status(hal_status);
 374:USB_HOST/Target/usbh_conf.c **** 
 375:USB_HOST/Target/usbh_conf.c ****   return usb_status;
 376:USB_HOST/Target/usbh_conf.c **** }
 377:USB_HOST/Target/usbh_conf.c **** 
 378:USB_HOST/Target/usbh_conf.c **** /**
 379:USB_HOST/Target/usbh_conf.c ****   * @brief  Submit a new URB to the low level driver.
 380:USB_HOST/Target/usbh_conf.c ****   * @param  phost: Host handle
 381:USB_HOST/Target/usbh_conf.c ****   * @param  pipe: Pipe index
 382:USB_HOST/Target/usbh_conf.c ****   *         This parameter can be a value from 1 to 15
 383:USB_HOST/Target/usbh_conf.c ****   * @param  direction : Channel number
 384:USB_HOST/Target/usbh_conf.c ****   *          This parameter can be one of the these values:
 385:USB_HOST/Target/usbh_conf.c ****   *           0 : Output
ARM GAS  /tmp/cct9D8fn.s 			page 19


 386:USB_HOST/Target/usbh_conf.c ****   *           1 : Input
 387:USB_HOST/Target/usbh_conf.c ****   * @param  ep_type : Endpoint Type
 388:USB_HOST/Target/usbh_conf.c ****   *          This parameter can be one of the these values:
 389:USB_HOST/Target/usbh_conf.c ****   *            @arg EP_TYPE_CTRL: Control type
 390:USB_HOST/Target/usbh_conf.c ****   *            @arg EP_TYPE_ISOC: Isochrounous type
 391:USB_HOST/Target/usbh_conf.c ****   *            @arg EP_TYPE_BULK: Bulk type
 392:USB_HOST/Target/usbh_conf.c ****   *            @arg EP_TYPE_INTR: Interrupt type
 393:USB_HOST/Target/usbh_conf.c ****   * @param  token : Endpoint Type
 394:USB_HOST/Target/usbh_conf.c ****   *          This parameter can be one of the these values:
 395:USB_HOST/Target/usbh_conf.c ****   *            @arg 0: PID_SETUP
 396:USB_HOST/Target/usbh_conf.c ****   *            @arg 1: PID_DATA
 397:USB_HOST/Target/usbh_conf.c ****   * @param  pbuff : pointer to URB data
 398:USB_HOST/Target/usbh_conf.c ****   * @param  length : Length of URB data
 399:USB_HOST/Target/usbh_conf.c ****   * @param  do_ping : activate do ping protocol (for high speed only)
 400:USB_HOST/Target/usbh_conf.c ****   *          This parameter can be one of the these values:
 401:USB_HOST/Target/usbh_conf.c ****   *           0 : do ping inactive
 402:USB_HOST/Target/usbh_conf.c ****   *           1 : do ping active
 403:USB_HOST/Target/usbh_conf.c ****   * @retval Status
 404:USB_HOST/Target/usbh_conf.c ****   */
 405:USB_HOST/Target/usbh_conf.c **** USBH_StatusTypeDef USBH_LL_SubmitURB(USBH_HandleTypeDef *phost, uint8_t pipe, uint8_t direction,
 406:USB_HOST/Target/usbh_conf.c ****                                      uint8_t ep_type, uint8_t token, uint8_t *pbuff, uint16_t lengt
 407:USB_HOST/Target/usbh_conf.c ****                                      uint8_t do_ping)
 408:USB_HOST/Target/usbh_conf.c **** {
 409:USB_HOST/Target/usbh_conf.c ****   HAL_StatusTypeDef hal_status = HAL_OK;
 410:USB_HOST/Target/usbh_conf.c ****   USBH_StatusTypeDef usb_status = USBH_OK;
 411:USB_HOST/Target/usbh_conf.c **** 
 412:USB_HOST/Target/usbh_conf.c ****   hal_status = HAL_HCD_HC_SubmitRequest(phost->pData, pipe, direction ,
 413:USB_HOST/Target/usbh_conf.c ****                                         ep_type, token, pbuff, length,
 414:USB_HOST/Target/usbh_conf.c ****                                         do_ping);
 415:USB_HOST/Target/usbh_conf.c ****   usb_status =  USBH_Get_USB_Status(hal_status);
 416:USB_HOST/Target/usbh_conf.c **** 
 417:USB_HOST/Target/usbh_conf.c ****   return usb_status;
 418:USB_HOST/Target/usbh_conf.c **** }
 419:USB_HOST/Target/usbh_conf.c **** 
 420:USB_HOST/Target/usbh_conf.c **** /**
 421:USB_HOST/Target/usbh_conf.c ****   * @brief  Get a URB state from the low level driver.
 422:USB_HOST/Target/usbh_conf.c ****   * @param  phost: Host handle
 423:USB_HOST/Target/usbh_conf.c ****   * @param  pipe: Pipe index
 424:USB_HOST/Target/usbh_conf.c ****   *         This parameter can be a value from 1 to 15
 425:USB_HOST/Target/usbh_conf.c ****   * @retval URB state
 426:USB_HOST/Target/usbh_conf.c ****   *          This parameter can be one of the these values:
 427:USB_HOST/Target/usbh_conf.c ****   *            @arg URB_IDLE
 428:USB_HOST/Target/usbh_conf.c ****   *            @arg URB_DONE
 429:USB_HOST/Target/usbh_conf.c ****   *            @arg URB_NOTREADY
 430:USB_HOST/Target/usbh_conf.c ****   *            @arg URB_NYET
 431:USB_HOST/Target/usbh_conf.c ****   *            @arg URB_ERROR
 432:USB_HOST/Target/usbh_conf.c ****   *            @arg URB_STALL
 433:USB_HOST/Target/usbh_conf.c ****   */
 434:USB_HOST/Target/usbh_conf.c **** USBH_URBStateTypeDef USBH_LL_GetURBState(USBH_HandleTypeDef *phost, uint8_t pipe)
 435:USB_HOST/Target/usbh_conf.c **** {
 599              		.loc 1 435 1 is_stmt 1 view -0
 600              		.cfi_startproc
 601              		@ args = 0, pretend = 0, frame = 0
 602              		@ frame_needed = 0, uses_anonymous_args = 0
 603              		.loc 1 435 1 is_stmt 0 view .LVU134
 604 0000 08B5     		push	{r3, lr}
 605              		.cfi_def_cfa_offset 8
ARM GAS  /tmp/cct9D8fn.s 			page 20


 606              		.cfi_offset 3, -8
 607              		.cfi_offset 14, -4
 436:USB_HOST/Target/usbh_conf.c ****   return (USBH_URBStateTypeDef)HAL_HCD_HC_GetURBState (phost->pData, pipe);
 608              		.loc 1 436 3 is_stmt 1 view .LVU135
 609              		.loc 1 436 32 is_stmt 0 view .LVU136
 610 0002 D0F8D003 		ldr	r0, [r0, #976]
 611              	.LVL49:
 612              		.loc 1 436 32 view .LVU137
 613 0006 FFF7FEFF 		bl	HAL_HCD_HC_GetURBState
 614              	.LVL50:
 437:USB_HOST/Target/usbh_conf.c **** }
 615              		.loc 1 437 1 view .LVU138
 616 000a 08BD     		pop	{r3, pc}
 617              		.cfi_endproc
 618              	.LFE151:
 620              		.section	.text.USBH_LL_DriverVBUS,"ax",%progbits
 621              		.align	1
 622              		.global	USBH_LL_DriverVBUS
 623              		.syntax unified
 624              		.thumb
 625              		.thumb_func
 626              		.fpu fpv4-sp-d16
 628              	USBH_LL_DriverVBUS:
 629              	.LVL51:
 630              	.LFB152:
 438:USB_HOST/Target/usbh_conf.c **** 
 439:USB_HOST/Target/usbh_conf.c **** /**
 440:USB_HOST/Target/usbh_conf.c ****   * @brief  Drive VBUS.
 441:USB_HOST/Target/usbh_conf.c ****   * @param  phost: Host handle
 442:USB_HOST/Target/usbh_conf.c ****   * @param  state : VBUS state
 443:USB_HOST/Target/usbh_conf.c ****   *          This parameter can be one of the these values:
 444:USB_HOST/Target/usbh_conf.c ****   *           0 : VBUS Inactive
 445:USB_HOST/Target/usbh_conf.c ****   *           1 : VBUS Active
 446:USB_HOST/Target/usbh_conf.c ****   * @retval Status
 447:USB_HOST/Target/usbh_conf.c ****   */
 448:USB_HOST/Target/usbh_conf.c **** USBH_StatusTypeDef USBH_LL_DriverVBUS(USBH_HandleTypeDef *phost, uint8_t state)
 449:USB_HOST/Target/usbh_conf.c **** {
 631              		.loc 1 449 1 is_stmt 1 view -0
 632              		.cfi_startproc
 633              		@ args = 0, pretend = 0, frame = 0
 634              		@ frame_needed = 0, uses_anonymous_args = 0
 635              		.loc 1 449 1 is_stmt 0 view .LVU140
 636 0000 08B5     		push	{r3, lr}
 637              		.cfi_def_cfa_offset 8
 638              		.cfi_offset 3, -8
 639              		.cfi_offset 14, -4
 450:USB_HOST/Target/usbh_conf.c ****   if (phost->id == HOST_FS) {
 640              		.loc 1 450 3 is_stmt 1 view .LVU141
 641              		.loc 1 450 12 is_stmt 0 view .LVU142
 642 0002 90F8CC33 		ldrb	r3, [r0, #972]	@ zero_extendqisi2
 643              		.loc 1 450 6 view .LVU143
 644 0006 012B     		cmp	r3, #1
 645 0008 04D0     		beq	.L48
 646              	.LVL52:
 647              	.L46:
 451:USB_HOST/Target/usbh_conf.c ****     MX_DriverVbusFS(state);
 452:USB_HOST/Target/usbh_conf.c ****   }
ARM GAS  /tmp/cct9D8fn.s 			page 21


 453:USB_HOST/Target/usbh_conf.c **** 
 454:USB_HOST/Target/usbh_conf.c ****   /* USER CODE BEGIN 0 */
 455:USB_HOST/Target/usbh_conf.c **** 
 456:USB_HOST/Target/usbh_conf.c ****   /* USER CODE END 0*/
 457:USB_HOST/Target/usbh_conf.c **** 
 458:USB_HOST/Target/usbh_conf.c ****   HAL_Delay(200);
 648              		.loc 1 458 3 is_stmt 1 view .LVU144
 649 000a C820     		movs	r0, #200
 650 000c FFF7FEFF 		bl	HAL_Delay
 651              	.LVL53:
 459:USB_HOST/Target/usbh_conf.c ****   return USBH_OK;
 652              		.loc 1 459 3 view .LVU145
 460:USB_HOST/Target/usbh_conf.c **** }
 653              		.loc 1 460 1 is_stmt 0 view .LVU146
 654 0010 0020     		movs	r0, #0
 655 0012 08BD     		pop	{r3, pc}
 656              	.LVL54:
 657              	.L48:
 451:USB_HOST/Target/usbh_conf.c ****     MX_DriverVbusFS(state);
 658              		.loc 1 451 5 is_stmt 1 view .LVU147
 659 0014 0846     		mov	r0, r1
 660              	.LVL55:
 451:USB_HOST/Target/usbh_conf.c ****     MX_DriverVbusFS(state);
 661              		.loc 1 451 5 is_stmt 0 view .LVU148
 662 0016 FFF7FEFF 		bl	MX_DriverVbusFS
 663              	.LVL56:
 451:USB_HOST/Target/usbh_conf.c ****     MX_DriverVbusFS(state);
 664              		.loc 1 451 5 view .LVU149
 665 001a F6E7     		b	.L46
 666              		.cfi_endproc
 667              	.LFE152:
 669              		.section	.text.USBH_LL_SetToggle,"ax",%progbits
 670              		.align	1
 671              		.global	USBH_LL_SetToggle
 672              		.syntax unified
 673              		.thumb
 674              		.thumb_func
 675              		.fpu fpv4-sp-d16
 677              	USBH_LL_SetToggle:
 678              	.LVL57:
 679              	.LFB153:
 461:USB_HOST/Target/usbh_conf.c **** 
 462:USB_HOST/Target/usbh_conf.c **** /**
 463:USB_HOST/Target/usbh_conf.c ****   * @brief  Set toggle for a pipe.
 464:USB_HOST/Target/usbh_conf.c ****   * @param  phost: Host handle
 465:USB_HOST/Target/usbh_conf.c ****   * @param  pipe: Pipe index
 466:USB_HOST/Target/usbh_conf.c ****   * @param  toggle: toggle (0/1)
 467:USB_HOST/Target/usbh_conf.c ****   * @retval Status
 468:USB_HOST/Target/usbh_conf.c ****   */
 469:USB_HOST/Target/usbh_conf.c **** USBH_StatusTypeDef USBH_LL_SetToggle(USBH_HandleTypeDef *phost, uint8_t pipe, uint8_t toggle)
 470:USB_HOST/Target/usbh_conf.c **** {
 680              		.loc 1 470 1 is_stmt 1 view -0
 681              		.cfi_startproc
 682              		@ args = 0, pretend = 0, frame = 0
 683              		@ frame_needed = 0, uses_anonymous_args = 0
 684              		@ link register save eliminated.
 471:USB_HOST/Target/usbh_conf.c ****   HCD_HandleTypeDef *pHandle;
ARM GAS  /tmp/cct9D8fn.s 			page 22


 685              		.loc 1 471 3 view .LVU151
 472:USB_HOST/Target/usbh_conf.c ****   pHandle = phost->pData;
 686              		.loc 1 472 3 view .LVU152
 687              		.loc 1 472 11 is_stmt 0 view .LVU153
 688 0000 D0F8D003 		ldr	r0, [r0, #976]
 689              	.LVL58:
 473:USB_HOST/Target/usbh_conf.c **** 
 474:USB_HOST/Target/usbh_conf.c ****   if(pHandle->hc[pipe].ep_is_in)
 690              		.loc 1 474 3 is_stmt 1 view .LVU154
 691              		.loc 1 474 23 is_stmt 0 view .LVU155
 692 0004 2C23     		movs	r3, #44
 693 0006 03FB0103 		mla	r3, r3, r1, r0
 694 000a 93F83B30 		ldrb	r3, [r3, #59]	@ zero_extendqisi2
 695              		.loc 1 474 5 view .LVU156
 696 000e 33B1     		cbz	r3, .L50
 475:USB_HOST/Target/usbh_conf.c ****   {
 476:USB_HOST/Target/usbh_conf.c ****     pHandle->hc[pipe].toggle_in = toggle;
 697              		.loc 1 476 5 is_stmt 1 view .LVU157
 698              		.loc 1 476 33 is_stmt 0 view .LVU158
 699 0010 2C23     		movs	r3, #44
 700 0012 03FB0101 		mla	r1, r3, r1, r0
 701              	.LVL59:
 702              		.loc 1 476 33 view .LVU159
 703 0016 81F85420 		strb	r2, [r1, #84]
 704              	.L51:
 477:USB_HOST/Target/usbh_conf.c ****   }
 478:USB_HOST/Target/usbh_conf.c ****   else
 479:USB_HOST/Target/usbh_conf.c ****   {
 480:USB_HOST/Target/usbh_conf.c ****     pHandle->hc[pipe].toggle_out = toggle;
 481:USB_HOST/Target/usbh_conf.c ****   }
 482:USB_HOST/Target/usbh_conf.c **** 
 483:USB_HOST/Target/usbh_conf.c ****   return USBH_OK;
 705              		.loc 1 483 3 is_stmt 1 view .LVU160
 484:USB_HOST/Target/usbh_conf.c **** }
 706              		.loc 1 484 1 is_stmt 0 view .LVU161
 707 001a 0020     		movs	r0, #0
 708              	.LVL60:
 709              		.loc 1 484 1 view .LVU162
 710 001c 7047     		bx	lr
 711              	.LVL61:
 712              	.L50:
 480:USB_HOST/Target/usbh_conf.c ****   }
 713              		.loc 1 480 5 is_stmt 1 view .LVU163
 480:USB_HOST/Target/usbh_conf.c ****   }
 714              		.loc 1 480 34 is_stmt 0 view .LVU164
 715 001e 2C23     		movs	r3, #44
 716 0020 03FB0101 		mla	r1, r3, r1, r0
 717              	.LVL62:
 480:USB_HOST/Target/usbh_conf.c ****   }
 718              		.loc 1 480 34 view .LVU165
 719 0024 81F85520 		strb	r2, [r1, #85]
 720 0028 F7E7     		b	.L51
 721              		.cfi_endproc
 722              	.LFE153:
 724              		.section	.text.USBH_LL_GetToggle,"ax",%progbits
 725              		.align	1
 726              		.global	USBH_LL_GetToggle
ARM GAS  /tmp/cct9D8fn.s 			page 23


 727              		.syntax unified
 728              		.thumb
 729              		.thumb_func
 730              		.fpu fpv4-sp-d16
 732              	USBH_LL_GetToggle:
 733              	.LVL63:
 734              	.LFB154:
 485:USB_HOST/Target/usbh_conf.c **** 
 486:USB_HOST/Target/usbh_conf.c **** /**
 487:USB_HOST/Target/usbh_conf.c ****   * @brief  Return the current toggle of a pipe.
 488:USB_HOST/Target/usbh_conf.c ****   * @param  phost: Host handle
 489:USB_HOST/Target/usbh_conf.c ****   * @param  pipe: Pipe index
 490:USB_HOST/Target/usbh_conf.c ****   * @retval toggle (0/1)
 491:USB_HOST/Target/usbh_conf.c ****   */
 492:USB_HOST/Target/usbh_conf.c **** uint8_t USBH_LL_GetToggle(USBH_HandleTypeDef *phost, uint8_t pipe)
 493:USB_HOST/Target/usbh_conf.c **** {
 735              		.loc 1 493 1 is_stmt 1 view -0
 736              		.cfi_startproc
 737              		@ args = 0, pretend = 0, frame = 0
 738              		@ frame_needed = 0, uses_anonymous_args = 0
 739              		@ link register save eliminated.
 494:USB_HOST/Target/usbh_conf.c ****   uint8_t toggle = 0;
 740              		.loc 1 494 3 view .LVU167
 495:USB_HOST/Target/usbh_conf.c ****   HCD_HandleTypeDef *pHandle;
 741              		.loc 1 495 3 view .LVU168
 496:USB_HOST/Target/usbh_conf.c ****   pHandle = phost->pData;
 742              		.loc 1 496 3 view .LVU169
 743              		.loc 1 496 11 is_stmt 0 view .LVU170
 744 0000 D0F8D023 		ldr	r2, [r0, #976]
 745              	.LVL64:
 497:USB_HOST/Target/usbh_conf.c **** 
 498:USB_HOST/Target/usbh_conf.c ****   if(pHandle->hc[pipe].ep_is_in)
 746              		.loc 1 498 3 is_stmt 1 view .LVU171
 747              		.loc 1 498 23 is_stmt 0 view .LVU172
 748 0004 2C23     		movs	r3, #44
 749 0006 03FB0123 		mla	r3, r3, r1, r2
 750 000a 93F83B30 		ldrb	r3, [r3, #59]	@ zero_extendqisi2
 751              		.loc 1 498 5 view .LVU173
 752 000e 2BB1     		cbz	r3, .L53
 499:USB_HOST/Target/usbh_conf.c ****   {
 500:USB_HOST/Target/usbh_conf.c ****     toggle = pHandle->hc[pipe].toggle_in;
 753              		.loc 1 500 5 is_stmt 1 view .LVU174
 754              		.loc 1 500 12 is_stmt 0 view .LVU175
 755 0010 2C23     		movs	r3, #44
 756 0012 03FB0121 		mla	r1, r3, r1, r2
 757              	.LVL65:
 758              		.loc 1 500 12 view .LVU176
 759 0016 91F85400 		ldrb	r0, [r1, #84]	@ zero_extendqisi2
 760              	.LVL66:
 761              		.loc 1 500 12 view .LVU177
 762 001a 7047     		bx	lr
 763              	.LVL67:
 764              	.L53:
 501:USB_HOST/Target/usbh_conf.c ****   }
 502:USB_HOST/Target/usbh_conf.c ****   else
 503:USB_HOST/Target/usbh_conf.c ****   {
 504:USB_HOST/Target/usbh_conf.c ****     toggle = pHandle->hc[pipe].toggle_out;
ARM GAS  /tmp/cct9D8fn.s 			page 24


 765              		.loc 1 504 5 is_stmt 1 view .LVU178
 766              		.loc 1 504 12 is_stmt 0 view .LVU179
 767 001c 2C23     		movs	r3, #44
 768 001e 03FB0121 		mla	r1, r3, r1, r2
 769              	.LVL68:
 770              		.loc 1 504 12 view .LVU180
 771 0022 91F85500 		ldrb	r0, [r1, #85]	@ zero_extendqisi2
 772              	.LVL69:
 505:USB_HOST/Target/usbh_conf.c ****   }
 506:USB_HOST/Target/usbh_conf.c ****   return toggle;
 773              		.loc 1 506 3 is_stmt 1 view .LVU181
 507:USB_HOST/Target/usbh_conf.c **** }
 774              		.loc 1 507 1 is_stmt 0 view .LVU182
 775 0026 7047     		bx	lr
 776              		.cfi_endproc
 777              	.LFE154:
 779              		.section	.text.USBH_Delay,"ax",%progbits
 780              		.align	1
 781              		.global	USBH_Delay
 782              		.syntax unified
 783              		.thumb
 784              		.thumb_func
 785              		.fpu fpv4-sp-d16
 787              	USBH_Delay:
 788              	.LVL70:
 789              	.LFB155:
 508:USB_HOST/Target/usbh_conf.c **** 
 509:USB_HOST/Target/usbh_conf.c **** /**
 510:USB_HOST/Target/usbh_conf.c ****   * @brief  Delay routine for the USB Host Library
 511:USB_HOST/Target/usbh_conf.c ****   * @param  Delay: Delay in ms
 512:USB_HOST/Target/usbh_conf.c ****   * @retval None
 513:USB_HOST/Target/usbh_conf.c ****   */
 514:USB_HOST/Target/usbh_conf.c **** void USBH_Delay(uint32_t Delay)
 515:USB_HOST/Target/usbh_conf.c **** {
 790              		.loc 1 515 1 is_stmt 1 view -0
 791              		.cfi_startproc
 792              		@ args = 0, pretend = 0, frame = 0
 793              		@ frame_needed = 0, uses_anonymous_args = 0
 794              		.loc 1 515 1 is_stmt 0 view .LVU184
 795 0000 08B5     		push	{r3, lr}
 796              		.cfi_def_cfa_offset 8
 797              		.cfi_offset 3, -8
 798              		.cfi_offset 14, -4
 516:USB_HOST/Target/usbh_conf.c ****   HAL_Delay(Delay);
 799              		.loc 1 516 3 is_stmt 1 view .LVU185
 800 0002 FFF7FEFF 		bl	HAL_Delay
 801              	.LVL71:
 517:USB_HOST/Target/usbh_conf.c **** }
 802              		.loc 1 517 1 is_stmt 0 view .LVU186
 803 0006 08BD     		pop	{r3, pc}
 804              		.cfi_endproc
 805              	.LFE155:
 807              		.section	.text.USBH_Get_USB_Status,"ax",%progbits
 808              		.align	1
 809              		.global	USBH_Get_USB_Status
 810              		.syntax unified
 811              		.thumb
ARM GAS  /tmp/cct9D8fn.s 			page 25


 812              		.thumb_func
 813              		.fpu fpv4-sp-d16
 815              	USBH_Get_USB_Status:
 816              	.LVL72:
 817              	.LFB156:
 518:USB_HOST/Target/usbh_conf.c **** 
 519:USB_HOST/Target/usbh_conf.c **** /**
 520:USB_HOST/Target/usbh_conf.c ****   * @brief  Returns the USB status depending on the HAL status:
 521:USB_HOST/Target/usbh_conf.c ****   * @param  hal_status: HAL status
 522:USB_HOST/Target/usbh_conf.c ****   * @retval USB status
 523:USB_HOST/Target/usbh_conf.c ****   */
 524:USB_HOST/Target/usbh_conf.c **** USBH_StatusTypeDef USBH_Get_USB_Status(HAL_StatusTypeDef hal_status)
 525:USB_HOST/Target/usbh_conf.c **** {
 818              		.loc 1 525 1 is_stmt 1 view -0
 819              		.cfi_startproc
 820              		@ args = 0, pretend = 0, frame = 0
 821              		@ frame_needed = 0, uses_anonymous_args = 0
 822              		@ link register save eliminated.
 526:USB_HOST/Target/usbh_conf.c ****   USBH_StatusTypeDef usb_status = USBH_OK;
 823              		.loc 1 526 3 view .LVU188
 527:USB_HOST/Target/usbh_conf.c **** 
 528:USB_HOST/Target/usbh_conf.c ****   switch (hal_status)
 824              		.loc 1 528 3 view .LVU189
 825 0000 0228     		cmp	r0, #2
 826 0002 05D8     		bhi	.L62
 827 0004 DFE800F0 		tbb	[pc, r0]
 828              	.L60:
 829 0008 05       		.byte	(.L58-.L60)/2
 830 0009 04       		.byte	(.L62-.L60)/2
 831 000a 02       		.byte	(.L59-.L60)/2
 832 000b 00       		.p2align 1
 833              	.L59:
 529:USB_HOST/Target/usbh_conf.c ****   {
 530:USB_HOST/Target/usbh_conf.c ****     case HAL_OK :
 531:USB_HOST/Target/usbh_conf.c ****       usb_status = USBH_OK;
 532:USB_HOST/Target/usbh_conf.c ****     break;
 533:USB_HOST/Target/usbh_conf.c ****     case HAL_ERROR :
 534:USB_HOST/Target/usbh_conf.c ****       usb_status = USBH_FAIL;
 535:USB_HOST/Target/usbh_conf.c ****     break;
 536:USB_HOST/Target/usbh_conf.c ****     case HAL_BUSY :
 537:USB_HOST/Target/usbh_conf.c ****       usb_status = USBH_BUSY;
 834              		.loc 1 537 7 view .LVU190
 835              	.LVL73:
 538:USB_HOST/Target/usbh_conf.c ****     break;
 836              		.loc 1 538 5 view .LVU191
 537:USB_HOST/Target/usbh_conf.c ****     break;
 837              		.loc 1 537 18 is_stmt 0 view .LVU192
 838 000c 0120     		movs	r0, #1
 839              	.LVL74:
 840              		.loc 1 538 5 view .LVU193
 841 000e 7047     		bx	lr
 842              	.LVL75:
 843              	.L62:
 534:USB_HOST/Target/usbh_conf.c ****     break;
 844              		.loc 1 534 18 view .LVU194
 845 0010 0220     		movs	r0, #2
 846              	.LVL76:
ARM GAS  /tmp/cct9D8fn.s 			page 26


 847              	.L58:
 539:USB_HOST/Target/usbh_conf.c ****     case HAL_TIMEOUT :
 540:USB_HOST/Target/usbh_conf.c ****       usb_status = USBH_FAIL;
 541:USB_HOST/Target/usbh_conf.c ****     break;
 542:USB_HOST/Target/usbh_conf.c ****     default :
 543:USB_HOST/Target/usbh_conf.c ****       usb_status = USBH_FAIL;
 544:USB_HOST/Target/usbh_conf.c ****     break;
 545:USB_HOST/Target/usbh_conf.c ****   }
 546:USB_HOST/Target/usbh_conf.c ****   return usb_status;
 848              		.loc 1 546 3 is_stmt 1 view .LVU195
 547:USB_HOST/Target/usbh_conf.c **** }
 849              		.loc 1 547 1 is_stmt 0 view .LVU196
 850 0012 7047     		bx	lr
 851              		.cfi_endproc
 852              	.LFE156:
 854              		.section	.text.USBH_LL_DeInit,"ax",%progbits
 855              		.align	1
 856              		.global	USBH_LL_DeInit
 857              		.syntax unified
 858              		.thumb
 859              		.thumb_func
 860              		.fpu fpv4-sp-d16
 862              	USBH_LL_DeInit:
 863              	.LVL77:
 864              	.LFB142:
 232:USB_HOST/Target/usbh_conf.c ****   HAL_StatusTypeDef hal_status = HAL_OK;
 865              		.loc 1 232 1 is_stmt 1 view -0
 866              		.cfi_startproc
 867              		@ args = 0, pretend = 0, frame = 0
 868              		@ frame_needed = 0, uses_anonymous_args = 0
 232:USB_HOST/Target/usbh_conf.c ****   HAL_StatusTypeDef hal_status = HAL_OK;
 869              		.loc 1 232 1 is_stmt 0 view .LVU198
 870 0000 08B5     		push	{r3, lr}
 871              		.cfi_def_cfa_offset 8
 872              		.cfi_offset 3, -8
 873              		.cfi_offset 14, -4
 233:USB_HOST/Target/usbh_conf.c ****   USBH_StatusTypeDef usb_status = USBH_OK;
 874              		.loc 1 233 3 is_stmt 1 view .LVU199
 875              	.LVL78:
 234:USB_HOST/Target/usbh_conf.c **** 
 876              		.loc 1 234 3 view .LVU200
 236:USB_HOST/Target/usbh_conf.c **** 
 877              		.loc 1 236 3 view .LVU201
 236:USB_HOST/Target/usbh_conf.c **** 
 878              		.loc 1 236 16 is_stmt 0 view .LVU202
 879 0002 D0F8D003 		ldr	r0, [r0, #976]
 880              	.LVL79:
 236:USB_HOST/Target/usbh_conf.c **** 
 881              		.loc 1 236 16 view .LVU203
 882 0006 FFF7FEFF 		bl	HAL_HCD_DeInit
 883              	.LVL80:
 238:USB_HOST/Target/usbh_conf.c **** 
 884              		.loc 1 238 3 is_stmt 1 view .LVU204
 238:USB_HOST/Target/usbh_conf.c **** 
 885              		.loc 1 238 16 is_stmt 0 view .LVU205
 886 000a FFF7FEFF 		bl	USBH_Get_USB_Status
 887              	.LVL81:
ARM GAS  /tmp/cct9D8fn.s 			page 27


 240:USB_HOST/Target/usbh_conf.c **** }
 888              		.loc 1 240 3 is_stmt 1 view .LVU206
 241:USB_HOST/Target/usbh_conf.c **** 
 889              		.loc 1 241 1 is_stmt 0 view .LVU207
 890 000e 08BD     		pop	{r3, pc}
 891              		.cfi_endproc
 892              	.LFE142:
 894              		.section	.text.USBH_LL_Start,"ax",%progbits
 895              		.align	1
 896              		.global	USBH_LL_Start
 897              		.syntax unified
 898              		.thumb
 899              		.thumb_func
 900              		.fpu fpv4-sp-d16
 902              	USBH_LL_Start:
 903              	.LVL82:
 904              	.LFB143:
 249:USB_HOST/Target/usbh_conf.c ****   HAL_StatusTypeDef hal_status = HAL_OK;
 905              		.loc 1 249 1 is_stmt 1 view -0
 906              		.cfi_startproc
 907              		@ args = 0, pretend = 0, frame = 0
 908              		@ frame_needed = 0, uses_anonymous_args = 0
 249:USB_HOST/Target/usbh_conf.c ****   HAL_StatusTypeDef hal_status = HAL_OK;
 909              		.loc 1 249 1 is_stmt 0 view .LVU209
 910 0000 08B5     		push	{r3, lr}
 911              		.cfi_def_cfa_offset 8
 912              		.cfi_offset 3, -8
 913              		.cfi_offset 14, -4
 250:USB_HOST/Target/usbh_conf.c ****   USBH_StatusTypeDef usb_status = USBH_OK;
 914              		.loc 1 250 3 is_stmt 1 view .LVU210
 915              	.LVL83:
 251:USB_HOST/Target/usbh_conf.c **** 
 916              		.loc 1 251 3 view .LVU211
 253:USB_HOST/Target/usbh_conf.c **** 
 917              		.loc 1 253 3 view .LVU212
 253:USB_HOST/Target/usbh_conf.c **** 
 918              		.loc 1 253 16 is_stmt 0 view .LVU213
 919 0002 D0F8D003 		ldr	r0, [r0, #976]
 920              	.LVL84:
 253:USB_HOST/Target/usbh_conf.c **** 
 921              		.loc 1 253 16 view .LVU214
 922 0006 FFF7FEFF 		bl	HAL_HCD_Start
 923              	.LVL85:
 255:USB_HOST/Target/usbh_conf.c **** 
 924              		.loc 1 255 3 is_stmt 1 view .LVU215
 255:USB_HOST/Target/usbh_conf.c **** 
 925              		.loc 1 255 16 is_stmt 0 view .LVU216
 926 000a FFF7FEFF 		bl	USBH_Get_USB_Status
 927              	.LVL86:
 257:USB_HOST/Target/usbh_conf.c **** }
 928              		.loc 1 257 3 is_stmt 1 view .LVU217
 258:USB_HOST/Target/usbh_conf.c **** 
 929              		.loc 1 258 1 is_stmt 0 view .LVU218
 930 000e 08BD     		pop	{r3, pc}
 931              		.cfi_endproc
 932              	.LFE143:
 934              		.section	.text.USBH_LL_Stop,"ax",%progbits
ARM GAS  /tmp/cct9D8fn.s 			page 28


 935              		.align	1
 936              		.global	USBH_LL_Stop
 937              		.syntax unified
 938              		.thumb
 939              		.thumb_func
 940              		.fpu fpv4-sp-d16
 942              	USBH_LL_Stop:
 943              	.LVL87:
 944              	.LFB144:
 266:USB_HOST/Target/usbh_conf.c ****   HAL_StatusTypeDef hal_status = HAL_OK;
 945              		.loc 1 266 1 is_stmt 1 view -0
 946              		.cfi_startproc
 947              		@ args = 0, pretend = 0, frame = 0
 948              		@ frame_needed = 0, uses_anonymous_args = 0
 266:USB_HOST/Target/usbh_conf.c ****   HAL_StatusTypeDef hal_status = HAL_OK;
 949              		.loc 1 266 1 is_stmt 0 view .LVU220
 950 0000 08B5     		push	{r3, lr}
 951              		.cfi_def_cfa_offset 8
 952              		.cfi_offset 3, -8
 953              		.cfi_offset 14, -4
 267:USB_HOST/Target/usbh_conf.c ****   USBH_StatusTypeDef usb_status = USBH_OK;
 954              		.loc 1 267 3 is_stmt 1 view .LVU221
 955              	.LVL88:
 268:USB_HOST/Target/usbh_conf.c **** 
 956              		.loc 1 268 3 view .LVU222
 270:USB_HOST/Target/usbh_conf.c **** 
 957              		.loc 1 270 3 view .LVU223
 270:USB_HOST/Target/usbh_conf.c **** 
 958              		.loc 1 270 16 is_stmt 0 view .LVU224
 959 0002 D0F8D003 		ldr	r0, [r0, #976]
 960              	.LVL89:
 270:USB_HOST/Target/usbh_conf.c **** 
 961              		.loc 1 270 16 view .LVU225
 962 0006 FFF7FEFF 		bl	HAL_HCD_Stop
 963              	.LVL90:
 272:USB_HOST/Target/usbh_conf.c **** 
 964              		.loc 1 272 3 is_stmt 1 view .LVU226
 272:USB_HOST/Target/usbh_conf.c **** 
 965              		.loc 1 272 16 is_stmt 0 view .LVU227
 966 000a FFF7FEFF 		bl	USBH_Get_USB_Status
 967              	.LVL91:
 274:USB_HOST/Target/usbh_conf.c **** }
 968              		.loc 1 274 3 is_stmt 1 view .LVU228
 275:USB_HOST/Target/usbh_conf.c **** 
 969              		.loc 1 275 1 is_stmt 0 view .LVU229
 970 000e 08BD     		pop	{r3, pc}
 971              		.cfi_endproc
 972              	.LFE144:
 974              		.section	.text.USBH_LL_ResetPort,"ax",%progbits
 975              		.align	1
 976              		.global	USBH_LL_ResetPort
 977              		.syntax unified
 978              		.thumb
 979              		.thumb_func
 980              		.fpu fpv4-sp-d16
 982              	USBH_LL_ResetPort:
 983              	.LVL92:
ARM GAS  /tmp/cct9D8fn.s 			page 29


 984              	.LFB146:
 313:USB_HOST/Target/usbh_conf.c ****   HAL_StatusTypeDef hal_status = HAL_OK;
 985              		.loc 1 313 1 is_stmt 1 view -0
 986              		.cfi_startproc
 987              		@ args = 0, pretend = 0, frame = 0
 988              		@ frame_needed = 0, uses_anonymous_args = 0
 313:USB_HOST/Target/usbh_conf.c ****   HAL_StatusTypeDef hal_status = HAL_OK;
 989              		.loc 1 313 1 is_stmt 0 view .LVU231
 990 0000 08B5     		push	{r3, lr}
 991              		.cfi_def_cfa_offset 8
 992              		.cfi_offset 3, -8
 993              		.cfi_offset 14, -4
 314:USB_HOST/Target/usbh_conf.c ****   USBH_StatusTypeDef usb_status = USBH_OK;
 994              		.loc 1 314 3 is_stmt 1 view .LVU232
 995              	.LVL93:
 315:USB_HOST/Target/usbh_conf.c **** 
 996              		.loc 1 315 3 view .LVU233
 317:USB_HOST/Target/usbh_conf.c **** 
 997              		.loc 1 317 3 view .LVU234
 317:USB_HOST/Target/usbh_conf.c **** 
 998              		.loc 1 317 16 is_stmt 0 view .LVU235
 999 0002 D0F8D003 		ldr	r0, [r0, #976]
 1000              	.LVL94:
 317:USB_HOST/Target/usbh_conf.c **** 
 1001              		.loc 1 317 16 view .LVU236
 1002 0006 FFF7FEFF 		bl	HAL_HCD_ResetPort
 1003              	.LVL95:
 319:USB_HOST/Target/usbh_conf.c **** 
 1004              		.loc 1 319 3 is_stmt 1 view .LVU237
 319:USB_HOST/Target/usbh_conf.c **** 
 1005              		.loc 1 319 16 is_stmt 0 view .LVU238
 1006 000a FFF7FEFF 		bl	USBH_Get_USB_Status
 1007              	.LVL96:
 321:USB_HOST/Target/usbh_conf.c **** }
 1008              		.loc 1 321 3 is_stmt 1 view .LVU239
 322:USB_HOST/Target/usbh_conf.c **** 
 1009              		.loc 1 322 1 is_stmt 0 view .LVU240
 1010 000e 08BD     		pop	{r3, pc}
 1011              		.cfi_endproc
 1012              	.LFE146:
 1014              		.section	.text.USBH_LL_OpenPipe,"ax",%progbits
 1015              		.align	1
 1016              		.global	USBH_LL_OpenPipe
 1017              		.syntax unified
 1018              		.thumb
 1019              		.thumb_func
 1020              		.fpu fpv4-sp-d16
 1022              	USBH_LL_OpenPipe:
 1023              	.LVL97:
 1024              	.LFB148:
 348:USB_HOST/Target/usbh_conf.c ****   HAL_StatusTypeDef hal_status = HAL_OK;
 1025              		.loc 1 348 1 is_stmt 1 view -0
 1026              		.cfi_startproc
 1027              		@ args = 12, pretend = 0, frame = 0
 1028              		@ frame_needed = 0, uses_anonymous_args = 0
 348:USB_HOST/Target/usbh_conf.c ****   HAL_StatusTypeDef hal_status = HAL_OK;
 1029              		.loc 1 348 1 is_stmt 0 view .LVU242
ARM GAS  /tmp/cct9D8fn.s 			page 30


 1030 0000 10B5     		push	{r4, lr}
 1031              		.cfi_def_cfa_offset 8
 1032              		.cfi_offset 4, -8
 1033              		.cfi_offset 14, -4
 1034 0002 84B0     		sub	sp, sp, #16
 1035              		.cfi_def_cfa_offset 24
 349:USB_HOST/Target/usbh_conf.c ****   USBH_StatusTypeDef usb_status = USBH_OK;
 1036              		.loc 1 349 3 is_stmt 1 view .LVU243
 1037              	.LVL98:
 350:USB_HOST/Target/usbh_conf.c **** 
 1038              		.loc 1 350 3 view .LVU244
 352:USB_HOST/Target/usbh_conf.c ****                                dev_address, speed, ep_type, mps);
 1039              		.loc 1 352 3 view .LVU245
 352:USB_HOST/Target/usbh_conf.c ****                                dev_address, speed, ep_type, mps);
 1040              		.loc 1 352 37 is_stmt 0 view .LVU246
 1041 0004 D0F8D003 		ldr	r0, [r0, #976]
 1042              	.LVL99:
 352:USB_HOST/Target/usbh_conf.c ****                                dev_address, speed, ep_type, mps);
 1043              		.loc 1 352 16 view .LVU247
 1044 0008 BDF82040 		ldrh	r4, [sp, #32]
 1045 000c 0294     		str	r4, [sp, #8]
 1046 000e 9DF81C40 		ldrb	r4, [sp, #28]	@ zero_extendqisi2
 1047 0012 0194     		str	r4, [sp, #4]
 1048 0014 9DF81840 		ldrb	r4, [sp, #24]	@ zero_extendqisi2
 1049 0018 0094     		str	r4, [sp]
 1050 001a FFF7FEFF 		bl	HAL_HCD_HC_Init
 1051              	.LVL100:
 355:USB_HOST/Target/usbh_conf.c **** 
 1052              		.loc 1 355 3 is_stmt 1 view .LVU248
 355:USB_HOST/Target/usbh_conf.c **** 
 1053              		.loc 1 355 16 is_stmt 0 view .LVU249
 1054 001e FFF7FEFF 		bl	USBH_Get_USB_Status
 1055              	.LVL101:
 357:USB_HOST/Target/usbh_conf.c **** }
 1056              		.loc 1 357 3 is_stmt 1 view .LVU250
 358:USB_HOST/Target/usbh_conf.c **** 
 1057              		.loc 1 358 1 is_stmt 0 view .LVU251
 1058 0022 04B0     		add	sp, sp, #16
 1059              		.cfi_def_cfa_offset 8
 1060              		@ sp needed
 1061 0024 10BD     		pop	{r4, pc}
 358:USB_HOST/Target/usbh_conf.c **** 
 1062              		.loc 1 358 1 view .LVU252
 1063              		.cfi_endproc
 1064              	.LFE148:
 1066              		.section	.text.USBH_LL_ClosePipe,"ax",%progbits
 1067              		.align	1
 1068              		.global	USBH_LL_ClosePipe
 1069              		.syntax unified
 1070              		.thumb
 1071              		.thumb_func
 1072              		.fpu fpv4-sp-d16
 1074              	USBH_LL_ClosePipe:
 1075              	.LVL102:
 1076              	.LFB149:
 367:USB_HOST/Target/usbh_conf.c ****   HAL_StatusTypeDef hal_status = HAL_OK;
 1077              		.loc 1 367 1 is_stmt 1 view -0
ARM GAS  /tmp/cct9D8fn.s 			page 31


 1078              		.cfi_startproc
 1079              		@ args = 0, pretend = 0, frame = 0
 1080              		@ frame_needed = 0, uses_anonymous_args = 0
 367:USB_HOST/Target/usbh_conf.c ****   HAL_StatusTypeDef hal_status = HAL_OK;
 1081              		.loc 1 367 1 is_stmt 0 view .LVU254
 1082 0000 08B5     		push	{r3, lr}
 1083              		.cfi_def_cfa_offset 8
 1084              		.cfi_offset 3, -8
 1085              		.cfi_offset 14, -4
 368:USB_HOST/Target/usbh_conf.c ****   USBH_StatusTypeDef usb_status = USBH_OK;
 1086              		.loc 1 368 3 is_stmt 1 view .LVU255
 1087              	.LVL103:
 369:USB_HOST/Target/usbh_conf.c **** 
 1088              		.loc 1 369 3 view .LVU256
 371:USB_HOST/Target/usbh_conf.c **** 
 1089              		.loc 1 371 3 view .LVU257
 371:USB_HOST/Target/usbh_conf.c **** 
 1090              		.loc 1 371 16 is_stmt 0 view .LVU258
 1091 0002 D0F8D003 		ldr	r0, [r0, #976]
 1092              	.LVL104:
 371:USB_HOST/Target/usbh_conf.c **** 
 1093              		.loc 1 371 16 view .LVU259
 1094 0006 FFF7FEFF 		bl	HAL_HCD_HC_Halt
 1095              	.LVL105:
 373:USB_HOST/Target/usbh_conf.c **** 
 1096              		.loc 1 373 3 is_stmt 1 view .LVU260
 373:USB_HOST/Target/usbh_conf.c **** 
 1097              		.loc 1 373 16 is_stmt 0 view .LVU261
 1098 000a FFF7FEFF 		bl	USBH_Get_USB_Status
 1099              	.LVL106:
 375:USB_HOST/Target/usbh_conf.c **** }
 1100              		.loc 1 375 3 is_stmt 1 view .LVU262
 376:USB_HOST/Target/usbh_conf.c **** 
 1101              		.loc 1 376 1 is_stmt 0 view .LVU263
 1102 000e 08BD     		pop	{r3, pc}
 1103              		.cfi_endproc
 1104              	.LFE149:
 1106              		.section	.text.USBH_LL_SubmitURB,"ax",%progbits
 1107              		.align	1
 1108              		.global	USBH_LL_SubmitURB
 1109              		.syntax unified
 1110              		.thumb
 1111              		.thumb_func
 1112              		.fpu fpv4-sp-d16
 1114              	USBH_LL_SubmitURB:
 1115              	.LVL107:
 1116              	.LFB150:
 408:USB_HOST/Target/usbh_conf.c ****   HAL_StatusTypeDef hal_status = HAL_OK;
 1117              		.loc 1 408 1 is_stmt 1 view -0
 1118              		.cfi_startproc
 1119              		@ args = 16, pretend = 0, frame = 0
 1120              		@ frame_needed = 0, uses_anonymous_args = 0
 408:USB_HOST/Target/usbh_conf.c ****   HAL_StatusTypeDef hal_status = HAL_OK;
 1121              		.loc 1 408 1 is_stmt 0 view .LVU265
 1122 0000 10B5     		push	{r4, lr}
 1123              		.cfi_def_cfa_offset 8
 1124              		.cfi_offset 4, -8
ARM GAS  /tmp/cct9D8fn.s 			page 32


 1125              		.cfi_offset 14, -4
 1126 0002 84B0     		sub	sp, sp, #16
 1127              		.cfi_def_cfa_offset 24
 409:USB_HOST/Target/usbh_conf.c ****   USBH_StatusTypeDef usb_status = USBH_OK;
 1128              		.loc 1 409 3 is_stmt 1 view .LVU266
 1129              	.LVL108:
 410:USB_HOST/Target/usbh_conf.c **** 
 1130              		.loc 1 410 3 view .LVU267
 412:USB_HOST/Target/usbh_conf.c ****                                         ep_type, token, pbuff, length,
 1131              		.loc 1 412 3 view .LVU268
 412:USB_HOST/Target/usbh_conf.c ****                                         ep_type, token, pbuff, length,
 1132              		.loc 1 412 46 is_stmt 0 view .LVU269
 1133 0004 D0F8D003 		ldr	r0, [r0, #976]
 1134              	.LVL109:
 412:USB_HOST/Target/usbh_conf.c ****                                         ep_type, token, pbuff, length,
 1135              		.loc 1 412 16 view .LVU270
 1136 0008 9DF82440 		ldrb	r4, [sp, #36]	@ zero_extendqisi2
 1137 000c 0394     		str	r4, [sp, #12]
 1138 000e BDF82040 		ldrh	r4, [sp, #32]
 1139 0012 0294     		str	r4, [sp, #8]
 1140 0014 079C     		ldr	r4, [sp, #28]
 1141 0016 0194     		str	r4, [sp, #4]
 1142 0018 9DF81840 		ldrb	r4, [sp, #24]	@ zero_extendqisi2
 1143 001c 0094     		str	r4, [sp]
 1144 001e FFF7FEFF 		bl	HAL_HCD_HC_SubmitRequest
 1145              	.LVL110:
 415:USB_HOST/Target/usbh_conf.c **** 
 1146              		.loc 1 415 3 is_stmt 1 view .LVU271
 415:USB_HOST/Target/usbh_conf.c **** 
 1147              		.loc 1 415 17 is_stmt 0 view .LVU272
 1148 0022 FFF7FEFF 		bl	USBH_Get_USB_Status
 1149              	.LVL111:
 417:USB_HOST/Target/usbh_conf.c **** }
 1150              		.loc 1 417 3 is_stmt 1 view .LVU273
 418:USB_HOST/Target/usbh_conf.c **** 
 1151              		.loc 1 418 1 is_stmt 0 view .LVU274
 1152 0026 04B0     		add	sp, sp, #16
 1153              		.cfi_def_cfa_offset 8
 1154              		@ sp needed
 1155 0028 10BD     		pop	{r4, pc}
 418:USB_HOST/Target/usbh_conf.c **** 
 1156              		.loc 1 418 1 view .LVU275
 1157              		.cfi_endproc
 1158              	.LFE150:
 1160              		.comm	hhcd_USB_OTG_FS,772,4
 1161              		.text
 1162              	.Letext0:
 1163              		.file 2 "/usr/include/newlib/machine/_default_types.h"
 1164              		.file 3 "/usr/lib/gcc/arm-none-eabi/9.2.1/include/stddef.h"
 1165              		.file 4 "/usr/include/newlib/sys/_types.h"
 1166              		.file 5 "/usr/include/newlib/sys/reent.h"
 1167              		.file 6 "/usr/include/newlib/sys/lock.h"
 1168              		.file 7 "/usr/include/newlib/sys/_stdint.h"
 1169              		.file 8 "/usr/include/newlib/stdlib.h"
 1170              		.file 9 "Drivers/CMSIS/Include/core_cm4.h"
 1171              		.file 10 "Drivers/CMSIS/Device/ST/STM32F4xx/Include/system_stm32f4xx.h"
 1172              		.file 11 "Drivers/CMSIS/Device/ST/STM32F4xx/Include/stm32f407xx.h"
ARM GAS  /tmp/cct9D8fn.s 			page 33


 1173              		.file 12 "Drivers/CMSIS/Device/ST/STM32F4xx/Include/stm32f4xx.h"
 1174              		.file 13 "Drivers/STM32F4xx_HAL_Driver/Inc/stm32f4xx_hal_def.h"
 1175              		.file 14 "Drivers/STM32F4xx_HAL_Driver/Inc/stm32f4xx_hal_gpio.h"
 1176              		.file 15 "Drivers/STM32F4xx_HAL_Driver/Inc/stm32f4xx_ll_usb.h"
 1177              		.file 16 "Drivers/STM32F4xx_HAL_Driver/Inc/stm32f4xx_hal_hcd.h"
 1178              		.file 17 "Drivers/STM32F4xx_HAL_Driver/Inc/stm32f4xx_hal.h"
 1179              		.file 18 "Middlewares/ST/STM32_USB_Host_Library/Core/Inc/usbh_def.h"
 1180              		.file 19 "Middlewares/ST/STM32_USB_Host_Library/Core/Inc/usbh_ctlreq.h"
 1181              		.file 20 "USB_HOST/Target/usbh_platform.h"
 1182              		.file 21 "Middlewares/ST/STM32_USB_Host_Library/Core/Inc/usbh_core.h"
 1183              		.file 22 "Drivers/STM32F4xx_HAL_Driver/Inc/stm32f4xx_hal_cortex.h"
ARM GAS  /tmp/cct9D8fn.s 			page 34

